
aasm:     file format elf64-x86-64


Disassembly of section .init:

0000000000002000 <_init>:
_init():
    2000:	48 83 ec 08          	sub    rsp,0x8
    2004:	48 8b 05 c5 cf 00 00 	mov    rax,QWORD PTR [rip+0xcfc5]        # efd0 <__gmon_start__@Base>
    200b:	48 85 c0             	test   rax,rax
    200e:	74 02                	je     2012 <_init+0x12>
    2010:	ff d0                	call   rax
    2012:	48 83 c4 08          	add    rsp,0x8
    2016:	c3                   	ret

Disassembly of section .plt:

0000000000002020 <free@plt-0x10>:
    2020:	ff 35 ca cf 00 00    	push   QWORD PTR [rip+0xcfca]        # eff0 <_GLOBAL_OFFSET_TABLE_+0x8>
    2026:	ff 25 cc cf 00 00    	jmp    QWORD PTR [rip+0xcfcc]        # eff8 <_GLOBAL_OFFSET_TABLE_+0x10>
    202c:	0f 1f 40 00          	nop    DWORD PTR [rax+0x0]

0000000000002030 <free@plt>:
    2030:	ff 25 ca cf 00 00    	jmp    QWORD PTR [rip+0xcfca]        # f000 <free@GLIBC_2.2.5>
    2036:	68 00 00 00 00       	push   0x0
    203b:	e9 e0 ff ff ff       	jmp    2020 <_init+0x20>

0000000000002040 <putchar@plt>:
    2040:	ff 25 c2 cf 00 00    	jmp    QWORD PTR [rip+0xcfc2]        # f008 <putchar@GLIBC_2.2.5>
    2046:	68 01 00 00 00       	push   0x1
    204b:	e9 d0 ff ff ff       	jmp    2020 <_init+0x20>

0000000000002050 <strcasecmp@plt>:
    2050:	ff 25 ba cf 00 00    	jmp    QWORD PTR [rip+0xcfba]        # f010 <strcasecmp@GLIBC_2.2.5>
    2056:	68 02 00 00 00       	push   0x2
    205b:	e9 c0 ff ff ff       	jmp    2020 <_init+0x20>

0000000000002060 <strncpy@plt>:
    2060:	ff 25 b2 cf 00 00    	jmp    QWORD PTR [rip+0xcfb2]        # f018 <strncpy@GLIBC_2.2.5>
    2066:	68 03 00 00 00       	push   0x3
    206b:	e9 b0 ff ff ff       	jmp    2020 <_init+0x20>

0000000000002070 <strncmp@plt>:
    2070:	ff 25 aa cf 00 00    	jmp    QWORD PTR [rip+0xcfaa]        # f020 <strncmp@GLIBC_2.2.5>
    2076:	68 04 00 00 00       	push   0x4
    207b:	e9 a0 ff ff ff       	jmp    2020 <_init+0x20>

0000000000002080 <puts@plt>:
    2080:	ff 25 a2 cf 00 00    	jmp    QWORD PTR [rip+0xcfa2]        # f028 <puts@GLIBC_2.2.5>
    2086:	68 05 00 00 00       	push   0x5
    208b:	e9 90 ff ff ff       	jmp    2020 <_init+0x20>

0000000000002090 <fclose@plt>:
    2090:	ff 25 9a cf 00 00    	jmp    QWORD PTR [rip+0xcf9a]        # f030 <fclose@GLIBC_2.2.5>
    2096:	68 06 00 00 00       	push   0x6
    209b:	e9 80 ff ff ff       	jmp    2020 <_init+0x20>

00000000000020a0 <printf@plt>:
    20a0:	ff 25 92 cf 00 00    	jmp    QWORD PTR [rip+0xcf92]        # f038 <printf@GLIBC_2.2.5>
    20a6:	68 07 00 00 00       	push   0x7
    20ab:	e9 70 ff ff ff       	jmp    2020 <_init+0x20>

00000000000020b0 <snprintf@plt>:
    20b0:	ff 25 8a cf 00 00    	jmp    QWORD PTR [rip+0xcf8a]        # f040 <snprintf@GLIBC_2.2.5>
    20b6:	68 08 00 00 00       	push   0x8
    20bb:	e9 60 ff ff ff       	jmp    2020 <_init+0x20>

00000000000020c0 <memset@plt>:
    20c0:	ff 25 82 cf 00 00    	jmp    QWORD PTR [rip+0xcf82]        # f048 <memset@GLIBC_2.2.5>
    20c6:	68 09 00 00 00       	push   0x9
    20cb:	e9 50 ff ff ff       	jmp    2020 <_init+0x20>

00000000000020d0 <fgets@plt>:
    20d0:	ff 25 7a cf 00 00    	jmp    QWORD PTR [rip+0xcf7a]        # f050 <fgets@GLIBC_2.2.5>
    20d6:	68 0a 00 00 00       	push   0xa
    20db:	e9 40 ff ff ff       	jmp    2020 <_init+0x20>

00000000000020e0 <calloc@plt>:
    20e0:	ff 25 72 cf 00 00    	jmp    QWORD PTR [rip+0xcf72]        # f058 <calloc@GLIBC_2.2.5>
    20e6:	68 0b 00 00 00       	push   0xb
    20eb:	e9 30 ff ff ff       	jmp    2020 <_init+0x20>

00000000000020f0 <strcmp@plt>:
    20f0:	ff 25 6a cf 00 00    	jmp    QWORD PTR [rip+0xcf6a]        # f060 <strcmp@GLIBC_2.2.5>
    20f6:	68 0c 00 00 00       	push   0xc
    20fb:	e9 20 ff ff ff       	jmp    2020 <_init+0x20>

0000000000002100 <fprintf@plt>:
    2100:	ff 25 62 cf 00 00    	jmp    QWORD PTR [rip+0xcf62]        # f068 <fprintf@GLIBC_2.2.5>
    2106:	68 0d 00 00 00       	push   0xd
    210b:	e9 10 ff ff ff       	jmp    2020 <_init+0x20>

0000000000002110 <memcpy@plt>:
    2110:	ff 25 5a cf 00 00    	jmp    QWORD PTR [rip+0xcf5a]        # f070 <memcpy@GLIBC_2.14>
    2116:	68 0e 00 00 00       	push   0xe
    211b:	e9 00 ff ff ff       	jmp    2020 <_init+0x20>

0000000000002120 <strncasecmp@plt>:
    2120:	ff 25 52 cf 00 00    	jmp    QWORD PTR [rip+0xcf52]        # f078 <strncasecmp@GLIBC_2.2.5>
    2126:	68 0f 00 00 00       	push   0xf
    212b:	e9 f0 fe ff ff       	jmp    2020 <_init+0x20>

0000000000002130 <fflush@plt>:
    2130:	ff 25 4a cf 00 00    	jmp    QWORD PTR [rip+0xcf4a]        # f080 <fflush@GLIBC_2.2.5>
    2136:	68 10 00 00 00       	push   0x10
    213b:	e9 e0 fe ff ff       	jmp    2020 <_init+0x20>

0000000000002140 <fopen@plt>:
    2140:	ff 25 42 cf 00 00    	jmp    QWORD PTR [rip+0xcf42]        # f088 <fopen@GLIBC_2.2.5>
    2146:	68 11 00 00 00       	push   0x11
    214b:	e9 d0 fe ff ff       	jmp    2020 <_init+0x20>

0000000000002150 <atoi@plt>:
    2150:	ff 25 3a cf 00 00    	jmp    QWORD PTR [rip+0xcf3a]        # f090 <atoi@GLIBC_2.2.5>
    2156:	68 12 00 00 00       	push   0x12
    215b:	e9 c0 fe ff ff       	jmp    2020 <_init+0x20>

0000000000002160 <exit@plt>:
    2160:	ff 25 32 cf 00 00    	jmp    QWORD PTR [rip+0xcf32]        # f098 <exit@GLIBC_2.2.5>
    2166:	68 13 00 00 00       	push   0x13
    216b:	e9 b0 fe ff ff       	jmp    2020 <_init+0x20>

0000000000002170 <fwrite@plt>:
    2170:	ff 25 2a cf 00 00    	jmp    QWORD PTR [rip+0xcf2a]        # f0a0 <fwrite@GLIBC_2.2.5>
    2176:	68 14 00 00 00       	push   0x14
    217b:	e9 a0 fe ff ff       	jmp    2020 <_init+0x20>

0000000000002180 <strdup@plt>:
    2180:	ff 25 22 cf 00 00    	jmp    QWORD PTR [rip+0xcf22]        # f0a8 <strdup@GLIBC_2.2.5>
    2186:	68 15 00 00 00       	push   0x15
    218b:	e9 90 fe ff ff       	jmp    2020 <_init+0x20>

0000000000002190 <__ctype_b_loc@plt>:
    2190:	ff 25 1a cf 00 00    	jmp    QWORD PTR [rip+0xcf1a]        # f0b0 <__ctype_b_loc@GLIBC_2.3>
    2196:	68 16 00 00 00       	push   0x16
    219b:	e9 80 fe ff ff       	jmp    2020 <_init+0x20>

Disassembly of section .plt.got:

00000000000021a0 <__cxa_finalize@plt>:
    21a0:	ff 25 3a ce 00 00    	jmp    QWORD PTR [rip+0xce3a]        # efe0 <__cxa_finalize@GLIBC_2.2.5>
    21a6:	66 90                	xchg   ax,ax

Disassembly of section .text:

00000000000021b0 <_start>:
_start():
    21b0:	31 ed                	xor    ebp,ebp
    21b2:	49 89 d1             	mov    r9,rdx
    21b5:	5e                   	pop    rsi
    21b6:	48 89 e2             	mov    rdx,rsp
    21b9:	48 83 e4 f0          	and    rsp,0xfffffffffffffff0
    21bd:	50                   	push   rax
    21be:	54                   	push   rsp
    21bf:	45 31 c0             	xor    r8d,r8d
    21c2:	31 c9                	xor    ecx,ecx
    21c4:	48 8d 3d 80 9c 00 00 	lea    rdi,[rip+0x9c80]        # be4b <main>
    21cb:	ff 15 ef cd 00 00    	call   QWORD PTR [rip+0xcdef]        # efc0 <__libc_start_main@GLIBC_2.34>
    21d1:	f4                   	hlt
    21d2:	66 2e 0f 1f 84 00 00 	cs nop WORD PTR [rax+rax*1+0x0]
    21d9:	00 00 00 
    21dc:	0f 1f 40 00          	nop    DWORD PTR [rax+0x0]

00000000000021e0 <deregister_tm_clones>:
deregister_tm_clones():
    21e0:	48 8d 3d 41 d4 00 00 	lea    rdi,[rip+0xd441]        # f628 <__TMC_END__>
    21e7:	48 8d 05 3a d4 00 00 	lea    rax,[rip+0xd43a]        # f628 <__TMC_END__>
    21ee:	48 39 f8             	cmp    rax,rdi
    21f1:	74 15                	je     2208 <deregister_tm_clones+0x28>
    21f3:	48 8b 05 ce cd 00 00 	mov    rax,QWORD PTR [rip+0xcdce]        # efc8 <_ITM_deregisterTMCloneTable@Base>
    21fa:	48 85 c0             	test   rax,rax
    21fd:	74 09                	je     2208 <deregister_tm_clones+0x28>
    21ff:	ff e0                	jmp    rax
    2201:	0f 1f 80 00 00 00 00 	nop    DWORD PTR [rax+0x0]
    2208:	c3                   	ret
    2209:	0f 1f 80 00 00 00 00 	nop    DWORD PTR [rax+0x0]

0000000000002210 <register_tm_clones>:
register_tm_clones():
    2210:	48 8d 3d 11 d4 00 00 	lea    rdi,[rip+0xd411]        # f628 <__TMC_END__>
    2217:	48 8d 35 0a d4 00 00 	lea    rsi,[rip+0xd40a]        # f628 <__TMC_END__>
    221e:	48 29 fe             	sub    rsi,rdi
    2221:	48 89 f0             	mov    rax,rsi
    2224:	48 c1 ee 3f          	shr    rsi,0x3f
    2228:	48 c1 f8 03          	sar    rax,0x3
    222c:	48 01 c6             	add    rsi,rax
    222f:	48 d1 fe             	sar    rsi,1
    2232:	74 14                	je     2248 <register_tm_clones+0x38>
    2234:	48 8b 05 9d cd 00 00 	mov    rax,QWORD PTR [rip+0xcd9d]        # efd8 <_ITM_registerTMCloneTable@Base>
    223b:	48 85 c0             	test   rax,rax
    223e:	74 08                	je     2248 <register_tm_clones+0x38>
    2240:	ff e0                	jmp    rax
    2242:	66 0f 1f 44 00 00    	nop    WORD PTR [rax+rax*1+0x0]
    2248:	c3                   	ret
    2249:	0f 1f 80 00 00 00 00 	nop    DWORD PTR [rax+0x0]

0000000000002250 <__do_global_dtors_aux>:
__do_global_dtors_aux():
    2250:	f3 0f 1e fa          	endbr64
    2254:	80 3d 0d d4 00 00 00 	cmp    BYTE PTR [rip+0xd40d],0x0        # f668 <completed.0>
    225b:	75 2b                	jne    2288 <__do_global_dtors_aux+0x38>
    225d:	55                   	push   rbp
    225e:	48 83 3d 7a cd 00 00 	cmp    QWORD PTR [rip+0xcd7a],0x0        # efe0 <__cxa_finalize@GLIBC_2.2.5>
    2265:	00 
    2266:	48 89 e5             	mov    rbp,rsp
    2269:	74 0c                	je     2277 <__do_global_dtors_aux+0x27>
    226b:	48 8b 3d 56 ce 00 00 	mov    rdi,QWORD PTR [rip+0xce56]        # f0c8 <__dso_handle>
    2272:	e8 29 ff ff ff       	call   21a0 <__cxa_finalize@plt>
    2277:	e8 64 ff ff ff       	call   21e0 <deregister_tm_clones>
    227c:	c6 05 e5 d3 00 00 01 	mov    BYTE PTR [rip+0xd3e5],0x1        # f668 <completed.0>
    2283:	5d                   	pop    rbp
    2284:	c3                   	ret
    2285:	0f 1f 00             	nop    DWORD PTR [rax]
    2288:	c3                   	ret
    2289:	0f 1f 80 00 00 00 00 	nop    DWORD PTR [rax+0x0]

0000000000002290 <frame_dummy>:
frame_dummy():
    2290:	f3 0f 1e fa          	endbr64
    2294:	e9 77 ff ff ff       	jmp    2210 <register_tm_clones>

0000000000002299 <isin>:
isin():
    2299:	55                   	push   rbp
    229a:	48 89 e5             	mov    rbp,rsp
    229d:	48 89 7d e8          	mov    QWORD PTR [rbp-0x18],rdi
    22a1:	89 f0                	mov    eax,esi
    22a3:	88 45 e4             	mov    BYTE PTR [rbp-0x1c],al
    22a6:	c7 45 fc 00 00 00 00 	mov    DWORD PTR [rbp-0x4],0x0
    22ad:	eb 20                	jmp    22cf <isin+0x36>
    22af:	8b 45 fc             	mov    eax,DWORD PTR [rbp-0x4]
    22b2:	48 63 d0             	movsxd rdx,eax
    22b5:	48 8b 45 e8          	mov    rax,QWORD PTR [rbp-0x18]
    22b9:	48 01 d0             	add    rax,rdx
    22bc:	0f b6 00             	movzx  eax,BYTE PTR [rax]
    22bf:	38 45 e4             	cmp    BYTE PTR [rbp-0x1c],al
    22c2:	75 07                	jne    22cb <isin+0x32>
    22c4:	b8 01 00 00 00       	mov    eax,0x1
    22c9:	eb 1d                	jmp    22e8 <isin+0x4f>
    22cb:	83 45 fc 01          	add    DWORD PTR [rbp-0x4],0x1
    22cf:	8b 45 fc             	mov    eax,DWORD PTR [rbp-0x4]
    22d2:	48 63 d0             	movsxd rdx,eax
    22d5:	48 8b 45 e8          	mov    rax,QWORD PTR [rbp-0x18]
    22d9:	48 01 d0             	add    rax,rdx
    22dc:	0f b6 00             	movzx  eax,BYTE PTR [rax]
    22df:	84 c0                	test   al,al
    22e1:	75 cc                	jne    22af <isin+0x16>
    22e3:	b8 00 00 00 00       	mov    eax,0x0
    22e8:	5d                   	pop    rbp
    22e9:	c3                   	ret

00000000000022ea <is2arrin>:
is2arrin():
    22ea:	55                   	push   rbp
    22eb:	48 89 e5             	mov    rbp,rsp
    22ee:	48 83 ec 20          	sub    rsp,0x20
    22f2:	48 89 7d e8          	mov    QWORD PTR [rbp-0x18],rdi
    22f6:	48 89 75 e0          	mov    QWORD PTR [rbp-0x20],rsi
    22fa:	c7 45 fc 00 00 00 00 	mov    DWORD PTR [rbp-0x4],0x0
    2301:	eb 35                	jmp    2338 <is2arrin+0x4e>
    2303:	8b 45 fc             	mov    eax,DWORD PTR [rbp-0x4]
    2306:	48 98                	cdqe
    2308:	48 8d 14 c5 00 00 00 	lea    rdx,[rax*8+0x0]
    230f:	00 
    2310:	48 8b 45 e8          	mov    rax,QWORD PTR [rbp-0x18]
    2314:	48 01 d0             	add    rax,rdx
    2317:	48 8b 00             	mov    rax,QWORD PTR [rax]
    231a:	48 8b 55 e0          	mov    rdx,QWORD PTR [rbp-0x20]
    231e:	48 89 d6             	mov    rsi,rdx
    2321:	48 89 c7             	mov    rdi,rax
    2324:	e8 27 fd ff ff       	call   2050 <strcasecmp@plt>
    2329:	85 c0                	test   eax,eax
    232b:	75 07                	jne    2334 <is2arrin+0x4a>
    232d:	b8 01 00 00 00       	mov    eax,0x1
    2332:	eb 25                	jmp    2359 <is2arrin+0x6f>
    2334:	83 45 fc 01          	add    DWORD PTR [rbp-0x4],0x1
    2338:	8b 45 fc             	mov    eax,DWORD PTR [rbp-0x4]
    233b:	48 98                	cdqe
    233d:	48 8d 14 c5 00 00 00 	lea    rdx,[rax*8+0x0]
    2344:	00 
    2345:	48 8b 45 e8          	mov    rax,QWORD PTR [rbp-0x18]
    2349:	48 01 d0             	add    rax,rdx
    234c:	48 8b 00             	mov    rax,QWORD PTR [rax]
    234f:	48 85 c0             	test   rax,rax
    2352:	75 af                	jne    2303 <is2arrin+0x19>
    2354:	b8 00 00 00 00       	mov    eax,0x0
    2359:	c9                   	leave
    235a:	c3                   	ret

000000000000235b <parse_number>:
parse_number():
    235b:	55                   	push   rbp
    235c:	48 89 e5             	mov    rbp,rsp
    235f:	48 83 ec 10          	sub    rsp,0x10
    2363:	eb 12                	jmp    2377 <parse_number+0x1c>
    2365:	48 8b 05 3c 33 01 00 	mov    rax,QWORD PTR [rip+0x1333c]        # 156a8 <p>
    236c:	48 83 c0 01          	add    rax,0x1
    2370:	48 89 05 31 33 01 00 	mov    QWORD PTR [rip+0x13331],rax        # 156a8 <p>
    2377:	e8 14 fe ff ff       	call   2190 <__ctype_b_loc@plt>
    237c:	48 8b 10             	mov    rdx,QWORD PTR [rax]
    237f:	48 8b 05 22 33 01 00 	mov    rax,QWORD PTR [rip+0x13322]        # 156a8 <p>
    2386:	0f b6 00             	movzx  eax,BYTE PTR [rax]
    2389:	48 0f be c0          	movsx  rax,al
    238d:	48 01 c0             	add    rax,rax
    2390:	48 01 d0             	add    rax,rdx
    2393:	0f b7 00             	movzx  eax,WORD PTR [rax]
    2396:	0f b7 c0             	movzx  eax,ax
    2399:	25 00 20 00 00       	and    eax,0x2000
    239e:	85 c0                	test   eax,eax
    23a0:	75 c3                	jne    2365 <parse_number+0xa>
    23a2:	48 8b 05 ff 32 01 00 	mov    rax,QWORD PTR [rip+0x132ff]        # 156a8 <p>
    23a9:	0f b6 00             	movzx  eax,BYTE PTR [rax]
    23ac:	3c 2d                	cmp    al,0x2d
    23ae:	75 1f                	jne    23cf <parse_number+0x74>
    23b0:	48 8b 05 f1 32 01 00 	mov    rax,QWORD PTR [rip+0x132f1]        # 156a8 <p>
    23b7:	48 83 c0 01          	add    rax,0x1
    23bb:	48 89 05 e6 32 01 00 	mov    QWORD PTR [rip+0x132e6],rax        # 156a8 <p>
    23c2:	e8 94 ff ff ff       	call   235b <parse_number>
    23c7:	48 f7 d8             	neg    rax
    23ca:	e9 a6 03 00 00       	jmp    2775 <parse_number+0x41a>
    23cf:	48 8b 05 d2 32 01 00 	mov    rax,QWORD PTR [rip+0x132d2]        # 156a8 <p>
    23d6:	0f b6 00             	movzx  eax,BYTE PTR [rax]
    23d9:	3c 28                	cmp    al,0x28
    23db:	75 44                	jne    2421 <parse_number+0xc6>
    23dd:	48 8b 05 c4 32 01 00 	mov    rax,QWORD PTR [rip+0x132c4]        # 156a8 <p>
    23e4:	48 83 c0 01          	add    rax,0x1
    23e8:	48 89 05 b9 32 01 00 	mov    QWORD PTR [rip+0x132b9],rax        # 156a8 <p>
    23ef:	e8 47 04 00 00       	call   283b <parse_expr>
    23f4:	48 89 45 f0          	mov    QWORD PTR [rbp-0x10],rax
    23f8:	48 8b 05 a9 32 01 00 	mov    rax,QWORD PTR [rip+0x132a9]        # 156a8 <p>
    23ff:	0f b6 00             	movzx  eax,BYTE PTR [rax]
    2402:	3c 29                	cmp    al,0x29
    2404:	75 12                	jne    2418 <parse_number+0xbd>
    2406:	48 8b 05 9b 32 01 00 	mov    rax,QWORD PTR [rip+0x1329b]        # 156a8 <p>
    240d:	48 83 c0 01          	add    rax,0x1
    2411:	48 89 05 90 32 01 00 	mov    QWORD PTR [rip+0x13290],rax        # 156a8 <p>
    2418:	48 8b 45 f0          	mov    rax,QWORD PTR [rbp-0x10]
    241c:	e9 54 03 00 00       	jmp    2775 <parse_number+0x41a>
    2421:	48 c7 45 f8 00 00 00 	mov    QWORD PTR [rbp-0x8],0x0
    2428:	00 
    2429:	48 8b 05 78 32 01 00 	mov    rax,QWORD PTR [rip+0x13278]        # 156a8 <p>
    2430:	0f b6 00             	movzx  eax,BYTE PTR [rax]
    2433:	3c 30                	cmp    al,0x30
    2435:	0f 85 50 01 00 00    	jne    258b <parse_number+0x230>
    243b:	48 8b 05 66 32 01 00 	mov    rax,QWORD PTR [rip+0x13266]        # 156a8 <p>
    2442:	48 83 c0 01          	add    rax,0x1
    2446:	0f b6 00             	movzx  eax,BYTE PTR [rax]
    2449:	3c 78                	cmp    al,0x78
    244b:	74 16                	je     2463 <parse_number+0x108>
    244d:	48 8b 05 54 32 01 00 	mov    rax,QWORD PTR [rip+0x13254]        # 156a8 <p>
    2454:	48 83 c0 01          	add    rax,0x1
    2458:	0f b6 00             	movzx  eax,BYTE PTR [rax]
    245b:	3c 58                	cmp    al,0x58
    245d:	0f 85 28 01 00 00    	jne    258b <parse_number+0x230>
    2463:	48 8b 05 3e 32 01 00 	mov    rax,QWORD PTR [rip+0x1323e]        # 156a8 <p>
    246a:	48 83 c0 02          	add    rax,0x2
    246e:	48 89 05 33 32 01 00 	mov    QWORD PTR [rip+0x13233],rax        # 156a8 <p>
    2475:	e9 d9 00 00 00       	jmp    2553 <parse_number+0x1f8>
    247a:	48 8b 05 27 32 01 00 	mov    rax,QWORD PTR [rip+0x13227]        # 156a8 <p>
    2481:	0f b6 00             	movzx  eax,BYTE PTR [rax]
    2484:	3c 2f                	cmp    al,0x2f
    2486:	7e 37                	jle    24bf <parse_number+0x164>
    2488:	48 8b 05 19 32 01 00 	mov    rax,QWORD PTR [rip+0x13219]        # 156a8 <p>
    248f:	0f b6 00             	movzx  eax,BYTE PTR [rax]
    2492:	3c 39                	cmp    al,0x39
    2494:	7f 29                	jg     24bf <parse_number+0x164>
    2496:	48 8b 45 f8          	mov    rax,QWORD PTR [rbp-0x8]
    249a:	48 c1 e0 04          	shl    rax,0x4
    249e:	48 89 c2             	mov    rdx,rax
    24a1:	48 8b 05 00 32 01 00 	mov    rax,QWORD PTR [rip+0x13200]        # 156a8 <p>
    24a8:	0f b6 00             	movzx  eax,BYTE PTR [rax]
    24ab:	0f be c0             	movsx  eax,al
    24ae:	83 e8 30             	sub    eax,0x30
    24b1:	48 98                	cdqe
    24b3:	48 01 d0             	add    rax,rdx
    24b6:	48 89 45 f8          	mov    QWORD PTR [rbp-0x8],rax
    24ba:	e9 82 00 00 00       	jmp    2541 <parse_number+0x1e6>
    24bf:	48 8b 05 e2 31 01 00 	mov    rax,QWORD PTR [rip+0x131e2]        # 156a8 <p>
    24c6:	0f b6 00             	movzx  eax,BYTE PTR [rax]
    24c9:	3c 60                	cmp    al,0x60
    24cb:	7e 34                	jle    2501 <parse_number+0x1a6>
    24cd:	48 8b 05 d4 31 01 00 	mov    rax,QWORD PTR [rip+0x131d4]        # 156a8 <p>
    24d4:	0f b6 00             	movzx  eax,BYTE PTR [rax]
    24d7:	3c 66                	cmp    al,0x66
    24d9:	7f 26                	jg     2501 <parse_number+0x1a6>
    24db:	48 8b 45 f8          	mov    rax,QWORD PTR [rbp-0x8]
    24df:	48 c1 e0 04          	shl    rax,0x4
    24e3:	48 89 c2             	mov    rdx,rax
    24e6:	48 8b 05 bb 31 01 00 	mov    rax,QWORD PTR [rip+0x131bb]        # 156a8 <p>
    24ed:	0f b6 00             	movzx  eax,BYTE PTR [rax]
    24f0:	0f be c0             	movsx  eax,al
    24f3:	83 e8 57             	sub    eax,0x57
    24f6:	48 98                	cdqe
    24f8:	48 01 d0             	add    rax,rdx
    24fb:	48 89 45 f8          	mov    QWORD PTR [rbp-0x8],rax
    24ff:	eb 40                	jmp    2541 <parse_number+0x1e6>
    2501:	48 8b 05 a0 31 01 00 	mov    rax,QWORD PTR [rip+0x131a0]        # 156a8 <p>
    2508:	0f b6 00             	movzx  eax,BYTE PTR [rax]
    250b:	3c 40                	cmp    al,0x40
    250d:	7e 32                	jle    2541 <parse_number+0x1e6>
    250f:	48 8b 05 92 31 01 00 	mov    rax,QWORD PTR [rip+0x13192]        # 156a8 <p>
    2516:	0f b6 00             	movzx  eax,BYTE PTR [rax]
    2519:	3c 46                	cmp    al,0x46
    251b:	7f 24                	jg     2541 <parse_number+0x1e6>
    251d:	48 8b 45 f8          	mov    rax,QWORD PTR [rbp-0x8]
    2521:	48 c1 e0 04          	shl    rax,0x4
    2525:	48 89 c2             	mov    rdx,rax
    2528:	48 8b 05 79 31 01 00 	mov    rax,QWORD PTR [rip+0x13179]        # 156a8 <p>
    252f:	0f b6 00             	movzx  eax,BYTE PTR [rax]
    2532:	0f be c0             	movsx  eax,al
    2535:	83 e8 37             	sub    eax,0x37
    2538:	48 98                	cdqe
    253a:	48 01 d0             	add    rax,rdx
    253d:	48 89 45 f8          	mov    QWORD PTR [rbp-0x8],rax
    2541:	48 8b 05 60 31 01 00 	mov    rax,QWORD PTR [rip+0x13160]        # 156a8 <p>
    2548:	48 83 c0 01          	add    rax,0x1
    254c:	48 89 05 55 31 01 00 	mov    QWORD PTR [rip+0x13155],rax        # 156a8 <p>
    2553:	e8 38 fc ff ff       	call   2190 <__ctype_b_loc@plt>
    2558:	48 8b 10             	mov    rdx,QWORD PTR [rax]
    255b:	48 8b 05 46 31 01 00 	mov    rax,QWORD PTR [rip+0x13146]        # 156a8 <p>
    2562:	0f b6 00             	movzx  eax,BYTE PTR [rax]
    2565:	48 0f be c0          	movsx  rax,al
    2569:	48 01 c0             	add    rax,rax
    256c:	48 01 d0             	add    rax,rdx
    256f:	0f b7 00             	movzx  eax,WORD PTR [rax]
    2572:	0f b7 c0             	movzx  eax,ax
    2575:	25 00 10 00 00       	and    eax,0x1000
    257a:	85 c0                	test   eax,eax
    257c:	0f 85 f8 fe ff ff    	jne    247a <parse_number+0x11f>
    2582:	48 8b 45 f8          	mov    rax,QWORD PTR [rbp-0x8]
    2586:	e9 ea 01 00 00       	jmp    2775 <parse_number+0x41a>
    258b:	48 8b 05 16 31 01 00 	mov    rax,QWORD PTR [rip+0x13116]        # 156a8 <p>
    2592:	0f b6 00             	movzx  eax,BYTE PTR [rax]
    2595:	3c 30                	cmp    al,0x30
    2597:	0f 85 90 00 00 00    	jne    262d <parse_number+0x2d2>
    259d:	48 8b 05 04 31 01 00 	mov    rax,QWORD PTR [rip+0x13104]        # 156a8 <p>
    25a4:	48 83 c0 01          	add    rax,0x1
    25a8:	0f b6 00             	movzx  eax,BYTE PTR [rax]
    25ab:	3c 62                	cmp    al,0x62
    25ad:	74 12                	je     25c1 <parse_number+0x266>
    25af:	48 8b 05 f2 30 01 00 	mov    rax,QWORD PTR [rip+0x130f2]        # 156a8 <p>
    25b6:	48 83 c0 01          	add    rax,0x1
    25ba:	0f b6 00             	movzx  eax,BYTE PTR [rax]
    25bd:	3c 42                	cmp    al,0x42
    25bf:	75 6c                	jne    262d <parse_number+0x2d2>
    25c1:	48 8b 05 e0 30 01 00 	mov    rax,QWORD PTR [rip+0x130e0]        # 156a8 <p>
    25c8:	48 83 c0 02          	add    rax,0x2
    25cc:	48 89 05 d5 30 01 00 	mov    QWORD PTR [rip+0x130d5],rax        # 156a8 <p>
    25d3:	eb 33                	jmp    2608 <parse_number+0x2ad>
    25d5:	48 8b 45 f8          	mov    rax,QWORD PTR [rbp-0x8]
    25d9:	48 8d 14 00          	lea    rdx,[rax+rax*1]
    25dd:	48 8b 05 c4 30 01 00 	mov    rax,QWORD PTR [rip+0x130c4]        # 156a8 <p>
    25e4:	0f b6 00             	movzx  eax,BYTE PTR [rax]
    25e7:	0f be c0             	movsx  eax,al
    25ea:	83 e8 30             	sub    eax,0x30
    25ed:	48 98                	cdqe
    25ef:	48 01 d0             	add    rax,rdx
    25f2:	48 89 45 f8          	mov    QWORD PTR [rbp-0x8],rax
    25f6:	48 8b 05 ab 30 01 00 	mov    rax,QWORD PTR [rip+0x130ab]        # 156a8 <p>
    25fd:	48 83 c0 01          	add    rax,0x1
    2601:	48 89 05 a0 30 01 00 	mov    QWORD PTR [rip+0x130a0],rax        # 156a8 <p>
    2608:	48 8b 05 99 30 01 00 	mov    rax,QWORD PTR [rip+0x13099]        # 156a8 <p>
    260f:	0f b6 00             	movzx  eax,BYTE PTR [rax]
    2612:	3c 30                	cmp    al,0x30
    2614:	74 bf                	je     25d5 <parse_number+0x27a>
    2616:	48 8b 05 8b 30 01 00 	mov    rax,QWORD PTR [rip+0x1308b]        # 156a8 <p>
    261d:	0f b6 00             	movzx  eax,BYTE PTR [rax]
    2620:	3c 31                	cmp    al,0x31
    2622:	74 b1                	je     25d5 <parse_number+0x27a>
    2624:	48 8b 45 f8          	mov    rax,QWORD PTR [rbp-0x8]
    2628:	e9 48 01 00 00       	jmp    2775 <parse_number+0x41a>
    262d:	48 8b 05 74 30 01 00 	mov    rax,QWORD PTR [rip+0x13074]        # 156a8 <p>
    2634:	0f b6 00             	movzx  eax,BYTE PTR [rax]
    2637:	3c 30                	cmp    al,0x30
    2639:	0f 85 94 00 00 00    	jne    26d3 <parse_number+0x378>
    263f:	48 8b 05 62 30 01 00 	mov    rax,QWORD PTR [rip+0x13062]        # 156a8 <p>
    2646:	48 83 c0 01          	add    rax,0x1
    264a:	0f b6 00             	movzx  eax,BYTE PTR [rax]
    264d:	3c 6f                	cmp    al,0x6f
    264f:	74 12                	je     2663 <parse_number+0x308>
    2651:	48 8b 05 50 30 01 00 	mov    rax,QWORD PTR [rip+0x13050]        # 156a8 <p>
    2658:	48 83 c0 01          	add    rax,0x1
    265c:	0f b6 00             	movzx  eax,BYTE PTR [rax]
    265f:	3c 4f                	cmp    al,0x4f
    2661:	75 70                	jne    26d3 <parse_number+0x378>
    2663:	48 8b 05 3e 30 01 00 	mov    rax,QWORD PTR [rip+0x1303e]        # 156a8 <p>
    266a:	48 83 c0 02          	add    rax,0x2
    266e:	48 89 05 33 30 01 00 	mov    QWORD PTR [rip+0x13033],rax        # 156a8 <p>
    2675:	eb 37                	jmp    26ae <parse_number+0x353>
    2677:	48 8b 45 f8          	mov    rax,QWORD PTR [rbp-0x8]
    267b:	48 8d 14 c5 00 00 00 	lea    rdx,[rax*8+0x0]
    2682:	00 
    2683:	48 8b 05 1e 30 01 00 	mov    rax,QWORD PTR [rip+0x1301e]        # 156a8 <p>
    268a:	0f b6 00             	movzx  eax,BYTE PTR [rax]
    268d:	0f be c0             	movsx  eax,al
    2690:	83 e8 30             	sub    eax,0x30
    2693:	48 98                	cdqe
    2695:	48 01 d0             	add    rax,rdx
    2698:	48 89 45 f8          	mov    QWORD PTR [rbp-0x8],rax
    269c:	48 8b 05 05 30 01 00 	mov    rax,QWORD PTR [rip+0x13005]        # 156a8 <p>
    26a3:	48 83 c0 01          	add    rax,0x1
    26a7:	48 89 05 fa 2f 01 00 	mov    QWORD PTR [rip+0x12ffa],rax        # 156a8 <p>
    26ae:	48 8b 05 f3 2f 01 00 	mov    rax,QWORD PTR [rip+0x12ff3]        # 156a8 <p>
    26b5:	0f b6 00             	movzx  eax,BYTE PTR [rax]
    26b8:	3c 2f                	cmp    al,0x2f
    26ba:	7e 0e                	jle    26ca <parse_number+0x36f>
    26bc:	48 8b 05 e5 2f 01 00 	mov    rax,QWORD PTR [rip+0x12fe5]        # 156a8 <p>
    26c3:	0f b6 00             	movzx  eax,BYTE PTR [rax]
    26c6:	3c 37                	cmp    al,0x37
    26c8:	7e ad                	jle    2677 <parse_number+0x31c>
    26ca:	48 8b 45 f8          	mov    rax,QWORD PTR [rbp-0x8]
    26ce:	e9 a2 00 00 00       	jmp    2775 <parse_number+0x41a>
    26d3:	e8 b8 fa ff ff       	call   2190 <__ctype_b_loc@plt>
    26d8:	48 8b 10             	mov    rdx,QWORD PTR [rax]
    26db:	48 8b 05 c6 2f 01 00 	mov    rax,QWORD PTR [rip+0x12fc6]        # 156a8 <p>
    26e2:	0f b6 00             	movzx  eax,BYTE PTR [rax]
    26e5:	48 0f be c0          	movsx  rax,al
    26e9:	48 01 c0             	add    rax,rax
    26ec:	48 01 d0             	add    rax,rdx
    26ef:	0f b7 00             	movzx  eax,WORD PTR [rax]
    26f2:	0f b7 c0             	movzx  eax,ax
    26f5:	25 00 08 00 00       	and    eax,0x800
    26fa:	85 c0                	test   eax,eax
    26fc:	74 72                	je     2770 <parse_number+0x415>
    26fe:	eb 3f                	jmp    273f <parse_number+0x3e4>
    2700:	48 8b 55 f8          	mov    rdx,QWORD PTR [rbp-0x8]
    2704:	48 89 d0             	mov    rax,rdx
    2707:	48 c1 e0 02          	shl    rax,0x2
    270b:	48 01 d0             	add    rax,rdx
    270e:	48 01 c0             	add    rax,rax
    2711:	48 89 c2             	mov    rdx,rax
    2714:	48 8b 05 8d 2f 01 00 	mov    rax,QWORD PTR [rip+0x12f8d]        # 156a8 <p>
    271b:	0f b6 00             	movzx  eax,BYTE PTR [rax]
    271e:	0f be c0             	movsx  eax,al
    2721:	83 e8 30             	sub    eax,0x30
    2724:	48 98                	cdqe
    2726:	48 01 d0             	add    rax,rdx
    2729:	48 89 45 f8          	mov    QWORD PTR [rbp-0x8],rax
    272d:	48 8b 05 74 2f 01 00 	mov    rax,QWORD PTR [rip+0x12f74]        # 156a8 <p>
    2734:	48 83 c0 01          	add    rax,0x1
    2738:	48 89 05 69 2f 01 00 	mov    QWORD PTR [rip+0x12f69],rax        # 156a8 <p>
    273f:	e8 4c fa ff ff       	call   2190 <__ctype_b_loc@plt>
    2744:	48 8b 10             	mov    rdx,QWORD PTR [rax]
    2747:	48 8b 05 5a 2f 01 00 	mov    rax,QWORD PTR [rip+0x12f5a]        # 156a8 <p>
    274e:	0f b6 00             	movzx  eax,BYTE PTR [rax]
    2751:	48 0f be c0          	movsx  rax,al
    2755:	48 01 c0             	add    rax,rax
    2758:	48 01 d0             	add    rax,rdx
    275b:	0f b7 00             	movzx  eax,WORD PTR [rax]
    275e:	0f b7 c0             	movzx  eax,ax
    2761:	25 00 08 00 00       	and    eax,0x800
    2766:	85 c0                	test   eax,eax
    2768:	75 96                	jne    2700 <parse_number+0x3a5>
    276a:	48 8b 45 f8          	mov    rax,QWORD PTR [rbp-0x8]
    276e:	eb 05                	jmp    2775 <parse_number+0x41a>
    2770:	b8 00 00 00 00       	mov    eax,0x0
    2775:	c9                   	leave
    2776:	c3                   	ret

0000000000002777 <parse_term>:
parse_term():
    2777:	55                   	push   rbp
    2778:	48 89 e5             	mov    rbp,rsp
    277b:	48 83 ec 10          	sub    rsp,0x10
    277f:	e8 d7 fb ff ff       	call   235b <parse_number>
    2784:	48 89 45 f8          	mov    QWORD PTR [rbp-0x8],rax
    2788:	eb 12                	jmp    279c <parse_term+0x25>
    278a:	48 8b 05 17 2f 01 00 	mov    rax,QWORD PTR [rip+0x12f17]        # 156a8 <p>
    2791:	48 83 c0 01          	add    rax,0x1
    2795:	48 89 05 0c 2f 01 00 	mov    QWORD PTR [rip+0x12f0c],rax        # 156a8 <p>
    279c:	e8 ef f9 ff ff       	call   2190 <__ctype_b_loc@plt>
    27a1:	48 8b 10             	mov    rdx,QWORD PTR [rax]
    27a4:	48 8b 05 fd 2e 01 00 	mov    rax,QWORD PTR [rip+0x12efd]        # 156a8 <p>
    27ab:	0f b6 00             	movzx  eax,BYTE PTR [rax]
    27ae:	48 0f be c0          	movsx  rax,al
    27b2:	48 01 c0             	add    rax,rax
    27b5:	48 01 d0             	add    rax,rdx
    27b8:	0f b7 00             	movzx  eax,WORD PTR [rax]
    27bb:	0f b7 c0             	movzx  eax,ax
    27be:	25 00 20 00 00       	and    eax,0x2000
    27c3:	85 c0                	test   eax,eax
    27c5:	75 c3                	jne    278a <parse_term+0x13>
    27c7:	48 8b 05 da 2e 01 00 	mov    rax,QWORD PTR [rip+0x12eda]        # 156a8 <p>
    27ce:	0f b6 00             	movzx  eax,BYTE PTR [rax]
    27d1:	3c 2a                	cmp    al,0x2a
    27d3:	75 25                	jne    27fa <parse_term+0x83>
    27d5:	48 8b 05 cc 2e 01 00 	mov    rax,QWORD PTR [rip+0x12ecc]        # 156a8 <p>
    27dc:	48 83 c0 01          	add    rax,0x1
    27e0:	48 89 05 c1 2e 01 00 	mov    QWORD PTR [rip+0x12ec1],rax        # 156a8 <p>
    27e7:	e8 6f fb ff ff       	call   235b <parse_number>
    27ec:	48 8b 55 f8          	mov    rdx,QWORD PTR [rbp-0x8]
    27f0:	48 0f af c2          	imul   rax,rdx
    27f4:	48 89 45 f8          	mov    QWORD PTR [rbp-0x8],rax
    27f8:	eb a2                	jmp    279c <parse_term+0x25>
    27fa:	48 8b 05 a7 2e 01 00 	mov    rax,QWORD PTR [rip+0x12ea7]        # 156a8 <p>
    2801:	0f b6 00             	movzx  eax,BYTE PTR [rax]
    2804:	3c 2f                	cmp    al,0x2f
    2806:	75 2c                	jne    2834 <parse_term+0xbd>
    2808:	48 8b 05 99 2e 01 00 	mov    rax,QWORD PTR [rip+0x12e99]        # 156a8 <p>
    280f:	48 83 c0 01          	add    rax,0x1
    2813:	48 89 05 8e 2e 01 00 	mov    QWORD PTR [rip+0x12e8e],rax        # 156a8 <p>
    281a:	e8 3c fb ff ff       	call   235b <parse_number>
    281f:	48 89 c1             	mov    rcx,rax
    2822:	48 8b 45 f8          	mov    rax,QWORD PTR [rbp-0x8]
    2826:	48 99                	cqo
    2828:	48 f7 f9             	idiv   rcx
    282b:	48 89 45 f8          	mov    QWORD PTR [rbp-0x8],rax
    282f:	e9 68 ff ff ff       	jmp    279c <parse_term+0x25>
    2834:	90                   	nop
    2835:	48 8b 45 f8          	mov    rax,QWORD PTR [rbp-0x8]
    2839:	c9                   	leave
    283a:	c3                   	ret

000000000000283b <parse_expr>:
parse_expr():
    283b:	55                   	push   rbp
    283c:	48 89 e5             	mov    rbp,rsp
    283f:	48 83 ec 10          	sub    rsp,0x10
    2843:	e8 2f ff ff ff       	call   2777 <parse_term>
    2848:	48 89 45 f8          	mov    QWORD PTR [rbp-0x8],rax
    284c:	eb 12                	jmp    2860 <parse_expr+0x25>
    284e:	48 8b 05 53 2e 01 00 	mov    rax,QWORD PTR [rip+0x12e53]        # 156a8 <p>
    2855:	48 83 c0 01          	add    rax,0x1
    2859:	48 89 05 48 2e 01 00 	mov    QWORD PTR [rip+0x12e48],rax        # 156a8 <p>
    2860:	e8 2b f9 ff ff       	call   2190 <__ctype_b_loc@plt>
    2865:	48 8b 10             	mov    rdx,QWORD PTR [rax]
    2868:	48 8b 05 39 2e 01 00 	mov    rax,QWORD PTR [rip+0x12e39]        # 156a8 <p>
    286f:	0f b6 00             	movzx  eax,BYTE PTR [rax]
    2872:	48 0f be c0          	movsx  rax,al
    2876:	48 01 c0             	add    rax,rax
    2879:	48 01 d0             	add    rax,rdx
    287c:	0f b7 00             	movzx  eax,WORD PTR [rax]
    287f:	0f b7 c0             	movzx  eax,ax
    2882:	25 00 20 00 00       	and    eax,0x2000
    2887:	85 c0                	test   eax,eax
    2889:	75 c3                	jne    284e <parse_expr+0x13>
    288b:	48 8b 05 16 2e 01 00 	mov    rax,QWORD PTR [rip+0x12e16]        # 156a8 <p>
    2892:	0f b6 00             	movzx  eax,BYTE PTR [rax]
    2895:	3c 2b                	cmp    al,0x2b
    2897:	75 1d                	jne    28b6 <parse_expr+0x7b>
    2899:	48 8b 05 08 2e 01 00 	mov    rax,QWORD PTR [rip+0x12e08]        # 156a8 <p>
    28a0:	48 83 c0 01          	add    rax,0x1
    28a4:	48 89 05 fd 2d 01 00 	mov    QWORD PTR [rip+0x12dfd],rax        # 156a8 <p>
    28ab:	e8 c7 fe ff ff       	call   2777 <parse_term>
    28b0:	48 01 45 f8          	add    QWORD PTR [rbp-0x8],rax
    28b4:	eb aa                	jmp    2860 <parse_expr+0x25>
    28b6:	48 8b 05 eb 2d 01 00 	mov    rax,QWORD PTR [rip+0x12deb]        # 156a8 <p>
    28bd:	0f b6 00             	movzx  eax,BYTE PTR [rax]
    28c0:	3c 2d                	cmp    al,0x2d
    28c2:	75 20                	jne    28e4 <parse_expr+0xa9>
    28c4:	48 8b 05 dd 2d 01 00 	mov    rax,QWORD PTR [rip+0x12ddd]        # 156a8 <p>
    28cb:	48 83 c0 01          	add    rax,0x1
    28cf:	48 89 05 d2 2d 01 00 	mov    QWORD PTR [rip+0x12dd2],rax        # 156a8 <p>
    28d6:	e8 9c fe ff ff       	call   2777 <parse_term>
    28db:	48 29 45 f8          	sub    QWORD PTR [rbp-0x8],rax
    28df:	e9 7c ff ff ff       	jmp    2860 <parse_expr+0x25>
    28e4:	90                   	nop
    28e5:	48 8b 45 f8          	mov    rax,QWORD PTR [rbp-0x8]
    28e9:	c9                   	leave
    28ea:	c3                   	ret

00000000000028eb <eval_expr>:
eval_expr():
    28eb:	55                   	push   rbp
    28ec:	48 89 e5             	mov    rbp,rsp
    28ef:	48 83 ec 10          	sub    rsp,0x10
    28f3:	48 89 7d f8          	mov    QWORD PTR [rbp-0x8],rdi
    28f7:	48 8b 45 f8          	mov    rax,QWORD PTR [rbp-0x8]
    28fb:	48 89 05 a6 2d 01 00 	mov    QWORD PTR [rip+0x12da6],rax        # 156a8 <p>
    2902:	e8 34 ff ff ff       	call   283b <parse_expr>
    2907:	c9                   	leave
    2908:	c3                   	ret

0000000000002909 <add_token>:
add_token():
    2909:	55                   	push   rbp
    290a:	48 89 e5             	mov    rbp,rsp
    290d:	53                   	push   rbx
    290e:	48 83 ec 18          	sub    rsp,0x18
    2912:	89 7d ec             	mov    DWORD PTR [rbp-0x14],edi
    2915:	48 89 75 e0          	mov    QWORD PTR [rbp-0x20],rsi
    2919:	89 55 e8             	mov    DWORD PTR [rbp-0x18],edx
    291c:	8b 05 7e 2d 01 00    	mov    eax,DWORD PTR [rip+0x12d7e]        # 156a0 <toks_count>
    2922:	3d ff 03 00 00       	cmp    eax,0x3ff
    2927:	7e 2d                	jle    2956 <add_token+0x4d>
    2929:	48 8b 05 30 cd 00 00 	mov    rax,QWORD PTR [rip+0xcd30]        # f660 <stderr@GLIBC_2.2.5>
    2930:	48 89 c1             	mov    rcx,rax
    2933:	ba 34 00 00 00       	mov    edx,0x34
    2938:	be 01 00 00 00       	mov    esi,0x1
    293d:	48 8d 05 1c 99 00 00 	lea    rax,[rip+0x991c]        # c260 <_IO_stdin_used+0x260>
    2944:	48 89 c7             	mov    rdi,rax
    2947:	e8 24 f8 ff ff       	call   2170 <fwrite@plt>
    294c:	bf 01 00 00 00       	mov    edi,0x1
    2951:	e8 0a f8 ff ff       	call   2160 <exit@plt>
    2956:	8b 05 44 2d 01 00    	mov    eax,DWORD PTR [rip+0x12d44]        # 156a0 <toks_count>
    295c:	48 63 d0             	movsxd rdx,eax
    295f:	48 89 d0             	mov    rax,rdx
    2962:	48 01 c0             	add    rax,rax
    2965:	48 01 d0             	add    rax,rdx
    2968:	48 c1 e0 03          	shl    rax,0x3
    296c:	48 89 c1             	mov    rcx,rax
    296f:	48 8d 15 3a cd 00 00 	lea    rdx,[rip+0xcd3a]        # f6b0 <toks+0x10>
    2976:	8b 45 e8             	mov    eax,DWORD PTR [rbp-0x18]
    2979:	89 04 11             	mov    DWORD PTR [rcx+rdx*1],eax
    297c:	8b 05 1e 2d 01 00    	mov    eax,DWORD PTR [rip+0x12d1e]        # 156a0 <toks_count>
    2982:	48 63 d0             	movsxd rdx,eax
    2985:	48 89 d0             	mov    rax,rdx
    2988:	48 01 c0             	add    rax,rax
    298b:	48 01 d0             	add    rax,rdx
    298e:	48 c1 e0 03          	shl    rax,0x3
    2992:	48 89 c1             	mov    rcx,rax
    2995:	48 8d 15 04 cd 00 00 	lea    rdx,[rip+0xcd04]        # f6a0 <toks>
    299c:	8b 45 ec             	mov    eax,DWORD PTR [rbp-0x14]
    299f:	89 04 11             	mov    DWORD PTR [rcx+rdx*1],eax
    29a2:	8b 1d f8 2c 01 00    	mov    ebx,DWORD PTR [rip+0x12cf8]        # 156a0 <toks_count>
    29a8:	48 8b 45 e0          	mov    rax,QWORD PTR [rbp-0x20]
    29ac:	48 89 c7             	mov    rdi,rax
    29af:	e8 cc f7 ff ff       	call   2180 <strdup@plt>
    29b4:	48 89 c1             	mov    rcx,rax
    29b7:	48 63 d3             	movsxd rdx,ebx
    29ba:	48 89 d0             	mov    rax,rdx
    29bd:	48 01 c0             	add    rax,rax
    29c0:	48 01 d0             	add    rax,rdx
    29c3:	48 c1 e0 03          	shl    rax,0x3
    29c7:	48 89 c2             	mov    rdx,rax
    29ca:	48 8d 05 d7 cc 00 00 	lea    rax,[rip+0xccd7]        # f6a8 <toks+0x8>
    29d1:	48 89 0c 02          	mov    QWORD PTR [rdx+rax*1],rcx
    29d5:	8b 05 c5 2c 01 00    	mov    eax,DWORD PTR [rip+0x12cc5]        # 156a0 <toks_count>
    29db:	83 c0 01             	add    eax,0x1
    29de:	89 05 bc 2c 01 00    	mov    DWORD PTR [rip+0x12cbc],eax        # 156a0 <toks_count>
    29e4:	90                   	nop
    29e5:	48 8b 5d f8          	mov    rbx,QWORD PTR [rbp-0x8]
    29e9:	c9                   	leave
    29ea:	c3                   	ret

00000000000029eb <del_all_toks>:
del_all_toks():
    29eb:	55                   	push   rbp
    29ec:	48 89 e5             	mov    rbp,rsp
    29ef:	48 83 ec 10          	sub    rsp,0x10
    29f3:	c7 45 fc ff 03 00 00 	mov    DWORD PTR [rbp-0x4],0x3ff
    29fa:	eb 2d                	jmp    2a29 <del_all_toks+0x3e>
    29fc:	8b 45 fc             	mov    eax,DWORD PTR [rbp-0x4]
    29ff:	48 63 d0             	movsxd rdx,eax
    2a02:	48 89 d0             	mov    rax,rdx
    2a05:	48 01 c0             	add    rax,rax
    2a08:	48 01 d0             	add    rax,rdx
    2a0b:	48 c1 e0 03          	shl    rax,0x3
    2a0f:	48 89 c2             	mov    rdx,rax
    2a12:	48 8d 05 8f cc 00 00 	lea    rax,[rip+0xcc8f]        # f6a8 <toks+0x8>
    2a19:	48 8b 04 02          	mov    rax,QWORD PTR [rdx+rax*1]
    2a1d:	48 89 c7             	mov    rdi,rax
    2a20:	e8 0b f6 ff ff       	call   2030 <free@plt>
    2a25:	83 6d fc 01          	sub    DWORD PTR [rbp-0x4],0x1
    2a29:	83 7d fc 00          	cmp    DWORD PTR [rbp-0x4],0x0
    2a2d:	79 cd                	jns    29fc <del_all_toks+0x11>
    2a2f:	90                   	nop
    2a30:	90                   	nop
    2a31:	c9                   	leave
    2a32:	c3                   	ret

0000000000002a33 <is_inst>:
is_inst():
    2a33:	55                   	push   rbp
    2a34:	48 89 e5             	mov    rbp,rsp
    2a37:	48 83 ec 20          	sub    rsp,0x20
    2a3b:	48 89 7d e8          	mov    QWORD PTR [rbp-0x18],rdi
    2a3f:	c7 45 fc 00 00 00 00 	mov    DWORD PTR [rbp-0x4],0x0
    2a46:	eb 36                	jmp    2a7e <is_inst+0x4b>
    2a48:	8b 45 fc             	mov    eax,DWORD PTR [rbp-0x4]
    2a4b:	48 98                	cdqe
    2a4d:	48 8d 14 c5 00 00 00 	lea    rdx,[rax*8+0x0]
    2a54:	00 
    2a55:	48 8d 05 84 c6 00 00 	lea    rax,[rip+0xc684]        # f0e0 <CMDS>
    2a5c:	48 8b 14 02          	mov    rdx,QWORD PTR [rdx+rax*1]
    2a60:	48 8b 45 e8          	mov    rax,QWORD PTR [rbp-0x18]
    2a64:	48 89 d6             	mov    rsi,rdx
    2a67:	48 89 c7             	mov    rdi,rax
    2a6a:	e8 e1 f5 ff ff       	call   2050 <strcasecmp@plt>
    2a6f:	85 c0                	test   eax,eax
    2a71:	75 07                	jne    2a7a <is_inst+0x47>
    2a73:	b8 01 00 00 00       	mov    eax,0x1
    2a78:	eb 26                	jmp    2aa0 <is_inst+0x6d>
    2a7a:	83 45 fc 01          	add    DWORD PTR [rbp-0x4],0x1
    2a7e:	8b 45 fc             	mov    eax,DWORD PTR [rbp-0x4]
    2a81:	48 98                	cdqe
    2a83:	48 8d 14 c5 00 00 00 	lea    rdx,[rax*8+0x0]
    2a8a:	00 
    2a8b:	48 8d 05 4e c6 00 00 	lea    rax,[rip+0xc64e]        # f0e0 <CMDS>
    2a92:	48 8b 04 02          	mov    rax,QWORD PTR [rdx+rax*1]
    2a96:	48 85 c0             	test   rax,rax
    2a99:	75 ad                	jne    2a48 <is_inst+0x15>
    2a9b:	b8 00 00 00 00       	mov    eax,0x0
    2aa0:	c9                   	leave
    2aa1:	c3                   	ret

0000000000002aa2 <DEBUG_PRINT_TOKENS>:
DEBUG_PRINT_TOKENS():
    2aa2:	55                   	push   rbp
    2aa3:	48 89 e5             	mov    rbp,rsp
    2aa6:	48 83 ec 10          	sub    rsp,0x10
    2aaa:	8b 05 f0 2b 01 00    	mov    eax,DWORD PTR [rip+0x12bf0]        # 156a0 <toks_count>
    2ab0:	89 c6                	mov    esi,eax
    2ab2:	48 8d 05 df 97 00 00 	lea    rax,[rip+0x97df]        # c298 <_IO_stdin_used+0x298>
    2ab9:	48 89 c7             	mov    rdi,rax
    2abc:	b8 00 00 00 00       	mov    eax,0x0
    2ac1:	e8 da f5 ff ff       	call   20a0 <printf@plt>
    2ac6:	c7 45 fc 00 00 00 00 	mov    DWORD PTR [rbp-0x4],0x0
    2acd:	e9 6c 02 00 00       	jmp    2d3e <DEBUG_PRINT_TOKENS+0x29c>
    2ad2:	48 8d 05 e0 97 00 00 	lea    rax,[rip+0x97e0]        # c2b9 <_IO_stdin_used+0x2b9>
    2ad9:	48 89 45 f0          	mov    QWORD PTR [rbp-0x10],rax
    2add:	8b 45 fc             	mov    eax,DWORD PTR [rbp-0x4]
    2ae0:	48 63 d0             	movsxd rdx,eax
    2ae3:	48 89 d0             	mov    rax,rdx
    2ae6:	48 01 c0             	add    rax,rax
    2ae9:	48 01 d0             	add    rax,rdx
    2aec:	48 c1 e0 03          	shl    rax,0x3
    2af0:	48 89 c2             	mov    rdx,rax
    2af3:	48 8d 05 a6 cb 00 00 	lea    rax,[rip+0xcba6]        # f6a0 <toks>
    2afa:	8b 04 02             	mov    eax,DWORD PTR [rdx+rax*1]
    2afd:	83 f8 1c             	cmp    eax,0x1c
    2b00:	0f 87 a3 01 00 00    	ja     2ca9 <DEBUG_PRINT_TOKENS+0x207>
    2b06:	89 c0                	mov    eax,eax
    2b08:	48 8d 14 85 00 00 00 	lea    rdx,[rax*4+0x0]
    2b0f:	00 
    2b10:	48 8d 05 b1 98 00 00 	lea    rax,[rip+0x98b1]        # c3c8 <_IO_stdin_used+0x3c8>
    2b17:	8b 04 02             	mov    eax,DWORD PTR [rdx+rax*1]
    2b1a:	48 98                	cdqe
    2b1c:	48 8d 15 a5 98 00 00 	lea    rdx,[rip+0x98a5]        # c3c8 <_IO_stdin_used+0x3c8>
    2b23:	48 01 d0             	add    rax,rdx
    2b26:	ff e0                	jmp    rax
    2b28:	48 8d 05 92 97 00 00 	lea    rax,[rip+0x9792]        # c2c1 <_IO_stdin_used+0x2c1>
    2b2f:	48 89 45 f0          	mov    QWORD PTR [rbp-0x10],rax
    2b33:	e9 71 01 00 00       	jmp    2ca9 <DEBUG_PRINT_TOKENS+0x207>
    2b38:	48 8d 05 88 97 00 00 	lea    rax,[rip+0x9788]        # c2c7 <_IO_stdin_used+0x2c7>
    2b3f:	48 89 45 f0          	mov    QWORD PTR [rbp-0x10],rax
    2b43:	e9 61 01 00 00       	jmp    2ca9 <DEBUG_PRINT_TOKENS+0x207>
    2b48:	48 8d 05 7e 97 00 00 	lea    rax,[rip+0x977e]        # c2cd <_IO_stdin_used+0x2cd>
    2b4f:	48 89 45 f0          	mov    QWORD PTR [rbp-0x10],rax
    2b53:	e9 51 01 00 00       	jmp    2ca9 <DEBUG_PRINT_TOKENS+0x207>
    2b58:	48 8d 05 74 97 00 00 	lea    rax,[rip+0x9774]        # c2d3 <_IO_stdin_used+0x2d3>
    2b5f:	48 89 45 f0          	mov    QWORD PTR [rbp-0x10],rax
    2b63:	e9 41 01 00 00       	jmp    2ca9 <DEBUG_PRINT_TOKENS+0x207>
    2b68:	48 8d 05 6b 97 00 00 	lea    rax,[rip+0x976b]        # c2da <_IO_stdin_used+0x2da>
    2b6f:	48 89 45 f0          	mov    QWORD PTR [rbp-0x10],rax
    2b73:	e9 31 01 00 00       	jmp    2ca9 <DEBUG_PRINT_TOKENS+0x207>
    2b78:	48 8d 05 63 97 00 00 	lea    rax,[rip+0x9763]        # c2e2 <_IO_stdin_used+0x2e2>
    2b7f:	48 89 45 f0          	mov    QWORD PTR [rbp-0x10],rax
    2b83:	e9 21 01 00 00       	jmp    2ca9 <DEBUG_PRINT_TOKENS+0x207>
    2b88:	48 8d 05 5b 97 00 00 	lea    rax,[rip+0x975b]        # c2ea <_IO_stdin_used+0x2ea>
    2b8f:	48 89 45 f0          	mov    QWORD PTR [rbp-0x10],rax
    2b93:	e9 11 01 00 00       	jmp    2ca9 <DEBUG_PRINT_TOKENS+0x207>
    2b98:	48 8d 05 53 97 00 00 	lea    rax,[rip+0x9753]        # c2f2 <_IO_stdin_used+0x2f2>
    2b9f:	48 89 45 f0          	mov    QWORD PTR [rbp-0x10],rax
    2ba3:	e9 01 01 00 00       	jmp    2ca9 <DEBUG_PRINT_TOKENS+0x207>
    2ba8:	48 8d 05 4f 97 00 00 	lea    rax,[rip+0x974f]        # c2fe <_IO_stdin_used+0x2fe>
    2baf:	48 89 45 f0          	mov    QWORD PTR [rbp-0x10],rax
    2bb3:	e9 f1 00 00 00       	jmp    2ca9 <DEBUG_PRINT_TOKENS+0x207>
    2bb8:	48 8d 05 45 97 00 00 	lea    rax,[rip+0x9745]        # c304 <_IO_stdin_used+0x304>
    2bbf:	48 89 45 f0          	mov    QWORD PTR [rbp-0x10],rax
    2bc3:	e9 e1 00 00 00       	jmp    2ca9 <DEBUG_PRINT_TOKENS+0x207>
    2bc8:	48 8d 05 3b 97 00 00 	lea    rax,[rip+0x973b]        # c30a <_IO_stdin_used+0x30a>
    2bcf:	48 89 45 f0          	mov    QWORD PTR [rbp-0x10],rax
    2bd3:	e9 d1 00 00 00       	jmp    2ca9 <DEBUG_PRINT_TOKENS+0x207>
    2bd8:	48 8d 05 31 97 00 00 	lea    rax,[rip+0x9731]        # c310 <_IO_stdin_used+0x310>
    2bdf:	48 89 45 f0          	mov    QWORD PTR [rbp-0x10],rax
    2be3:	e9 c1 00 00 00       	jmp    2ca9 <DEBUG_PRINT_TOKENS+0x207>
    2be8:	48 8d 05 27 97 00 00 	lea    rax,[rip+0x9727]        # c316 <_IO_stdin_used+0x316>
    2bef:	48 89 45 f0          	mov    QWORD PTR [rbp-0x10],rax
    2bf3:	e9 b1 00 00 00       	jmp    2ca9 <DEBUG_PRINT_TOKENS+0x207>
    2bf8:	48 8d 05 1c 97 00 00 	lea    rax,[rip+0x971c]        # c31b <_IO_stdin_used+0x31b>
    2bff:	48 89 45 f0          	mov    QWORD PTR [rbp-0x10],rax
    2c03:	e9 a1 00 00 00       	jmp    2ca9 <DEBUG_PRINT_TOKENS+0x207>
    2c08:	48 8d 05 14 97 00 00 	lea    rax,[rip+0x9714]        # c323 <_IO_stdin_used+0x323>
    2c0f:	48 89 45 f0          	mov    QWORD PTR [rbp-0x10],rax
    2c13:	e9 91 00 00 00       	jmp    2ca9 <DEBUG_PRINT_TOKENS+0x207>
    2c18:	48 8d 05 0a 97 00 00 	lea    rax,[rip+0x970a]        # c329 <_IO_stdin_used+0x329>
    2c1f:	48 89 45 f0          	mov    QWORD PTR [rbp-0x10],rax
    2c23:	e9 81 00 00 00       	jmp    2ca9 <DEBUG_PRINT_TOKENS+0x207>
    2c28:	48 8d 05 03 97 00 00 	lea    rax,[rip+0x9703]        # c332 <_IO_stdin_used+0x332>
    2c2f:	48 89 45 f0          	mov    QWORD PTR [rbp-0x10],rax
    2c33:	eb 74                	jmp    2ca9 <DEBUG_PRINT_TOKENS+0x207>
    2c35:	48 8d 05 fc 96 00 00 	lea    rax,[rip+0x96fc]        # c338 <_IO_stdin_used+0x338>
    2c3c:	48 89 45 f0          	mov    QWORD PTR [rbp-0x10],rax
    2c40:	eb 67                	jmp    2ca9 <DEBUG_PRINT_TOKENS+0x207>
    2c42:	48 8d 05 f8 96 00 00 	lea    rax,[rip+0x96f8]        # c341 <_IO_stdin_used+0x341>
    2c49:	48 89 45 f0          	mov    QWORD PTR [rbp-0x10],rax
    2c4d:	eb 5a                	jmp    2ca9 <DEBUG_PRINT_TOKENS+0x207>
    2c4f:	48 8d 05 f1 96 00 00 	lea    rax,[rip+0x96f1]        # c347 <_IO_stdin_used+0x347>
    2c56:	48 89 45 f0          	mov    QWORD PTR [rbp-0x10],rax
    2c5a:	eb 4d                	jmp    2ca9 <DEBUG_PRINT_TOKENS+0x207>
    2c5c:	48 8d 05 ed 96 00 00 	lea    rax,[rip+0x96ed]        # c350 <_IO_stdin_used+0x350>
    2c63:	48 89 45 f0          	mov    QWORD PTR [rbp-0x10],rax
    2c67:	eb 40                	jmp    2ca9 <DEBUG_PRINT_TOKENS+0x207>
    2c69:	48 8d 05 e7 96 00 00 	lea    rax,[rip+0x96e7]        # c357 <_IO_stdin_used+0x357>
    2c70:	48 89 45 f0          	mov    QWORD PTR [rbp-0x10],rax
    2c74:	eb 33                	jmp    2ca9 <DEBUG_PRINT_TOKENS+0x207>
    2c76:	48 8d 05 e2 96 00 00 	lea    rax,[rip+0x96e2]        # c35f <_IO_stdin_used+0x35f>
    2c7d:	48 89 45 f0          	mov    QWORD PTR [rbp-0x10],rax
    2c81:	eb 26                	jmp    2ca9 <DEBUG_PRINT_TOKENS+0x207>
    2c83:	48 8d 05 dc 96 00 00 	lea    rax,[rip+0x96dc]        # c366 <_IO_stdin_used+0x366>
    2c8a:	48 89 45 f0          	mov    QWORD PTR [rbp-0x10],rax
    2c8e:	eb 19                	jmp    2ca9 <DEBUG_PRINT_TOKENS+0x207>
    2c90:	48 8d 05 d6 96 00 00 	lea    rax,[rip+0x96d6]        # c36d <_IO_stdin_used+0x36d>
    2c97:	48 89 45 f0          	mov    QWORD PTR [rbp-0x10],rax
    2c9b:	eb 0c                	jmp    2ca9 <DEBUG_PRINT_TOKENS+0x207>
    2c9d:	48 8d 05 d0 96 00 00 	lea    rax,[rip+0x96d0]        # c374 <_IO_stdin_used+0x374>
    2ca4:	48 89 45 f0          	mov    QWORD PTR [rbp-0x10],rax
    2ca8:	90                   	nop
    2ca9:	8b 45 fc             	mov    eax,DWORD PTR [rbp-0x4]
    2cac:	48 63 d0             	movsxd rdx,eax
    2caf:	48 89 d0             	mov    rax,rdx
    2cb2:	48 01 c0             	add    rax,rax
    2cb5:	48 01 d0             	add    rax,rdx
    2cb8:	48 c1 e0 03          	shl    rax,0x3
    2cbc:	48 89 c2             	mov    rdx,rax
    2cbf:	48 8d 05 ea c9 00 00 	lea    rax,[rip+0xc9ea]        # f6b0 <toks+0x10>
    2cc6:	8b 0c 02             	mov    ecx,DWORD PTR [rdx+rax*1]
    2cc9:	8b 45 fc             	mov    eax,DWORD PTR [rbp-0x4]
    2ccc:	48 63 d0             	movsxd rdx,eax
    2ccf:	48 89 d0             	mov    rax,rdx
    2cd2:	48 01 c0             	add    rax,rax
    2cd5:	48 01 d0             	add    rax,rdx
    2cd8:	48 c1 e0 03          	shl    rax,0x3
    2cdc:	48 89 c2             	mov    rdx,rax
    2cdf:	48 8d 05 c2 c9 00 00 	lea    rax,[rip+0xc9c2]        # f6a8 <toks+0x8>
    2ce6:	48 8b 04 02          	mov    rax,QWORD PTR [rdx+rax*1]
    2cea:	48 85 c0             	test   rax,rax
    2ced:	74 23                	je     2d12 <DEBUG_PRINT_TOKENS+0x270>
    2cef:	8b 45 fc             	mov    eax,DWORD PTR [rbp-0x4]
    2cf2:	48 63 d0             	movsxd rdx,eax
    2cf5:	48 89 d0             	mov    rax,rdx
    2cf8:	48 01 c0             	add    rax,rax
    2cfb:	48 01 d0             	add    rax,rdx
    2cfe:	48 c1 e0 03          	shl    rax,0x3
    2d02:	48 89 c2             	mov    rdx,rax
    2d05:	48 8d 05 9c c9 00 00 	lea    rax,[rip+0xc99c]        # f6a8 <toks+0x8>
    2d0c:	48 8b 04 02          	mov    rax,QWORD PTR [rdx+rax*1]
    2d10:	eb 07                	jmp    2d19 <DEBUG_PRINT_TOKENS+0x277>
    2d12:	48 8d 05 62 96 00 00 	lea    rax,[rip+0x9662]        # c37b <_IO_stdin_used+0x37b>
    2d19:	48 8b 55 f0          	mov    rdx,QWORD PTR [rbp-0x10]
    2d1d:	8b 75 fc             	mov    esi,DWORD PTR [rbp-0x4]
    2d20:	41 89 c8             	mov    r8d,ecx
    2d23:	48 89 c1             	mov    rcx,rax
    2d26:	48 8d 05 5b 96 00 00 	lea    rax,[rip+0x965b]        # c388 <_IO_stdin_used+0x388>
    2d2d:	48 89 c7             	mov    rdi,rax
    2d30:	b8 00 00 00 00       	mov    eax,0x0
    2d35:	e8 66 f3 ff ff       	call   20a0 <printf@plt>
    2d3a:	83 45 fc 01          	add    DWORD PTR [rbp-0x4],0x1
    2d3e:	8b 05 5c 29 01 00    	mov    eax,DWORD PTR [rip+0x1295c]        # 156a0 <toks_count>
    2d44:	39 45 fc             	cmp    DWORD PTR [rbp-0x4],eax
    2d47:	0f 8c 85 fd ff ff    	jl     2ad2 <DEBUG_PRINT_TOKENS+0x30>
    2d4d:	48 8d 05 5e 96 00 00 	lea    rax,[rip+0x965e]        # c3b2 <_IO_stdin_used+0x3b2>
    2d54:	48 89 c7             	mov    rdi,rax
    2d57:	e8 24 f3 ff ff       	call   2080 <puts@plt>
    2d5c:	90                   	nop
    2d5d:	c9                   	leave
    2d5e:	c3                   	ret

0000000000002d5f <is_reg>:
is_reg():
    2d5f:	55                   	push   rbp
    2d60:	48 89 e5             	mov    rbp,rsp
    2d63:	48 83 ec 30          	sub    rsp,0x30
    2d67:	48 89 7d d8          	mov    QWORD PTR [rbp-0x28],rdi
    2d6b:	eb 05                	jmp    2d72 <is_reg+0x13>
    2d6d:	48 83 45 d8 01       	add    QWORD PTR [rbp-0x28],0x1
    2d72:	e8 19 f4 ff ff       	call   2190 <__ctype_b_loc@plt>
    2d77:	48 8b 10             	mov    rdx,QWORD PTR [rax]
    2d7a:	48 8b 45 d8          	mov    rax,QWORD PTR [rbp-0x28]
    2d7e:	0f b6 00             	movzx  eax,BYTE PTR [rax]
    2d81:	48 0f be c0          	movsx  rax,al
    2d85:	48 01 c0             	add    rax,rax
    2d88:	48 01 d0             	add    rax,rdx
    2d8b:	0f b7 00             	movzx  eax,WORD PTR [rax]
    2d8e:	0f b7 c0             	movzx  eax,ax
    2d91:	25 00 20 00 00       	and    eax,0x2000
    2d96:	85 c0                	test   eax,eax
    2d98:	75 d3                	jne    2d6d <is_reg+0xe>
    2d9a:	c7 45 fc 00 00 00 00 	mov    DWORD PTR [rbp-0x4],0x0
    2da1:	eb 3b                	jmp    2dde <is_reg+0x7f>
    2da3:	8b 45 fc             	mov    eax,DWORD PTR [rbp-0x4]
    2da6:	48 98                	cdqe
    2da8:	48 8d 14 c5 00 00 00 	lea    rdx,[rax*8+0x0]
    2daf:	00 
    2db0:	48 8d 05 89 c5 00 00 	lea    rax,[rip+0xc589]        # f340 <regs8>
    2db7:	48 01 d0             	add    rax,rdx
    2dba:	48 8b 10             	mov    rdx,QWORD PTR [rax]
    2dbd:	48 8b 45 d8          	mov    rax,QWORD PTR [rbp-0x28]
    2dc1:	48 89 d6             	mov    rsi,rdx
    2dc4:	48 89 c7             	mov    rdi,rax
    2dc7:	e8 84 f2 ff ff       	call   2050 <strcasecmp@plt>
    2dcc:	85 c0                	test   eax,eax
    2dce:	75 0a                	jne    2dda <is_reg+0x7b>
    2dd0:	b8 01 00 00 00       	mov    eax,0x1
    2dd5:	e9 a7 01 00 00       	jmp    2f81 <is_reg+0x222>
    2dda:	83 45 fc 01          	add    DWORD PTR [rbp-0x4],0x1
    2dde:	8b 45 fc             	mov    eax,DWORD PTR [rbp-0x4]
    2de1:	48 98                	cdqe
    2de3:	48 8d 14 c5 00 00 00 	lea    rdx,[rax*8+0x0]
    2dea:	00 
    2deb:	48 8d 05 4e c5 00 00 	lea    rax,[rip+0xc54e]        # f340 <regs8>
    2df2:	48 8b 04 02          	mov    rax,QWORD PTR [rdx+rax*1]
    2df6:	48 85 c0             	test   rax,rax
    2df9:	75 a8                	jne    2da3 <is_reg+0x44>
    2dfb:	c7 45 f8 00 00 00 00 	mov    DWORD PTR [rbp-0x8],0x0
    2e02:	eb 3b                	jmp    2e3f <is_reg+0xe0>
    2e04:	8b 45 f8             	mov    eax,DWORD PTR [rbp-0x8]
    2e07:	48 98                	cdqe
    2e09:	48 8d 14 c5 00 00 00 	lea    rdx,[rax*8+0x0]
    2e10:	00 
    2e11:	48 8d 05 e8 c5 00 00 	lea    rax,[rip+0xc5e8]        # f400 <regs16>
    2e18:	48 01 d0             	add    rax,rdx
    2e1b:	48 8b 10             	mov    rdx,QWORD PTR [rax]
    2e1e:	48 8b 45 d8          	mov    rax,QWORD PTR [rbp-0x28]
    2e22:	48 89 d6             	mov    rsi,rdx
    2e25:	48 89 c7             	mov    rdi,rax
    2e28:	e8 23 f2 ff ff       	call   2050 <strcasecmp@plt>
    2e2d:	85 c0                	test   eax,eax
    2e2f:	75 0a                	jne    2e3b <is_reg+0xdc>
    2e31:	b8 02 00 00 00       	mov    eax,0x2
    2e36:	e9 46 01 00 00       	jmp    2f81 <is_reg+0x222>
    2e3b:	83 45 f8 01          	add    DWORD PTR [rbp-0x8],0x1
    2e3f:	8b 45 f8             	mov    eax,DWORD PTR [rbp-0x8]
    2e42:	48 98                	cdqe
    2e44:	48 8d 14 c5 00 00 00 	lea    rdx,[rax*8+0x0]
    2e4b:	00 
    2e4c:	48 8d 05 ad c5 00 00 	lea    rax,[rip+0xc5ad]        # f400 <regs16>
    2e53:	48 8b 04 02          	mov    rax,QWORD PTR [rdx+rax*1]
    2e57:	48 85 c0             	test   rax,rax
    2e5a:	75 a8                	jne    2e04 <is_reg+0xa5>
    2e5c:	c7 45 f4 00 00 00 00 	mov    DWORD PTR [rbp-0xc],0x0
    2e63:	eb 3b                	jmp    2ea0 <is_reg+0x141>
    2e65:	8b 45 f4             	mov    eax,DWORD PTR [rbp-0xc]
    2e68:	48 98                	cdqe
    2e6a:	48 8d 14 c5 00 00 00 	lea    rdx,[rax*8+0x0]
    2e71:	00 
    2e72:	48 8d 05 47 c6 00 00 	lea    rax,[rip+0xc647]        # f4c0 <regs32>
    2e79:	48 01 d0             	add    rax,rdx
    2e7c:	48 8b 10             	mov    rdx,QWORD PTR [rax]
    2e7f:	48 8b 45 d8          	mov    rax,QWORD PTR [rbp-0x28]
    2e83:	48 89 d6             	mov    rsi,rdx
    2e86:	48 89 c7             	mov    rdi,rax
    2e89:	e8 c2 f1 ff ff       	call   2050 <strcasecmp@plt>
    2e8e:	85 c0                	test   eax,eax
    2e90:	75 0a                	jne    2e9c <is_reg+0x13d>
    2e92:	b8 03 00 00 00       	mov    eax,0x3
    2e97:	e9 e5 00 00 00       	jmp    2f81 <is_reg+0x222>
    2e9c:	83 45 f4 01          	add    DWORD PTR [rbp-0xc],0x1
    2ea0:	8b 45 f4             	mov    eax,DWORD PTR [rbp-0xc]
    2ea3:	48 98                	cdqe
    2ea5:	48 8d 14 c5 00 00 00 	lea    rdx,[rax*8+0x0]
    2eac:	00 
    2ead:	48 8d 05 0c c6 00 00 	lea    rax,[rip+0xc60c]        # f4c0 <regs32>
    2eb4:	48 8b 04 02          	mov    rax,QWORD PTR [rdx+rax*1]
    2eb8:	48 85 c0             	test   rax,rax
    2ebb:	75 a8                	jne    2e65 <is_reg+0x106>
    2ebd:	c7 45 f0 00 00 00 00 	mov    DWORD PTR [rbp-0x10],0x0
    2ec4:	eb 3b                	jmp    2f01 <is_reg+0x1a2>
    2ec6:	8b 45 f0             	mov    eax,DWORD PTR [rbp-0x10]
    2ec9:	48 98                	cdqe
    2ecb:	48 8d 14 c5 00 00 00 	lea    rdx,[rax*8+0x0]
    2ed2:	00 
    2ed3:	48 8d 05 a6 c6 00 00 	lea    rax,[rip+0xc6a6]        # f580 <regs64>
    2eda:	48 01 d0             	add    rax,rdx
    2edd:	48 8b 10             	mov    rdx,QWORD PTR [rax]
    2ee0:	48 8b 45 d8          	mov    rax,QWORD PTR [rbp-0x28]
    2ee4:	48 89 d6             	mov    rsi,rdx
    2ee7:	48 89 c7             	mov    rdi,rax
    2eea:	e8 61 f1 ff ff       	call   2050 <strcasecmp@plt>
    2eef:	85 c0                	test   eax,eax
    2ef1:	75 0a                	jne    2efd <is_reg+0x19e>
    2ef3:	b8 04 00 00 00       	mov    eax,0x4
    2ef8:	e9 84 00 00 00       	jmp    2f81 <is_reg+0x222>
    2efd:	83 45 f0 01          	add    DWORD PTR [rbp-0x10],0x1
    2f01:	8b 45 f0             	mov    eax,DWORD PTR [rbp-0x10]
    2f04:	48 98                	cdqe
    2f06:	48 8d 14 c5 00 00 00 	lea    rdx,[rax*8+0x0]
    2f0d:	00 
    2f0e:	48 8d 05 6b c6 00 00 	lea    rax,[rip+0xc66b]        # f580 <regs64>
    2f15:	48 8b 04 02          	mov    rax,QWORD PTR [rdx+rax*1]
    2f19:	48 85 c0             	test   rax,rax
    2f1c:	75 a8                	jne    2ec6 <is_reg+0x167>
    2f1e:	c7 45 ec 00 00 00 00 	mov    DWORD PTR [rbp-0x14],0x0
    2f25:	eb 38                	jmp    2f5f <is_reg+0x200>
    2f27:	8b 45 ec             	mov    eax,DWORD PTR [rbp-0x14]
    2f2a:	48 98                	cdqe
    2f2c:	48 8d 14 c5 00 00 00 	lea    rdx,[rax*8+0x0]
    2f33:	00 
    2f34:	48 8d 05 a5 c6 00 00 	lea    rax,[rip+0xc6a5]        # f5e0 <regs64GP>
    2f3b:	48 01 d0             	add    rax,rdx
    2f3e:	48 8b 10             	mov    rdx,QWORD PTR [rax]
    2f41:	48 8b 45 d8          	mov    rax,QWORD PTR [rbp-0x28]
    2f45:	48 89 d6             	mov    rsi,rdx
    2f48:	48 89 c7             	mov    rdi,rax
    2f4b:	e8 00 f1 ff ff       	call   2050 <strcasecmp@plt>
    2f50:	85 c0                	test   eax,eax
    2f52:	75 07                	jne    2f5b <is_reg+0x1fc>
    2f54:	b8 05 00 00 00       	mov    eax,0x5
    2f59:	eb 26                	jmp    2f81 <is_reg+0x222>
    2f5b:	83 45 ec 01          	add    DWORD PTR [rbp-0x14],0x1
    2f5f:	8b 45 ec             	mov    eax,DWORD PTR [rbp-0x14]
    2f62:	48 98                	cdqe
    2f64:	48 8d 14 c5 00 00 00 	lea    rdx,[rax*8+0x0]
    2f6b:	00 
    2f6c:	48 8d 05 6d c6 00 00 	lea    rax,[rip+0xc66d]        # f5e0 <regs64GP>
    2f73:	48 8b 04 02          	mov    rax,QWORD PTR [rdx+rax*1]
    2f77:	48 85 c0             	test   rax,rax
    2f7a:	75 ab                	jne    2f27 <is_reg+0x1c8>
    2f7c:	b8 00 00 00 00       	mov    eax,0x0
    2f81:	c9                   	leave
    2f82:	c3                   	ret

0000000000002f83 <is_literal>:
is_literal():
    2f83:	55                   	push   rbp
    2f84:	48 89 e5             	mov    rbp,rsp
    2f87:	48 89 7d f8          	mov    QWORD PTR [rbp-0x8],rdi
    2f8b:	48 8b 45 f8          	mov    rax,QWORD PTR [rbp-0x8]
    2f8f:	0f b6 00             	movzx  eax,BYTE PTR [rax]
    2f92:	3c 2f                	cmp    al,0x2f
    2f94:	7e 0b                	jle    2fa1 <is_literal+0x1e>
    2f96:	48 8b 45 f8          	mov    rax,QWORD PTR [rbp-0x8]
    2f9a:	0f b6 00             	movzx  eax,BYTE PTR [rax]
    2f9d:	3c 39                	cmp    al,0x39
    2f9f:	7e 0b                	jle    2fac <is_literal+0x29>
    2fa1:	48 8b 45 f8          	mov    rax,QWORD PTR [rbp-0x8]
    2fa5:	0f b6 00             	movzx  eax,BYTE PTR [rax]
    2fa8:	3c 2d                	cmp    al,0x2d
    2faa:	75 07                	jne    2fb3 <is_literal+0x30>
    2fac:	b8 01 00 00 00       	mov    eax,0x1
    2fb1:	eb 05                	jmp    2fb8 <is_literal+0x35>
    2fb3:	b8 00 00 00 00       	mov    eax,0x0
    2fb8:	5d                   	pop    rbp
    2fb9:	c3                   	ret

0000000000002fba <read_string>:
read_string():
    2fba:	55                   	push   rbp
    2fbb:	48 89 e5             	mov    rbp,rsp
    2fbe:	48 83 ec 20          	sub    rsp,0x20
    2fc2:	48 89 7d f8          	mov    QWORD PTR [rbp-0x8],rdi
    2fc6:	48 89 75 f0          	mov    QWORD PTR [rbp-0x10],rsi
    2fca:	89 55 ec             	mov    DWORD PTR [rbp-0x14],edx
    2fcd:	e9 6c 01 00 00       	jmp    313e <read_string+0x184>
    2fd2:	48 8b 45 f8          	mov    rax,QWORD PTR [rbp-0x8]
    2fd6:	0f b6 00             	movzx  eax,BYTE PTR [rax]
    2fd9:	3c 5c                	cmp    al,0x5c
    2fdb:	0f 85 40 01 00 00    	jne    3121 <read_string+0x167>
    2fe1:	48 8b 45 f8          	mov    rax,QWORD PTR [rbp-0x8]
    2fe5:	48 83 c0 01          	add    rax,0x1
    2fe9:	0f b6 00             	movzx  eax,BYTE PTR [rax]
    2fec:	0f be c0             	movsx  eax,al
    2fef:	83 f8 74             	cmp    eax,0x74
    2ff2:	0f 84 a7 00 00 00    	je     309f <read_string+0xe5>
    2ff8:	83 f8 74             	cmp    eax,0x74
    2ffb:	0f 8f f5 00 00 00    	jg     30f6 <read_string+0x13c>
    3001:	83 f8 6e             	cmp    eax,0x6e
    3004:	74 4e                	je     3054 <read_string+0x9a>
    3006:	83 f8 6e             	cmp    eax,0x6e
    3009:	0f 8f e7 00 00 00    	jg     30f6 <read_string+0x13c>
    300f:	83 f8 62             	cmp    eax,0x62
    3012:	0f 84 a0 00 00 00    	je     30b8 <read_string+0xfe>
    3018:	83 f8 62             	cmp    eax,0x62
    301b:	0f 8f d5 00 00 00    	jg     30f6 <read_string+0x13c>
    3021:	83 f8 5c             	cmp    eax,0x5c
    3024:	0f 84 a4 00 00 00    	je     30ce <read_string+0x114>
    302a:	83 f8 5c             	cmp    eax,0x5c
    302d:	0f 8f c3 00 00 00    	jg     30f6 <read_string+0x13c>
    3033:	83 f8 30             	cmp    eax,0x30
    3036:	0f 84 a8 00 00 00    	je     30e4 <read_string+0x12a>
    303c:	83 f8 30             	cmp    eax,0x30
    303f:	0f 8f b1 00 00 00    	jg     30f6 <read_string+0x13c>
    3045:	83 f8 22             	cmp    eax,0x22
    3048:	74 23                	je     306d <read_string+0xb3>
    304a:	83 f8 2f             	cmp    eax,0x2f
    304d:	74 37                	je     3086 <read_string+0xcc>
    304f:	e9 a2 00 00 00       	jmp    30f6 <read_string+0x13c>
    3054:	48 8b 45 f0          	mov    rax,QWORD PTR [rbp-0x10]
    3058:	48 8d 50 01          	lea    rdx,[rax+0x1]
    305c:	48 89 55 f0          	mov    QWORD PTR [rbp-0x10],rdx
    3060:	c6 00 0a             	mov    BYTE PTR [rax],0xa
    3063:	48 83 45 f8 02       	add    QWORD PTR [rbp-0x8],0x2
    3068:	e9 d1 00 00 00       	jmp    313e <read_string+0x184>
    306d:	48 8b 45 f0          	mov    rax,QWORD PTR [rbp-0x10]
    3071:	48 8d 50 01          	lea    rdx,[rax+0x1]
    3075:	48 89 55 f0          	mov    QWORD PTR [rbp-0x10],rdx
    3079:	c6 00 22             	mov    BYTE PTR [rax],0x22
    307c:	48 83 45 f8 02       	add    QWORD PTR [rbp-0x8],0x2
    3081:	e9 b8 00 00 00       	jmp    313e <read_string+0x184>
    3086:	48 8b 45 f0          	mov    rax,QWORD PTR [rbp-0x10]
    308a:	48 8d 50 01          	lea    rdx,[rax+0x1]
    308e:	48 89 55 f0          	mov    QWORD PTR [rbp-0x10],rdx
    3092:	c6 00 2f             	mov    BYTE PTR [rax],0x2f
    3095:	48 83 45 f8 02       	add    QWORD PTR [rbp-0x8],0x2
    309a:	e9 9f 00 00 00       	jmp    313e <read_string+0x184>
    309f:	48 8b 45 f0          	mov    rax,QWORD PTR [rbp-0x10]
    30a3:	48 8d 50 01          	lea    rdx,[rax+0x1]
    30a7:	48 89 55 f0          	mov    QWORD PTR [rbp-0x10],rdx
    30ab:	c6 00 09             	mov    BYTE PTR [rax],0x9
    30ae:	48 83 45 f8 02       	add    QWORD PTR [rbp-0x8],0x2
    30b3:	e9 86 00 00 00       	jmp    313e <read_string+0x184>
    30b8:	48 8b 45 f0          	mov    rax,QWORD PTR [rbp-0x10]
    30bc:	48 8d 50 01          	lea    rdx,[rax+0x1]
    30c0:	48 89 55 f0          	mov    QWORD PTR [rbp-0x10],rdx
    30c4:	c6 00 08             	mov    BYTE PTR [rax],0x8
    30c7:	48 83 45 f8 02       	add    QWORD PTR [rbp-0x8],0x2
    30cc:	eb 70                	jmp    313e <read_string+0x184>
    30ce:	48 8b 45 f0          	mov    rax,QWORD PTR [rbp-0x10]
    30d2:	48 8d 50 01          	lea    rdx,[rax+0x1]
    30d6:	48 89 55 f0          	mov    QWORD PTR [rbp-0x10],rdx
    30da:	c6 00 5c             	mov    BYTE PTR [rax],0x5c
    30dd:	48 83 45 f8 02       	add    QWORD PTR [rbp-0x8],0x2
    30e2:	eb 5a                	jmp    313e <read_string+0x184>
    30e4:	48 8b 45 f0          	mov    rax,QWORD PTR [rbp-0x10]
    30e8:	c6 00 00             	mov    BYTE PTR [rax],0x0
    30eb:	48 83 45 f8 02       	add    QWORD PTR [rbp-0x8],0x2
    30f0:	48 8b 45 f8          	mov    rax,QWORD PTR [rbp-0x8]
    30f4:	eb 66                	jmp    315c <read_string+0x1a2>
    30f6:	48 8b 05 63 c5 00 00 	mov    rax,QWORD PTR [rip+0xc563]        # f660 <stderr@GLIBC_2.2.5>
    30fd:	8b 55 ec             	mov    edx,DWORD PTR [rbp-0x14]
    3100:	48 8d 0d 39 93 00 00 	lea    rcx,[rip+0x9339]        # c440 <_IO_stdin_used+0x440>
    3107:	48 89 ce             	mov    rsi,rcx
    310a:	48 89 c7             	mov    rdi,rax
    310d:	b8 00 00 00 00       	mov    eax,0x0
    3112:	e8 e9 ef ff ff       	call   2100 <fprintf@plt>
    3117:	bf 01 00 00 00       	mov    edi,0x1
    311c:	e8 3f f0 ff ff       	call   2160 <exit@plt>
    3121:	48 8b 55 f8          	mov    rdx,QWORD PTR [rbp-0x8]
    3125:	48 8d 42 01          	lea    rax,[rdx+0x1]
    3129:	48 89 45 f8          	mov    QWORD PTR [rbp-0x8],rax
    312d:	48 8b 45 f0          	mov    rax,QWORD PTR [rbp-0x10]
    3131:	48 8d 48 01          	lea    rcx,[rax+0x1]
    3135:	48 89 4d f0          	mov    QWORD PTR [rbp-0x10],rcx
    3139:	0f b6 12             	movzx  edx,BYTE PTR [rdx]
    313c:	88 10                	mov    BYTE PTR [rax],dl
    313e:	48 8b 45 f8          	mov    rax,QWORD PTR [rbp-0x8]
    3142:	0f b6 00             	movzx  eax,BYTE PTR [rax]
    3145:	84 c0                	test   al,al
    3147:	74 0f                	je     3158 <read_string+0x19e>
    3149:	48 8b 45 f8          	mov    rax,QWORD PTR [rbp-0x8]
    314d:	0f b6 00             	movzx  eax,BYTE PTR [rax]
    3150:	3c 22                	cmp    al,0x22
    3152:	0f 85 7a fe ff ff    	jne    2fd2 <read_string+0x18>
    3158:	48 8b 45 f8          	mov    rax,QWORD PTR [rbp-0x8]
    315c:	c9                   	leave
    315d:	c3                   	ret

000000000000315e <As16>:
As16():
    315e:	55                   	push   rbp
    315f:	48 89 e5             	mov    rbp,rsp
    3162:	89 f8                	mov    eax,edi
    3164:	48 89 75 f0          	mov    QWORD PTR [rbp-0x10],rsi
    3168:	66 89 45 fc          	mov    WORD PTR [rbp-0x4],ax
    316c:	0f b7 45 fc          	movzx  eax,WORD PTR [rbp-0x4]
    3170:	89 c2                	mov    edx,eax
    3172:	48 8b 45 f0          	mov    rax,QWORD PTR [rbp-0x10]
    3176:	88 10                	mov    BYTE PTR [rax],dl
    3178:	0f b7 45 fc          	movzx  eax,WORD PTR [rbp-0x4]
    317c:	66 c1 e8 08          	shr    ax,0x8
    3180:	89 c2                	mov    edx,eax
    3182:	48 8b 45 f0          	mov    rax,QWORD PTR [rbp-0x10]
    3186:	48 83 c0 01          	add    rax,0x1
    318a:	88 10                	mov    BYTE PTR [rax],dl
    318c:	90                   	nop
    318d:	5d                   	pop    rbp
    318e:	c3                   	ret

000000000000318f <As32>:
As32():
    318f:	55                   	push   rbp
    3190:	48 89 e5             	mov    rbp,rsp
    3193:	89 7d fc             	mov    DWORD PTR [rbp-0x4],edi
    3196:	48 89 75 f0          	mov    QWORD PTR [rbp-0x10],rsi
    319a:	8b 45 fc             	mov    eax,DWORD PTR [rbp-0x4]
    319d:	89 c2                	mov    edx,eax
    319f:	48 8b 45 f0          	mov    rax,QWORD PTR [rbp-0x10]
    31a3:	88 10                	mov    BYTE PTR [rax],dl
    31a5:	8b 45 fc             	mov    eax,DWORD PTR [rbp-0x4]
    31a8:	c1 e8 08             	shr    eax,0x8
    31ab:	89 c2                	mov    edx,eax
    31ad:	48 8b 45 f0          	mov    rax,QWORD PTR [rbp-0x10]
    31b1:	48 83 c0 01          	add    rax,0x1
    31b5:	88 10                	mov    BYTE PTR [rax],dl
    31b7:	8b 45 fc             	mov    eax,DWORD PTR [rbp-0x4]
    31ba:	c1 e8 10             	shr    eax,0x10
    31bd:	89 c2                	mov    edx,eax
    31bf:	48 8b 45 f0          	mov    rax,QWORD PTR [rbp-0x10]
    31c3:	48 83 c0 02          	add    rax,0x2
    31c7:	88 10                	mov    BYTE PTR [rax],dl
    31c9:	8b 45 fc             	mov    eax,DWORD PTR [rbp-0x4]
    31cc:	c1 e8 18             	shr    eax,0x18
    31cf:	89 c2                	mov    edx,eax
    31d1:	48 8b 45 f0          	mov    rax,QWORD PTR [rbp-0x10]
    31d5:	48 83 c0 03          	add    rax,0x3
    31d9:	88 10                	mov    BYTE PTR [rax],dl
    31db:	90                   	nop
    31dc:	5d                   	pop    rbp
    31dd:	c3                   	ret

00000000000031de <As64>:
As64():
    31de:	55                   	push   rbp
    31df:	48 89 e5             	mov    rbp,rsp
    31e2:	48 89 7d f8          	mov    QWORD PTR [rbp-0x8],rdi
    31e6:	48 89 75 f0          	mov    QWORD PTR [rbp-0x10],rsi
    31ea:	48 8b 45 f8          	mov    rax,QWORD PTR [rbp-0x8]
    31ee:	89 c2                	mov    edx,eax
    31f0:	48 8b 45 f0          	mov    rax,QWORD PTR [rbp-0x10]
    31f4:	88 10                	mov    BYTE PTR [rax],dl
    31f6:	48 8b 45 f8          	mov    rax,QWORD PTR [rbp-0x8]
    31fa:	48 c1 e8 08          	shr    rax,0x8
    31fe:	48 89 c2             	mov    rdx,rax
    3201:	48 8b 45 f0          	mov    rax,QWORD PTR [rbp-0x10]
    3205:	48 83 c0 01          	add    rax,0x1
    3209:	88 10                	mov    BYTE PTR [rax],dl
    320b:	48 8b 45 f8          	mov    rax,QWORD PTR [rbp-0x8]
    320f:	48 c1 e8 10          	shr    rax,0x10
    3213:	48 89 c2             	mov    rdx,rax
    3216:	48 8b 45 f0          	mov    rax,QWORD PTR [rbp-0x10]
    321a:	48 83 c0 02          	add    rax,0x2
    321e:	88 10                	mov    BYTE PTR [rax],dl
    3220:	48 8b 45 f8          	mov    rax,QWORD PTR [rbp-0x8]
    3224:	48 c1 e8 18          	shr    rax,0x18
    3228:	48 89 c2             	mov    rdx,rax
    322b:	48 8b 45 f0          	mov    rax,QWORD PTR [rbp-0x10]
    322f:	48 83 c0 03          	add    rax,0x3
    3233:	88 10                	mov    BYTE PTR [rax],dl
    3235:	48 8b 45 f8          	mov    rax,QWORD PTR [rbp-0x8]
    3239:	48 c1 e8 20          	shr    rax,0x20
    323d:	48 89 c2             	mov    rdx,rax
    3240:	48 8b 45 f0          	mov    rax,QWORD PTR [rbp-0x10]
    3244:	48 83 c0 04          	add    rax,0x4
    3248:	88 10                	mov    BYTE PTR [rax],dl
    324a:	48 8b 45 f8          	mov    rax,QWORD PTR [rbp-0x8]
    324e:	48 c1 e8 28          	shr    rax,0x28
    3252:	48 89 c2             	mov    rdx,rax
    3255:	48 8b 45 f0          	mov    rax,QWORD PTR [rbp-0x10]
    3259:	48 83 c0 05          	add    rax,0x5
    325d:	88 10                	mov    BYTE PTR [rax],dl
    325f:	48 8b 45 f8          	mov    rax,QWORD PTR [rbp-0x8]
    3263:	48 c1 e8 30          	shr    rax,0x30
    3267:	48 89 c2             	mov    rdx,rax
    326a:	48 8b 45 f0          	mov    rax,QWORD PTR [rbp-0x10]
    326e:	48 83 c0 06          	add    rax,0x6
    3272:	88 10                	mov    BYTE PTR [rax],dl
    3274:	48 8b 45 f8          	mov    rax,QWORD PTR [rbp-0x8]
    3278:	48 c1 e8 38          	shr    rax,0x38
    327c:	48 89 c2             	mov    rdx,rax
    327f:	48 8b 45 f0          	mov    rax,QWORD PTR [rbp-0x10]
    3283:	48 83 c0 07          	add    rax,0x7
    3287:	88 10                	mov    BYTE PTR [rax],dl
    3289:	90                   	nop
    328a:	5d                   	pop    rbp
    328b:	c3                   	ret

000000000000328c <LEXER>:
LEXER():
    328c:	55                   	push   rbp
    328d:	48 89 e5             	mov    rbp,rsp
    3290:	48 81 ec 90 05 00 00 	sub    rsp,0x590
    3297:	48 89 bd 78 fa ff ff 	mov    QWORD PTR [rbp-0x588],rdi
    329e:	48 83 bd 78 fa ff ff 	cmp    QWORD PTR [rbp-0x588],0x0
    32a5:	00 
    32a6:	75 2d                	jne    32d5 <LEXER+0x49>
    32a8:	48 8b 05 b1 c3 00 00 	mov    rax,QWORD PTR [rip+0xc3b1]        # f660 <stderr@GLIBC_2.2.5>
    32af:	48 89 c1             	mov    rcx,rax
    32b2:	ba 2d 00 00 00       	mov    edx,0x2d
    32b7:	be 01 00 00 00       	mov    esi,0x1
    32bc:	48 8d 05 ad 91 00 00 	lea    rax,[rip+0x91ad]        # c470 <_IO_stdin_used+0x470>
    32c3:	48 89 c7             	mov    rdi,rax
    32c6:	e8 a5 ee ff ff       	call   2170 <fwrite@plt>
    32cb:	bf 01 00 00 00       	mov    edi,0x1
    32d0:	e8 8b ee ff ff       	call   2160 <exit@plt>
    32d5:	48 8d 95 b0 fd ff ff 	lea    rdx,[rbp-0x250]
    32dc:	b8 00 00 00 00       	mov    eax,0x0
    32e1:	b9 42 00 00 00       	mov    ecx,0x42
    32e6:	48 89 d7             	mov    rdi,rdx
    32e9:	f3 48 ab             	rep stos QWORD PTR es:[rdi],rax
    32ec:	c7 45 fc 00 00 00 00 	mov    DWORD PTR [rbp-0x4],0x0
    32f3:	e9 bd 17 00 00       	jmp    4ab5 <LEXER+0x1829>
    32f8:	48 8d 85 b0 fd ff ff 	lea    rax,[rbp-0x250]
    32ff:	48 83 c0 08          	add    rax,0x8
    3303:	48 89 45 f0          	mov    QWORD PTR [rbp-0x10],rax
    3307:	8b 05 7b c3 00 00    	mov    eax,DWORD PTR [rip+0xc37b]        # f688 <line>
    330d:	83 c0 01             	add    eax,0x1
    3310:	89 05 72 c3 00 00    	mov    DWORD PTR [rip+0xc372],eax        # f688 <line>
    3316:	8b 05 6c c3 00 00    	mov    eax,DWORD PTR [rip+0xc36c]        # f688 <line>
    331c:	48 8d 95 b0 fd ff ff 	lea    rdx,[rbp-0x250]
    3323:	48 83 c2 08          	add    rdx,0x8
    3327:	89 c6                	mov    esi,eax
    3329:	48 8d 05 6e 91 00 00 	lea    rax,[rip+0x916e]        # c49e <_IO_stdin_used+0x49e>
    3330:	48 89 c7             	mov    rdi,rax
    3333:	b8 00 00 00 00       	mov    eax,0x0
    3338:	e8 63 ed ff ff       	call   20a0 <printf@plt>
    333d:	48 8b 05 fc c2 00 00 	mov    rax,QWORD PTR [rip+0xc2fc]        # f640 <stdout@GLIBC_2.2.5>
    3344:	48 89 c7             	mov    rdi,rax
    3347:	e8 e4 ed ff ff       	call   2130 <fflush@plt>
    334c:	e9 39 17 00 00       	jmp    4a8a <LEXER+0x17fe>
    3351:	48 8b 45 f0          	mov    rax,QWORD PTR [rbp-0x10]
    3355:	0f b6 00             	movzx  eax,BYTE PTR [rax]
    3358:	0f be d0             	movsx  edx,al
    335b:	48 8b 45 f0          	mov    rax,QWORD PTR [rbp-0x10]
    335f:	0f b6 00             	movzx  eax,BYTE PTR [rax]
    3362:	0f be c0             	movsx  eax,al
    3365:	89 c6                	mov    esi,eax
    3367:	48 8d 05 47 91 00 00 	lea    rax,[rip+0x9147]        # c4b5 <_IO_stdin_used+0x4b5>
    336e:	48 89 c7             	mov    rdi,rax
    3371:	b8 00 00 00 00       	mov    eax,0x0
    3376:	e8 25 ed ff ff       	call   20a0 <printf@plt>
    337b:	48 8b 05 be c2 00 00 	mov    rax,QWORD PTR [rip+0xc2be]        # f640 <stdout@GLIBC_2.2.5>
    3382:	48 89 c7             	mov    rdi,rax
    3385:	e8 a6 ed ff ff       	call   2130 <fflush@plt>
    338a:	eb 05                	jmp    3391 <LEXER+0x105>
    338c:	48 83 45 f0 01       	add    QWORD PTR [rbp-0x10],0x1
    3391:	e8 fa ed ff ff       	call   2190 <__ctype_b_loc@plt>
    3396:	48 8b 10             	mov    rdx,QWORD PTR [rax]
    3399:	48 8b 45 f0          	mov    rax,QWORD PTR [rbp-0x10]
    339d:	0f b6 00             	movzx  eax,BYTE PTR [rax]
    33a0:	48 0f be c0          	movsx  rax,al
    33a4:	48 01 c0             	add    rax,rax
    33a7:	48 01 d0             	add    rax,rdx
    33aa:	0f b7 00             	movzx  eax,WORD PTR [rax]
    33ad:	0f b7 c0             	movzx  eax,ax
    33b0:	25 00 20 00 00       	and    eax,0x2000
    33b5:	85 c0                	test   eax,eax
    33b7:	75 d3                	jne    338c <LEXER+0x100>
    33b9:	48 8b 45 f0          	mov    rax,QWORD PTR [rbp-0x10]
    33bd:	0f b6 00             	movzx  eax,BYTE PTR [rax]
    33c0:	84 c0                	test   al,al
    33c2:	0f 84 d1 16 00 00    	je     4a99 <LEXER+0x180d>
    33c8:	48 8b 45 f0          	mov    rax,QWORD PTR [rbp-0x10]
    33cc:	0f b6 00             	movzx  eax,BYTE PTR [rax]
    33cf:	3c 0a                	cmp    al,0xa
    33d1:	0f 84 c2 16 00 00    	je     4a99 <LEXER+0x180d>
    33d7:	48 8b 45 f0          	mov    rax,QWORD PTR [rbp-0x10]
    33db:	0f b6 00             	movzx  eax,BYTE PTR [rax]
    33de:	3c 2f                	cmp    al,0x2f
    33e0:	75 13                	jne    33f5 <LEXER+0x169>
    33e2:	48 8b 45 f0          	mov    rax,QWORD PTR [rbp-0x10]
    33e6:	48 83 c0 01          	add    rax,0x1
    33ea:	0f b6 00             	movzx  eax,BYTE PTR [rax]
    33ed:	3c 2f                	cmp    al,0x2f
    33ef:	0f 84 a4 16 00 00    	je     4a99 <LEXER+0x180d>
    33f5:	48 8b 45 f0          	mov    rax,QWORD PTR [rbp-0x10]
    33f9:	0f b6 00             	movzx  eax,BYTE PTR [rax]
    33fc:	3c 3b                	cmp    al,0x3b
    33fe:	0f 84 95 16 00 00    	je     4a99 <LEXER+0x180d>
    3404:	83 7d fc 00          	cmp    DWORD PTR [rbp-0x4],0x0
    3408:	75 2b                	jne    3435 <LEXER+0x1a9>
    340a:	48 8b 45 f0          	mov    rax,QWORD PTR [rbp-0x10]
    340e:	0f b6 00             	movzx  eax,BYTE PTR [rax]
    3411:	3c 2f                	cmp    al,0x2f
    3413:	75 20                	jne    3435 <LEXER+0x1a9>
    3415:	48 8b 45 f0          	mov    rax,QWORD PTR [rbp-0x10]
    3419:	48 83 c0 01          	add    rax,0x1
    341d:	0f b6 00             	movzx  eax,BYTE PTR [rax]
    3420:	3c 2a                	cmp    al,0x2a
    3422:	75 11                	jne    3435 <LEXER+0x1a9>
    3424:	c7 45 fc 01 00 00 00 	mov    DWORD PTR [rbp-0x4],0x1
    342b:	48 83 45 f0 02       	add    QWORD PTR [rbp-0x10],0x2
    3430:	e9 55 16 00 00       	jmp    4a8a <LEXER+0x17fe>
    3435:	83 7d fc 00          	cmp    DWORD PTR [rbp-0x4],0x0
    3439:	74 32                	je     346d <LEXER+0x1e1>
    343b:	48 8b 45 f0          	mov    rax,QWORD PTR [rbp-0x10]
    343f:	0f b6 00             	movzx  eax,BYTE PTR [rax]
    3442:	3c 2a                	cmp    al,0x2a
    3444:	75 1d                	jne    3463 <LEXER+0x1d7>
    3446:	48 8b 45 f0          	mov    rax,QWORD PTR [rbp-0x10]
    344a:	48 83 c0 01          	add    rax,0x1
    344e:	0f b6 00             	movzx  eax,BYTE PTR [rax]
    3451:	3c 2f                	cmp    al,0x2f
    3453:	75 0e                	jne    3463 <LEXER+0x1d7>
    3455:	c7 45 fc 00 00 00 00 	mov    DWORD PTR [rbp-0x4],0x0
    345c:	48 83 45 f0 02       	add    QWORD PTR [rbp-0x10],0x2
    3461:	eb 05                	jmp    3468 <LEXER+0x1dc>
    3463:	48 83 45 f0 01       	add    QWORD PTR [rbp-0x10],0x1
    3468:	e9 1d 16 00 00       	jmp    4a8a <LEXER+0x17fe>
    346d:	48 8b 45 f0          	mov    rax,QWORD PTR [rbp-0x10]
    3471:	0f b6 00             	movzx  eax,BYTE PTR [rax]
    3474:	3c 75                	cmp    al,0x75
    3476:	74 0f                	je     3487 <LEXER+0x1fb>
    3478:	48 8b 45 f0          	mov    rax,QWORD PTR [rbp-0x10]
    347c:	0f b6 00             	movzx  eax,BYTE PTR [rax]
    347f:	3c 55                	cmp    al,0x55
    3481:	0f 85 b6 02 00 00    	jne    373d <LEXER+0x4b1>
    3487:	e8 04 ed ff ff       	call   2190 <__ctype_b_loc@plt>
    348c:	48 8b 00             	mov    rax,QWORD PTR [rax]
    348f:	48 8b 55 f0          	mov    rdx,QWORD PTR [rbp-0x10]
    3493:	48 83 c2 01          	add    rdx,0x1
    3497:	0f b6 12             	movzx  edx,BYTE PTR [rdx]
    349a:	48 0f be d2          	movsx  rdx,dl
    349e:	48 01 d2             	add    rdx,rdx
    34a1:	48 01 d0             	add    rax,rdx
    34a4:	0f b7 00             	movzx  eax,WORD PTR [rax]
    34a7:	0f b7 c0             	movzx  eax,ax
    34aa:	25 00 08 00 00       	and    eax,0x800
    34af:	85 c0                	test   eax,eax
    34b1:	0f 84 86 02 00 00    	je     373d <LEXER+0x4b1>
    34b7:	48 c7 85 a6 fd ff ff 	mov    QWORD PTR [rbp-0x25a],0x0
    34be:	00 00 00 00 
    34c2:	66 c7 85 ae fd ff ff 	mov    WORD PTR [rbp-0x252],0x0
    34c9:	00 00 
    34cb:	c7 45 ec 00 00 00 00 	mov    DWORD PTR [rbp-0x14],0x0
    34d2:	eb 22                	jmp    34f6 <LEXER+0x26a>
    34d4:	48 8b 45 f0          	mov    rax,QWORD PTR [rbp-0x10]
    34d8:	48 8d 50 01          	lea    rdx,[rax+0x1]
    34dc:	48 89 55 f0          	mov    QWORD PTR [rbp-0x10],rdx
    34e0:	8b 55 ec             	mov    edx,DWORD PTR [rbp-0x14]
    34e3:	8d 4a 01             	lea    ecx,[rdx+0x1]
    34e6:	89 4d ec             	mov    DWORD PTR [rbp-0x14],ecx
    34e9:	0f b6 08             	movzx  ecx,BYTE PTR [rax]
    34ec:	48 63 c2             	movsxd rax,edx
    34ef:	88 8c 05 a6 fd ff ff 	mov    BYTE PTR [rbp+rax*1-0x25a],cl
    34f6:	48 8b 45 f0          	mov    rax,QWORD PTR [rbp-0x10]
    34fa:	0f b6 00             	movzx  eax,BYTE PTR [rax]
    34fd:	84 c0                	test   al,al
    34ff:	74 2e                	je     352f <LEXER+0x2a3>
    3501:	e8 8a ec ff ff       	call   2190 <__ctype_b_loc@plt>
    3506:	48 8b 10             	mov    rdx,QWORD PTR [rax]
    3509:	48 8b 45 f0          	mov    rax,QWORD PTR [rbp-0x10]
    350d:	0f b6 00             	movzx  eax,BYTE PTR [rax]
    3510:	48 0f be c0          	movsx  rax,al
    3514:	48 01 c0             	add    rax,rax
    3517:	48 01 d0             	add    rax,rdx
    351a:	0f b7 00             	movzx  eax,WORD PTR [rax]
    351d:	0f b7 c0             	movzx  eax,ax
    3520:	25 00 20 00 00       	and    eax,0x2000
    3525:	85 c0                	test   eax,eax
    3527:	75 06                	jne    352f <LEXER+0x2a3>
    3529:	83 7d ec 08          	cmp    DWORD PTR [rbp-0x14],0x8
    352d:	7e a5                	jle    34d4 <LEXER+0x248>
    352f:	48 8b 15 2a bd 00 00 	mov    rdx,QWORD PTR [rip+0xbd2a]        # f260 <HUMAN_AST>
    3536:	48 8d 85 a6 fd ff ff 	lea    rax,[rbp-0x25a]
    353d:	48 89 d6             	mov    rsi,rdx
    3540:	48 89 c7             	mov    rdi,rax
    3543:	e8 08 eb ff ff       	call   2050 <strcasecmp@plt>
    3548:	85 c0                	test   eax,eax
    354a:	75 1f                	jne    356b <LEXER+0x2df>
    354c:	8b 15 36 c1 00 00    	mov    edx,DWORD PTR [rip+0xc136]        # f688 <line>
    3552:	48 8d 85 a6 fd ff ff 	lea    rax,[rbp-0x25a]
    3559:	48 89 c6             	mov    rsi,rax
    355c:	bf 0f 00 00 00       	mov    edi,0xf
    3561:	e8 a3 f3 ff ff       	call   2909 <add_token>
    3566:	e9 1f 15 00 00       	jmp    4a8a <LEXER+0x17fe>
    356b:	48 8b 15 f6 bc 00 00 	mov    rdx,QWORD PTR [rip+0xbcf6]        # f268 <HUMAN_AST+0x8>
    3572:	48 8d 85 a6 fd ff ff 	lea    rax,[rbp-0x25a]
    3579:	48 89 d6             	mov    rsi,rdx
    357c:	48 89 c7             	mov    rdi,rax
    357f:	e8 cc ea ff ff       	call   2050 <strcasecmp@plt>
    3584:	85 c0                	test   eax,eax
    3586:	75 1f                	jne    35a7 <LEXER+0x31b>
    3588:	8b 15 fa c0 00 00    	mov    edx,DWORD PTR [rip+0xc0fa]        # f688 <line>
    358e:	48 8d 85 a6 fd ff ff 	lea    rax,[rbp-0x25a]
    3595:	48 89 c6             	mov    rsi,rax
    3598:	bf 10 00 00 00       	mov    edi,0x10
    359d:	e8 67 f3 ff ff       	call   2909 <add_token>
    35a2:	e9 e3 14 00 00       	jmp    4a8a <LEXER+0x17fe>
    35a7:	48 8b 15 c2 bc 00 00 	mov    rdx,QWORD PTR [rip+0xbcc2]        # f270 <HUMAN_AST+0x10>
    35ae:	48 8d 85 a6 fd ff ff 	lea    rax,[rbp-0x25a]
    35b5:	48 89 d6             	mov    rsi,rdx
    35b8:	48 89 c7             	mov    rdi,rax
    35bb:	e8 90 ea ff ff       	call   2050 <strcasecmp@plt>
    35c0:	85 c0                	test   eax,eax
    35c2:	75 1f                	jne    35e3 <LEXER+0x357>
    35c4:	8b 15 be c0 00 00    	mov    edx,DWORD PTR [rip+0xc0be]        # f688 <line>
    35ca:	48 8d 85 a6 fd ff ff 	lea    rax,[rbp-0x25a]
    35d1:	48 89 c6             	mov    rsi,rax
    35d4:	bf 11 00 00 00       	mov    edi,0x11
    35d9:	e8 2b f3 ff ff       	call   2909 <add_token>
    35de:	e9 a7 14 00 00       	jmp    4a8a <LEXER+0x17fe>
    35e3:	48 8b 15 8e bc 00 00 	mov    rdx,QWORD PTR [rip+0xbc8e]        # f278 <HUMAN_AST+0x18>
    35ea:	48 8d 85 a6 fd ff ff 	lea    rax,[rbp-0x25a]
    35f1:	48 89 d6             	mov    rsi,rdx
    35f4:	48 89 c7             	mov    rdi,rax
    35f7:	e8 54 ea ff ff       	call   2050 <strcasecmp@plt>
    35fc:	85 c0                	test   eax,eax
    35fe:	75 1f                	jne    361f <LEXER+0x393>
    3600:	8b 15 82 c0 00 00    	mov    edx,DWORD PTR [rip+0xc082]        # f688 <line>
    3606:	48 8d 85 a6 fd ff ff 	lea    rax,[rbp-0x25a]
    360d:	48 89 c6             	mov    rsi,rax
    3610:	bf 12 00 00 00       	mov    edi,0x12
    3615:	e8 ef f2 ff ff       	call   2909 <add_token>
    361a:	e9 6b 14 00 00       	jmp    4a8a <LEXER+0x17fe>
    361f:	48 8b 15 5a bc 00 00 	mov    rdx,QWORD PTR [rip+0xbc5a]        # f280 <HUMAN_AST+0x20>
    3626:	48 8d 85 a6 fd ff ff 	lea    rax,[rbp-0x25a]
    362d:	48 89 d6             	mov    rsi,rdx
    3630:	48 89 c7             	mov    rdi,rax
    3633:	e8 18 ea ff ff       	call   2050 <strcasecmp@plt>
    3638:	85 c0                	test   eax,eax
    363a:	75 1f                	jne    365b <LEXER+0x3cf>
    363c:	8b 15 46 c0 00 00    	mov    edx,DWORD PTR [rip+0xc046]        # f688 <line>
    3642:	48 8d 85 a6 fd ff ff 	lea    rax,[rbp-0x25a]
    3649:	48 89 c6             	mov    rsi,rax
    364c:	bf 13 00 00 00       	mov    edi,0x13
    3651:	e8 b3 f2 ff ff       	call   2909 <add_token>
    3656:	e9 2f 14 00 00       	jmp    4a8a <LEXER+0x17fe>
    365b:	48 8b 15 26 bc 00 00 	mov    rdx,QWORD PTR [rip+0xbc26]        # f288 <HUMAN_AST+0x28>
    3662:	48 8d 85 a6 fd ff ff 	lea    rax,[rbp-0x25a]
    3669:	48 89 d6             	mov    rsi,rdx
    366c:	48 89 c7             	mov    rdi,rax
    366f:	e8 dc e9 ff ff       	call   2050 <strcasecmp@plt>
    3674:	85 c0                	test   eax,eax
    3676:	75 1f                	jne    3697 <LEXER+0x40b>
    3678:	8b 15 0a c0 00 00    	mov    edx,DWORD PTR [rip+0xc00a]        # f688 <line>
    367e:	48 8d 85 a6 fd ff ff 	lea    rax,[rbp-0x25a]
    3685:	48 89 c6             	mov    rsi,rax
    3688:	bf 14 00 00 00       	mov    edi,0x14
    368d:	e8 77 f2 ff ff       	call   2909 <add_token>
    3692:	e9 f3 13 00 00       	jmp    4a8a <LEXER+0x17fe>
    3697:	48 8b 15 f2 bb 00 00 	mov    rdx,QWORD PTR [rip+0xbbf2]        # f290 <HUMAN_AST+0x30>
    369e:	48 8d 85 a6 fd ff ff 	lea    rax,[rbp-0x25a]
    36a5:	48 89 d6             	mov    rsi,rdx
    36a8:	48 89 c7             	mov    rdi,rax
    36ab:	e8 a0 e9 ff ff       	call   2050 <strcasecmp@plt>
    36b0:	85 c0                	test   eax,eax
    36b2:	75 1f                	jne    36d3 <LEXER+0x447>
    36b4:	8b 15 ce bf 00 00    	mov    edx,DWORD PTR [rip+0xbfce]        # f688 <line>
    36ba:	48 8d 85 a6 fd ff ff 	lea    rax,[rbp-0x25a]
    36c1:	48 89 c6             	mov    rsi,rax
    36c4:	bf 15 00 00 00       	mov    edi,0x15
    36c9:	e8 3b f2 ff ff       	call   2909 <add_token>
    36ce:	e9 b7 13 00 00       	jmp    4a8a <LEXER+0x17fe>
    36d3:	48 8b 15 be bb 00 00 	mov    rdx,QWORD PTR [rip+0xbbbe]        # f298 <HUMAN_AST+0x38>
    36da:	48 8d 85 a6 fd ff ff 	lea    rax,[rbp-0x25a]
    36e1:	48 89 d6             	mov    rsi,rdx
    36e4:	48 89 c7             	mov    rdi,rax
    36e7:	e8 64 e9 ff ff       	call   2050 <strcasecmp@plt>
    36ec:	85 c0                	test   eax,eax
    36ee:	75 1f                	jne    370f <LEXER+0x483>
    36f0:	8b 15 92 bf 00 00    	mov    edx,DWORD PTR [rip+0xbf92]        # f688 <line>
    36f6:	48 8d 85 a6 fd ff ff 	lea    rax,[rbp-0x25a]
    36fd:	48 89 c6             	mov    rsi,rax
    3700:	bf 16 00 00 00       	mov    edi,0x16
    3705:	e8 ff f1 ff ff       	call   2909 <add_token>
    370a:	e9 7b 13 00 00       	jmp    4a8a <LEXER+0x17fe>
    370f:	8b 15 73 bf 00 00    	mov    edx,DWORD PTR [rip+0xbf73]        # f688 <line>
    3715:	48 8b 05 44 bf 00 00 	mov    rax,QWORD PTR [rip+0xbf44]        # f660 <stderr@GLIBC_2.2.5>
    371c:	48 8d 0d b5 8d 00 00 	lea    rcx,[rip+0x8db5]        # c4d8 <_IO_stdin_used+0x4d8>
    3723:	48 89 ce             	mov    rsi,rcx
    3726:	48 89 c7             	mov    rdi,rax
    3729:	b8 00 00 00 00       	mov    eax,0x0
    372e:	e8 cd e9 ff ff       	call   2100 <fprintf@plt>
    3733:	bf 01 00 00 00       	mov    edi,0x1
    3738:	e8 23 ea ff ff       	call   2160 <exit@plt>
    373d:	48 8b 45 f0          	mov    rax,QWORD PTR [rbp-0x10]
    3741:	0f b6 00             	movzx  eax,BYTE PTR [rax]
    3744:	0f be d0             	movsx  edx,al
    3747:	48 8b 05 b2 bb 00 00 	mov    rax,QWORD PTR [rip+0xbbb2]        # f300 <LETEXT>
    374e:	89 d6                	mov    esi,edx
    3750:	48 89 c7             	mov    rdi,rax
    3753:	e8 41 eb ff ff       	call   2299 <isin>
    3758:	85 c0                	test   eax,eax
    375a:	0f 84 a0 02 00 00    	je     3a00 <LEXER+0x774>
    3760:	48 c7 85 80 fb ff ff 	mov    QWORD PTR [rbp-0x480],0x0
    3767:	00 00 00 00 
    376b:	48 c7 85 88 fb ff ff 	mov    QWORD PTR [rbp-0x478],0x0
    3772:	00 00 00 00 
    3776:	48 c7 85 90 fb ff ff 	mov    QWORD PTR [rbp-0x470],0x0
    377d:	00 00 00 00 
    3781:	48 c7 85 98 fb ff ff 	mov    QWORD PTR [rbp-0x468],0x0
    3788:	00 00 00 00 
    378c:	48 c7 85 a0 fb ff ff 	mov    QWORD PTR [rbp-0x460],0x0
    3793:	00 00 00 00 
    3797:	48 c7 85 a8 fb ff ff 	mov    QWORD PTR [rbp-0x458],0x0
    379e:	00 00 00 00 
    37a2:	48 c7 85 b0 fb ff ff 	mov    QWORD PTR [rbp-0x450],0x0
    37a9:	00 00 00 00 
    37ad:	48 c7 85 b8 fb ff ff 	mov    QWORD PTR [rbp-0x448],0x0
    37b4:	00 00 00 00 
    37b8:	48 c7 85 c0 fb ff ff 	mov    QWORD PTR [rbp-0x440],0x0
    37bf:	00 00 00 00 
    37c3:	48 c7 85 c8 fb ff ff 	mov    QWORD PTR [rbp-0x438],0x0
    37ca:	00 00 00 00 
    37ce:	48 c7 85 d0 fb ff ff 	mov    QWORD PTR [rbp-0x430],0x0
    37d5:	00 00 00 00 
    37d9:	48 c7 85 d8 fb ff ff 	mov    QWORD PTR [rbp-0x428],0x0
    37e0:	00 00 00 00 
    37e4:	48 c7 85 e0 fb ff ff 	mov    QWORD PTR [rbp-0x420],0x0
    37eb:	00 00 00 00 
    37ef:	48 c7 85 e8 fb ff ff 	mov    QWORD PTR [rbp-0x418],0x0
    37f6:	00 00 00 00 
    37fa:	48 c7 85 f0 fb ff ff 	mov    QWORD PTR [rbp-0x410],0x0
    3801:	00 00 00 00 
    3805:	48 c7 85 f8 fb ff ff 	mov    QWORD PTR [rbp-0x408],0x0
    380c:	00 00 00 00 
    3810:	48 c7 85 00 fc ff ff 	mov    QWORD PTR [rbp-0x400],0x0
    3817:	00 00 00 00 
    381b:	48 c7 85 08 fc ff ff 	mov    QWORD PTR [rbp-0x3f8],0x0
    3822:	00 00 00 00 
    3826:	48 c7 85 10 fc ff ff 	mov    QWORD PTR [rbp-0x3f0],0x0
    382d:	00 00 00 00 
    3831:	48 c7 85 18 fc ff ff 	mov    QWORD PTR [rbp-0x3e8],0x0
    3838:	00 00 00 00 
    383c:	48 c7 85 20 fc ff ff 	mov    QWORD PTR [rbp-0x3e0],0x0
    3843:	00 00 00 00 
    3847:	48 c7 85 28 fc ff ff 	mov    QWORD PTR [rbp-0x3d8],0x0
    384e:	00 00 00 00 
    3852:	48 c7 85 30 fc ff ff 	mov    QWORD PTR [rbp-0x3d0],0x0
    3859:	00 00 00 00 
    385d:	48 c7 85 38 fc ff ff 	mov    QWORD PTR [rbp-0x3c8],0x0
    3864:	00 00 00 00 
    3868:	48 c7 85 40 fc ff ff 	mov    QWORD PTR [rbp-0x3c0],0x0
    386f:	00 00 00 00 
    3873:	48 c7 85 48 fc ff ff 	mov    QWORD PTR [rbp-0x3b8],0x0
    387a:	00 00 00 00 
    387e:	48 c7 85 50 fc ff ff 	mov    QWORD PTR [rbp-0x3b0],0x0
    3885:	00 00 00 00 
    3889:	48 c7 85 58 fc ff ff 	mov    QWORD PTR [rbp-0x3a8],0x0
    3890:	00 00 00 00 
    3894:	48 c7 85 60 fc ff ff 	mov    QWORD PTR [rbp-0x3a0],0x0
    389b:	00 00 00 00 
    389f:	48 c7 85 68 fc ff ff 	mov    QWORD PTR [rbp-0x398],0x0
    38a6:	00 00 00 00 
    38aa:	48 c7 85 70 fc ff ff 	mov    QWORD PTR [rbp-0x390],0x0
    38b1:	00 00 00 00 
    38b5:	48 c7 85 78 fc ff ff 	mov    QWORD PTR [rbp-0x388],0x0
    38bc:	00 00 00 00 
    38c0:	c7 45 e8 00 00 00 00 	mov    DWORD PTR [rbp-0x18],0x0
    38c7:	eb 22                	jmp    38eb <LEXER+0x65f>
    38c9:	48 8b 45 f0          	mov    rax,QWORD PTR [rbp-0x10]
    38cd:	48 8d 50 01          	lea    rdx,[rax+0x1]
    38d1:	48 89 55 f0          	mov    QWORD PTR [rbp-0x10],rdx
    38d5:	8b 55 e8             	mov    edx,DWORD PTR [rbp-0x18]
    38d8:	8d 4a 01             	lea    ecx,[rdx+0x1]
    38db:	89 4d e8             	mov    DWORD PTR [rbp-0x18],ecx
    38de:	0f b6 08             	movzx  ecx,BYTE PTR [rax]
    38e1:	48 63 c2             	movsxd rax,edx
    38e4:	88 8c 05 80 fb ff ff 	mov    BYTE PTR [rbp+rax*1-0x480],cl
    38eb:	48 8b 45 f0          	mov    rax,QWORD PTR [rbp-0x10]
    38ef:	0f b6 00             	movzx  eax,BYTE PTR [rax]
    38f2:	0f be d0             	movsx  edx,al
    38f5:	48 8b 05 04 ba 00 00 	mov    rax,QWORD PTR [rip+0xba04]        # f300 <LETEXT>
    38fc:	89 d6                	mov    esi,edx
    38fe:	48 89 c7             	mov    rdi,rax
    3901:	e8 93 e9 ff ff       	call   2299 <isin>
    3906:	85 c0                	test   eax,eax
    3908:	74 09                	je     3913 <LEXER+0x687>
    390a:	81 7d e8 00 01 00 00 	cmp    DWORD PTR [rbp-0x18],0x100
    3911:	7e b6                	jle    38c9 <LEXER+0x63d>
    3913:	8b 45 e8             	mov    eax,DWORD PTR [rbp-0x18]
    3916:	48 98                	cdqe
    3918:	c6 84 05 80 fb ff ff 	mov    BYTE PTR [rbp+rax*1-0x480],0x0
    391f:	00 
    3920:	eb 05                	jmp    3927 <LEXER+0x69b>
    3922:	48 83 45 f0 01       	add    QWORD PTR [rbp-0x10],0x1
    3927:	48 8b 45 f0          	mov    rax,QWORD PTR [rbp-0x10]
    392b:	0f b6 00             	movzx  eax,BYTE PTR [rax]
    392e:	3c 20                	cmp    al,0x20
    3930:	74 f0                	je     3922 <LEXER+0x696>
    3932:	48 8b 45 f0          	mov    rax,QWORD PTR [rbp-0x10]
    3936:	0f b6 00             	movzx  eax,BYTE PTR [rax]
    3939:	3c 09                	cmp    al,0x9
    393b:	74 e5                	je     3922 <LEXER+0x696>
    393d:	48 8b 45 f0          	mov    rax,QWORD PTR [rbp-0x10]
    3941:	0f b6 00             	movzx  eax,BYTE PTR [rax]
    3944:	3c 3a                	cmp    al,0x3a
    3946:	75 49                	jne    3991 <LEXER+0x705>
    3948:	48 83 45 f0 01       	add    QWORD PTR [rbp-0x10],0x1
    394d:	48 8d 85 80 fb ff ff 	lea    rax,[rbp-0x480]
    3954:	48 8d 95 b0 fd ff ff 	lea    rdx,[rbp-0x250]
    395b:	48 8d 8a 10 01 00 00 	lea    rcx,[rdx+0x110]
    3962:	ba 00 01 00 00       	mov    edx,0x100
    3967:	48 89 c6             	mov    rsi,rax
    396a:	48 89 cf             	mov    rdi,rcx
    396d:	e8 ee e6 ff ff       	call   2060 <strncpy@plt>
    3972:	8b 15 10 bd 00 00    	mov    edx,DWORD PTR [rip+0xbd10]        # f688 <line>
    3978:	48 8d 85 80 fb ff ff 	lea    rax,[rbp-0x480]
    397f:	48 89 c6             	mov    rsi,rax
    3982:	bf 02 00 00 00       	mov    edi,0x2
    3987:	e8 7d ef ff ff       	call   2909 <add_token>
    398c:	e9 f9 10 00 00       	jmp    4a8a <LEXER+0x17fe>
    3991:	48 8d 85 80 fb ff ff 	lea    rax,[rbp-0x480]
    3998:	48 89 c6             	mov    rsi,rax
    399b:	48 8d 05 3e b7 00 00 	lea    rax,[rip+0xb73e]        # f0e0 <CMDS>
    39a2:	48 89 c7             	mov    rdi,rax
    39a5:	e8 40 e9 ff ff       	call   22ea <is2arrin>
    39aa:	85 c0                	test   eax,eax
    39ac:	74 1f                	je     39cd <LEXER+0x741>
    39ae:	8b 15 d4 bc 00 00    	mov    edx,DWORD PTR [rip+0xbcd4]        # f688 <line>
    39b4:	48 8d 85 80 fb ff ff 	lea    rax,[rbp-0x480]
    39bb:	48 89 c6             	mov    rsi,rax
    39be:	bf 00 00 00 00       	mov    edi,0x0
    39c3:	e8 41 ef ff ff       	call   2909 <add_token>
    39c8:	e9 bd 10 00 00       	jmp    4a8a <LEXER+0x17fe>
    39cd:	e8 d0 f0 ff ff       	call   2aa2 <DEBUG_PRINT_TOKENS>
    39d2:	8b 15 b0 bc 00 00    	mov    edx,DWORD PTR [rip+0xbcb0]        # f688 <line>
    39d8:	48 8b 05 81 bc 00 00 	mov    rax,QWORD PTR [rip+0xbc81]        # f660 <stderr@GLIBC_2.2.5>
    39df:	48 8d 0d 2a 8b 00 00 	lea    rcx,[rip+0x8b2a]        # c510 <_IO_stdin_used+0x510>
    39e6:	48 89 ce             	mov    rsi,rcx
    39e9:	48 89 c7             	mov    rdi,rax
    39ec:	b8 00 00 00 00       	mov    eax,0x0
    39f1:	e8 0a e7 ff ff       	call   2100 <fprintf@plt>
    39f6:	bf 01 00 00 00       	mov    edi,0x1
    39fb:	e8 60 e7 ff ff       	call   2160 <exit@plt>
    3a00:	48 8b 45 f0          	mov    rax,QWORD PTR [rbp-0x10]
    3a04:	0f b6 00             	movzx  eax,BYTE PTR [rax]
    3a07:	3c 2e                	cmp    al,0x2e
    3a09:	0f 85 ae 02 00 00    	jne    3cbd <LEXER+0xa31>
    3a0f:	48 83 45 f0 01       	add    QWORD PTR [rbp-0x10],0x1
    3a14:	48 c7 85 80 fa ff ff 	mov    QWORD PTR [rbp-0x580],0x0
    3a1b:	00 00 00 00 
    3a1f:	48 c7 85 88 fa ff ff 	mov    QWORD PTR [rbp-0x578],0x0
    3a26:	00 00 00 00 
    3a2a:	48 c7 85 90 fa ff ff 	mov    QWORD PTR [rbp-0x570],0x0
    3a31:	00 00 00 00 
    3a35:	48 c7 85 98 fa ff ff 	mov    QWORD PTR [rbp-0x568],0x0
    3a3c:	00 00 00 00 
    3a40:	48 c7 85 a0 fa ff ff 	mov    QWORD PTR [rbp-0x560],0x0
    3a47:	00 00 00 00 
    3a4b:	48 c7 85 a8 fa ff ff 	mov    QWORD PTR [rbp-0x558],0x0
    3a52:	00 00 00 00 
    3a56:	48 c7 85 b0 fa ff ff 	mov    QWORD PTR [rbp-0x550],0x0
    3a5d:	00 00 00 00 
    3a61:	48 c7 85 b8 fa ff ff 	mov    QWORD PTR [rbp-0x548],0x0
    3a68:	00 00 00 00 
    3a6c:	48 c7 85 c0 fa ff ff 	mov    QWORD PTR [rbp-0x540],0x0
    3a73:	00 00 00 00 
    3a77:	48 c7 85 c8 fa ff ff 	mov    QWORD PTR [rbp-0x538],0x0
    3a7e:	00 00 00 00 
    3a82:	48 c7 85 d0 fa ff ff 	mov    QWORD PTR [rbp-0x530],0x0
    3a89:	00 00 00 00 
    3a8d:	48 c7 85 d8 fa ff ff 	mov    QWORD PTR [rbp-0x528],0x0
    3a94:	00 00 00 00 
    3a98:	48 c7 85 e0 fa ff ff 	mov    QWORD PTR [rbp-0x520],0x0
    3a9f:	00 00 00 00 
    3aa3:	48 c7 85 e8 fa ff ff 	mov    QWORD PTR [rbp-0x518],0x0
    3aaa:	00 00 00 00 
    3aae:	48 c7 85 f0 fa ff ff 	mov    QWORD PTR [rbp-0x510],0x0
    3ab5:	00 00 00 00 
    3ab9:	48 c7 85 f8 fa ff ff 	mov    QWORD PTR [rbp-0x508],0x0
    3ac0:	00 00 00 00 
    3ac4:	48 c7 85 00 fb ff ff 	mov    QWORD PTR [rbp-0x500],0x0
    3acb:	00 00 00 00 
    3acf:	48 c7 85 08 fb ff ff 	mov    QWORD PTR [rbp-0x4f8],0x0
    3ad6:	00 00 00 00 
    3ada:	48 c7 85 10 fb ff ff 	mov    QWORD PTR [rbp-0x4f0],0x0
    3ae1:	00 00 00 00 
    3ae5:	48 c7 85 18 fb ff ff 	mov    QWORD PTR [rbp-0x4e8],0x0
    3aec:	00 00 00 00 
    3af0:	48 c7 85 20 fb ff ff 	mov    QWORD PTR [rbp-0x4e0],0x0
    3af7:	00 00 00 00 
    3afb:	48 c7 85 28 fb ff ff 	mov    QWORD PTR [rbp-0x4d8],0x0
    3b02:	00 00 00 00 
    3b06:	48 c7 85 30 fb ff ff 	mov    QWORD PTR [rbp-0x4d0],0x0
    3b0d:	00 00 00 00 
    3b11:	48 c7 85 38 fb ff ff 	mov    QWORD PTR [rbp-0x4c8],0x0
    3b18:	00 00 00 00 
    3b1c:	48 c7 85 40 fb ff ff 	mov    QWORD PTR [rbp-0x4c0],0x0
    3b23:	00 00 00 00 
    3b27:	48 c7 85 48 fb ff ff 	mov    QWORD PTR [rbp-0x4b8],0x0
    3b2e:	00 00 00 00 
    3b32:	48 c7 85 50 fb ff ff 	mov    QWORD PTR [rbp-0x4b0],0x0
    3b39:	00 00 00 00 
    3b3d:	48 c7 85 58 fb ff ff 	mov    QWORD PTR [rbp-0x4a8],0x0
    3b44:	00 00 00 00 
    3b48:	48 c7 85 60 fb ff ff 	mov    QWORD PTR [rbp-0x4a0],0x0
    3b4f:	00 00 00 00 
    3b53:	48 c7 85 68 fb ff ff 	mov    QWORD PTR [rbp-0x498],0x0
    3b5a:	00 00 00 00 
    3b5e:	48 c7 85 70 fb ff ff 	mov    QWORD PTR [rbp-0x490],0x0
    3b65:	00 00 00 00 
    3b69:	48 c7 85 78 fb ff ff 	mov    QWORD PTR [rbp-0x488],0x0
    3b70:	00 00 00 00 
    3b74:	c7 45 e4 00 00 00 00 	mov    DWORD PTR [rbp-0x1c],0x0
    3b7b:	eb 22                	jmp    3b9f <LEXER+0x913>
    3b7d:	48 8b 45 f0          	mov    rax,QWORD PTR [rbp-0x10]
    3b81:	48 8d 50 01          	lea    rdx,[rax+0x1]
    3b85:	48 89 55 f0          	mov    QWORD PTR [rbp-0x10],rdx
    3b89:	8b 55 e4             	mov    edx,DWORD PTR [rbp-0x1c]
    3b8c:	8d 4a 01             	lea    ecx,[rdx+0x1]
    3b8f:	89 4d e4             	mov    DWORD PTR [rbp-0x1c],ecx
    3b92:	0f b6 08             	movzx  ecx,BYTE PTR [rax]
    3b95:	48 63 c2             	movsxd rax,edx
    3b98:	88 8c 05 80 fa ff ff 	mov    BYTE PTR [rbp+rax*1-0x580],cl
    3b9f:	48 8b 45 f0          	mov    rax,QWORD PTR [rbp-0x10]
    3ba3:	0f b6 00             	movzx  eax,BYTE PTR [rax]
    3ba6:	0f be d0             	movsx  edx,al
    3ba9:	48 8b 05 50 b7 00 00 	mov    rax,QWORD PTR [rip+0xb750]        # f300 <LETEXT>
    3bb0:	89 d6                	mov    esi,edx
    3bb2:	48 89 c7             	mov    rdi,rax
    3bb5:	e8 df e6 ff ff       	call   2299 <isin>
    3bba:	85 c0                	test   eax,eax
    3bbc:	75 bf                	jne    3b7d <LEXER+0x8f1>
    3bbe:	48 c7 85 80 fb ff ff 	mov    QWORD PTR [rbp-0x480],0x0
    3bc5:	00 00 00 00 
    3bc9:	48 c7 85 88 fb ff ff 	mov    QWORD PTR [rbp-0x478],0x0
    3bd0:	00 00 00 00 
    3bd4:	48 8d 95 90 fb ff ff 	lea    rdx,[rbp-0x470]
    3bdb:	b8 00 00 00 00       	mov    eax,0x0
    3be0:	b9 3e 00 00 00       	mov    ecx,0x3e
    3be5:	48 89 d7             	mov    rdi,rdx
    3be8:	f3 48 ab             	rep stos QWORD PTR es:[rdi],rax
    3beb:	0f b6 85 c0 fe ff ff 	movzx  eax,BYTE PTR [rbp-0x140]
    3bf2:	84 c0                	test   al,al
    3bf4:	75 2e                	jne    3c24 <LEXER+0x998>
    3bf6:	8b 15 8c ba 00 00    	mov    edx,DWORD PTR [rip+0xba8c]        # f688 <line>
    3bfc:	48 8b 05 5d ba 00 00 	mov    rax,QWORD PTR [rip+0xba5d]        # f660 <stderr@GLIBC_2.2.5>
    3c03:	48 8d 0d 36 89 00 00 	lea    rcx,[rip+0x8936]        # c540 <_IO_stdin_used+0x540>
    3c0a:	48 89 ce             	mov    rsi,rcx
    3c0d:	48 89 c7             	mov    rdi,rax
    3c10:	b8 00 00 00 00       	mov    eax,0x0
    3c15:	e8 e6 e4 ff ff       	call   2100 <fprintf@plt>
    3c1a:	bf 01 00 00 00       	mov    edi,0x1
    3c1f:	e8 3c e5 ff ff       	call   2160 <exit@plt>
    3c24:	48 8d 8d 80 fa ff ff 	lea    rcx,[rbp-0x580]
    3c2b:	48 8d 85 b0 fd ff ff 	lea    rax,[rbp-0x250]
    3c32:	48 8d 90 10 01 00 00 	lea    rdx,[rax+0x110]
    3c39:	48 8d 85 80 fb ff ff 	lea    rax,[rbp-0x480]
    3c40:	49 89 c8             	mov    r8,rcx
    3c43:	48 89 d1             	mov    rcx,rdx
    3c46:	48 8d 15 2f 89 00 00 	lea    rdx,[rip+0x892f]        # c57c <_IO_stdin_used+0x57c>
    3c4d:	be 00 02 00 00       	mov    esi,0x200
    3c52:	48 89 c7             	mov    rdi,rax
    3c55:	b8 00 00 00 00       	mov    eax,0x0
    3c5a:	e8 51 e4 ff ff       	call   20b0 <snprintf@plt>
    3c5f:	48 8b 45 f0          	mov    rax,QWORD PTR [rbp-0x10]
    3c63:	0f b6 00             	movzx  eax,BYTE PTR [rax]
    3c66:	3c 3a                	cmp    al,0x3a
    3c68:	75 25                	jne    3c8f <LEXER+0xa03>
    3c6a:	48 83 45 f0 01       	add    QWORD PTR [rbp-0x10],0x1
    3c6f:	8b 15 13 ba 00 00    	mov    edx,DWORD PTR [rip+0xba13]        # f688 <line>
    3c75:	48 8d 85 80 fb ff ff 	lea    rax,[rbp-0x480]
    3c7c:	48 89 c6             	mov    rsi,rax
    3c7f:	bf 02 00 00 00       	mov    edi,0x2
    3c84:	e8 80 ec ff ff       	call   2909 <add_token>
    3c89:	90                   	nop
    3c8a:	e9 fb 0d 00 00       	jmp    4a8a <LEXER+0x17fe>
    3c8f:	8b 15 f3 b9 00 00    	mov    edx,DWORD PTR [rip+0xb9f3]        # f688 <line>
    3c95:	48 8b 05 c4 b9 00 00 	mov    rax,QWORD PTR [rip+0xb9c4]        # f660 <stderr@GLIBC_2.2.5>
    3c9c:	48 8d 0d e5 88 00 00 	lea    rcx,[rip+0x88e5]        # c588 <_IO_stdin_used+0x588>
    3ca3:	48 89 ce             	mov    rsi,rcx
    3ca6:	48 89 c7             	mov    rdi,rax
    3ca9:	b8 00 00 00 00       	mov    eax,0x0
    3cae:	e8 4d e4 ff ff       	call   2100 <fprintf@plt>
    3cb3:	bf 01 00 00 00       	mov    edi,0x1
    3cb8:	e8 a3 e4 ff ff       	call   2160 <exit@plt>
    3cbd:	48 8b 45 f0          	mov    rax,QWORD PTR [rbp-0x10]
    3cc1:	0f b6 00             	movzx  eax,BYTE PTR [rax]
    3cc4:	3c 25                	cmp    al,0x25
    3cc6:	0f 85 14 02 00 00    	jne    3ee0 <LEXER+0xc54>
    3ccc:	48 83 45 f0 01       	add    QWORD PTR [rbp-0x10],0x1
    3cd1:	c7 45 e0 00 00 00 00 	mov    DWORD PTR [rbp-0x20],0x0
    3cd8:	eb 22                	jmp    3cfc <LEXER+0xa70>
    3cda:	48 8b 45 f0          	mov    rax,QWORD PTR [rbp-0x10]
    3cde:	48 8d 50 01          	lea    rdx,[rax+0x1]
    3ce2:	48 89 55 f0          	mov    QWORD PTR [rbp-0x10],rdx
    3ce6:	8b 55 e0             	mov    edx,DWORD PTR [rbp-0x20]
    3ce9:	8d 4a 01             	lea    ecx,[rdx+0x1]
    3cec:	89 4d e0             	mov    DWORD PTR [rbp-0x20],ecx
    3cef:	0f b6 08             	movzx  ecx,BYTE PTR [rax]
    3cf2:	48 63 c2             	movsxd rax,edx
    3cf5:	88 8c 05 9a fd ff ff 	mov    BYTE PTR [rbp+rax*1-0x266],cl
    3cfc:	e8 8f e4 ff ff       	call   2190 <__ctype_b_loc@plt>
    3d01:	48 8b 10             	mov    rdx,QWORD PTR [rax]
    3d04:	48 8b 45 f0          	mov    rax,QWORD PTR [rbp-0x10]
    3d08:	0f b6 00             	movzx  eax,BYTE PTR [rax]
    3d0b:	48 0f be c0          	movsx  rax,al
    3d0f:	48 01 c0             	add    rax,rax
    3d12:	48 01 d0             	add    rax,rdx
    3d15:	0f b7 00             	movzx  eax,WORD PTR [rax]
    3d18:	0f b7 c0             	movzx  eax,ax
    3d1b:	25 00 20 00 00       	and    eax,0x2000
    3d20:	85 c0                	test   eax,eax
    3d22:	75 16                	jne    3d3a <LEXER+0xaae>
    3d24:	48 8b 45 f0          	mov    rax,QWORD PTR [rbp-0x10]
    3d28:	0f b6 00             	movzx  eax,BYTE PTR [rax]
    3d2b:	84 c0                	test   al,al
    3d2d:	74 0b                	je     3d3a <LEXER+0xaae>
    3d2f:	48 8b 45 f0          	mov    rax,QWORD PTR [rbp-0x10]
    3d33:	0f b6 00             	movzx  eax,BYTE PTR [rax]
    3d36:	3c 2c                	cmp    al,0x2c
    3d38:	75 a0                	jne    3cda <LEXER+0xa4e>
    3d3a:	8b 45 e0             	mov    eax,DWORD PTR [rbp-0x20]
    3d3d:	48 98                	cdqe
    3d3f:	c6 84 05 9a fd ff ff 	mov    BYTE PTR [rbp+rax*1-0x266],0x0
    3d46:	00 
    3d47:	48 8d 85 9a fd ff ff 	lea    rax,[rbp-0x266]
    3d4e:	48 89 c6             	mov    rsi,rax
    3d51:	48 8d 05 e8 b5 00 00 	lea    rax,[rip+0xb5e8]        # f340 <regs8>
    3d58:	48 89 c7             	mov    rdi,rax
    3d5b:	e8 8a e5 ff ff       	call   22ea <is2arrin>
    3d60:	85 c0                	test   eax,eax
    3d62:	75 1d                	jne    3d81 <LEXER+0xaf5>
    3d64:	48 8d 85 9a fd ff ff 	lea    rax,[rbp-0x266]
    3d6b:	48 89 c6             	mov    rsi,rax
    3d6e:	48 8d 05 2b b6 00 00 	lea    rax,[rip+0xb62b]        # f3a0 <regs8GP>
    3d75:	48 89 c7             	mov    rdi,rax
    3d78:	e8 6d e5 ff ff       	call   22ea <is2arrin>
    3d7d:	85 c0                	test   eax,eax
    3d7f:	74 1f                	je     3da0 <LEXER+0xb14>
    3d81:	8b 15 01 b9 00 00    	mov    edx,DWORD PTR [rip+0xb901]        # f688 <line>
    3d87:	48 8d 85 9a fd ff ff 	lea    rax,[rbp-0x266]
    3d8e:	48 89 c6             	mov    rsi,rax
    3d91:	bf 03 00 00 00       	mov    edi,0x3
    3d96:	e8 6e eb ff ff       	call   2909 <add_token>
    3d9b:	e9 3a 01 00 00       	jmp    3eda <LEXER+0xc4e>
    3da0:	48 8d 85 9a fd ff ff 	lea    rax,[rbp-0x266]
    3da7:	48 89 c6             	mov    rsi,rax
    3daa:	48 8d 05 4f b6 00 00 	lea    rax,[rip+0xb64f]        # f400 <regs16>
    3db1:	48 89 c7             	mov    rdi,rax
    3db4:	e8 31 e5 ff ff       	call   22ea <is2arrin>
    3db9:	85 c0                	test   eax,eax
    3dbb:	75 1d                	jne    3dda <LEXER+0xb4e>
    3dbd:	48 8d 85 9a fd ff ff 	lea    rax,[rbp-0x266]
    3dc4:	48 89 c6             	mov    rsi,rax
    3dc7:	48 8d 05 92 b6 00 00 	lea    rax,[rip+0xb692]        # f460 <regs16GP>
    3dce:	48 89 c7             	mov    rdi,rax
    3dd1:	e8 14 e5 ff ff       	call   22ea <is2arrin>
    3dd6:	85 c0                	test   eax,eax
    3dd8:	74 1f                	je     3df9 <LEXER+0xb6d>
    3dda:	8b 15 a8 b8 00 00    	mov    edx,DWORD PTR [rip+0xb8a8]        # f688 <line>
    3de0:	48 8d 85 9a fd ff ff 	lea    rax,[rbp-0x266]
    3de7:	48 89 c6             	mov    rsi,rax
    3dea:	bf 04 00 00 00       	mov    edi,0x4
    3def:	e8 15 eb ff ff       	call   2909 <add_token>
    3df4:	e9 e1 00 00 00       	jmp    3eda <LEXER+0xc4e>
    3df9:	48 8d 85 9a fd ff ff 	lea    rax,[rbp-0x266]
    3e00:	48 89 c6             	mov    rsi,rax
    3e03:	48 8d 05 b6 b6 00 00 	lea    rax,[rip+0xb6b6]        # f4c0 <regs32>
    3e0a:	48 89 c7             	mov    rdi,rax
    3e0d:	e8 d8 e4 ff ff       	call   22ea <is2arrin>
    3e12:	85 c0                	test   eax,eax
    3e14:	75 1d                	jne    3e33 <LEXER+0xba7>
    3e16:	48 8d 85 9a fd ff ff 	lea    rax,[rbp-0x266]
    3e1d:	48 89 c6             	mov    rsi,rax
    3e20:	48 8d 05 f9 b6 00 00 	lea    rax,[rip+0xb6f9]        # f520 <regs32GP>
    3e27:	48 89 c7             	mov    rdi,rax
    3e2a:	e8 bb e4 ff ff       	call   22ea <is2arrin>
    3e2f:	85 c0                	test   eax,eax
    3e31:	74 1f                	je     3e52 <LEXER+0xbc6>
    3e33:	8b 15 4f b8 00 00    	mov    edx,DWORD PTR [rip+0xb84f]        # f688 <line>
    3e39:	48 8d 85 9a fd ff ff 	lea    rax,[rbp-0x266]
    3e40:	48 89 c6             	mov    rsi,rax
    3e43:	bf 05 00 00 00       	mov    edi,0x5
    3e48:	e8 bc ea ff ff       	call   2909 <add_token>
    3e4d:	e9 88 00 00 00       	jmp    3eda <LEXER+0xc4e>
    3e52:	48 8d 85 9a fd ff ff 	lea    rax,[rbp-0x266]
    3e59:	48 89 c6             	mov    rsi,rax
    3e5c:	48 8d 05 1d b7 00 00 	lea    rax,[rip+0xb71d]        # f580 <regs64>
    3e63:	48 89 c7             	mov    rdi,rax
    3e66:	e8 7f e4 ff ff       	call   22ea <is2arrin>
    3e6b:	85 c0                	test   eax,eax
    3e6d:	75 1d                	jne    3e8c <LEXER+0xc00>
    3e6f:	48 8d 85 9a fd ff ff 	lea    rax,[rbp-0x266]
    3e76:	48 89 c6             	mov    rsi,rax
    3e79:	48 8d 05 60 b7 00 00 	lea    rax,[rip+0xb760]        # f5e0 <regs64GP>
    3e80:	48 89 c7             	mov    rdi,rax
    3e83:	e8 62 e4 ff ff       	call   22ea <is2arrin>
    3e88:	85 c0                	test   eax,eax
    3e8a:	74 1c                	je     3ea8 <LEXER+0xc1c>
    3e8c:	8b 15 f6 b7 00 00    	mov    edx,DWORD PTR [rip+0xb7f6]        # f688 <line>
    3e92:	48 8d 85 9a fd ff ff 	lea    rax,[rbp-0x266]
    3e99:	48 89 c6             	mov    rsi,rax
    3e9c:	bf 06 00 00 00       	mov    edi,0x6
    3ea1:	e8 63 ea ff ff       	call   2909 <add_token>
    3ea6:	eb 32                	jmp    3eda <LEXER+0xc4e>
    3ea8:	8b 0d da b7 00 00    	mov    ecx,DWORD PTR [rip+0xb7da]        # f688 <line>
    3eae:	48 8b 05 ab b7 00 00 	mov    rax,QWORD PTR [rip+0xb7ab]        # f660 <stderr@GLIBC_2.2.5>
    3eb5:	48 8d 95 9a fd ff ff 	lea    rdx,[rbp-0x266]
    3ebc:	48 8d 35 f5 86 00 00 	lea    rsi,[rip+0x86f5]        # c5b8 <_IO_stdin_used+0x5b8>
    3ec3:	48 89 c7             	mov    rdi,rax
    3ec6:	b8 00 00 00 00       	mov    eax,0x0
    3ecb:	e8 30 e2 ff ff       	call   2100 <fprintf@plt>
    3ed0:	bf 01 00 00 00       	mov    edi,0x1
    3ed5:	e8 86 e2 ff ff       	call   2160 <exit@plt>
    3eda:	90                   	nop
    3edb:	e9 aa 0b 00 00       	jmp    4a8a <LEXER+0x17fe>
    3ee0:	e8 ab e2 ff ff       	call   2190 <__ctype_b_loc@plt>
    3ee5:	48 8b 10             	mov    rdx,QWORD PTR [rax]
    3ee8:	48 8b 45 f0          	mov    rax,QWORD PTR [rbp-0x10]
    3eec:	0f b6 00             	movzx  eax,BYTE PTR [rax]
    3eef:	48 0f be c0          	movsx  rax,al
    3ef3:	48 01 c0             	add    rax,rax
    3ef6:	48 01 d0             	add    rax,rdx
    3ef9:	0f b7 00             	movzx  eax,WORD PTR [rax]
    3efc:	0f b7 c0             	movzx  eax,ax
    3eff:	25 00 08 00 00       	and    eax,0x800
    3f04:	85 c0                	test   eax,eax
    3f06:	75 0f                	jne    3f17 <LEXER+0xc8b>
    3f08:	48 8b 45 f0          	mov    rax,QWORD PTR [rbp-0x10]
    3f0c:	0f b6 00             	movzx  eax,BYTE PTR [rax]
    3f0f:	3c 2d                	cmp    al,0x2d
    3f11:	0f 85 69 02 00 00    	jne    4180 <LEXER+0xef4>
    3f17:	48 c7 85 80 fb ff ff 	mov    QWORD PTR [rbp-0x480],0x0
    3f1e:	00 00 00 00 
    3f22:	48 c7 85 88 fb ff ff 	mov    QWORD PTR [rbp-0x478],0x0
    3f29:	00 00 00 00 
    3f2d:	48 c7 85 90 fb ff ff 	mov    QWORD PTR [rbp-0x470],0x0
    3f34:	00 00 00 00 
    3f38:	48 c7 85 98 fb ff ff 	mov    QWORD PTR [rbp-0x468],0x0
    3f3f:	00 00 00 00 
    3f43:	48 c7 85 a0 fb ff ff 	mov    QWORD PTR [rbp-0x460],0x0
    3f4a:	00 00 00 00 
    3f4e:	48 c7 85 a8 fb ff ff 	mov    QWORD PTR [rbp-0x458],0x0
    3f55:	00 00 00 00 
    3f59:	48 c7 85 b0 fb ff ff 	mov    QWORD PTR [rbp-0x450],0x0
    3f60:	00 00 00 00 
    3f64:	48 c7 85 b8 fb ff ff 	mov    QWORD PTR [rbp-0x448],0x0
    3f6b:	00 00 00 00 
    3f6f:	48 c7 85 c0 fb ff ff 	mov    QWORD PTR [rbp-0x440],0x0
    3f76:	00 00 00 00 
    3f7a:	48 c7 85 c8 fb ff ff 	mov    QWORD PTR [rbp-0x438],0x0
    3f81:	00 00 00 00 
    3f85:	48 c7 85 d0 fb ff ff 	mov    QWORD PTR [rbp-0x430],0x0
    3f8c:	00 00 00 00 
    3f90:	48 c7 85 d8 fb ff ff 	mov    QWORD PTR [rbp-0x428],0x0
    3f97:	00 00 00 00 
    3f9b:	48 c7 85 e0 fb ff ff 	mov    QWORD PTR [rbp-0x420],0x0
    3fa2:	00 00 00 00 
    3fa6:	48 c7 85 e8 fb ff ff 	mov    QWORD PTR [rbp-0x418],0x0
    3fad:	00 00 00 00 
    3fb1:	48 c7 85 f0 fb ff ff 	mov    QWORD PTR [rbp-0x410],0x0
    3fb8:	00 00 00 00 
    3fbc:	48 c7 85 f8 fb ff ff 	mov    QWORD PTR [rbp-0x408],0x0
    3fc3:	00 00 00 00 
    3fc7:	c7 45 dc 00 00 00 00 	mov    DWORD PTR [rbp-0x24],0x0
    3fce:	eb 24                	jmp    3ff4 <LEXER+0xd68>
    3fd0:	83 7d dc 7e          	cmp    DWORD PTR [rbp-0x24],0x7e
    3fd4:	7f 19                	jg     3fef <LEXER+0xd63>
    3fd6:	8b 45 dc             	mov    eax,DWORD PTR [rbp-0x24]
    3fd9:	8d 50 01             	lea    edx,[rax+0x1]
    3fdc:	89 55 dc             	mov    DWORD PTR [rbp-0x24],edx
    3fdf:	48 8b 55 f0          	mov    rdx,QWORD PTR [rbp-0x10]
    3fe3:	0f b6 12             	movzx  edx,BYTE PTR [rdx]
    3fe6:	48 98                	cdqe
    3fe8:	88 94 05 80 fb ff ff 	mov    BYTE PTR [rbp+rax*1-0x480],dl
    3fef:	48 83 45 f0 01       	add    QWORD PTR [rbp-0x10],0x1
    3ff4:	48 8b 45 f0          	mov    rax,QWORD PTR [rbp-0x10]
    3ff8:	0f b6 00             	movzx  eax,BYTE PTR [rax]
    3ffb:	84 c0                	test   al,al
    3ffd:	0f 84 16 01 00 00    	je     4119 <LEXER+0xe8d>
    4003:	e8 88 e1 ff ff       	call   2190 <__ctype_b_loc@plt>
    4008:	48 8b 10             	mov    rdx,QWORD PTR [rax]
    400b:	48 8b 45 f0          	mov    rax,QWORD PTR [rbp-0x10]
    400f:	0f b6 00             	movzx  eax,BYTE PTR [rax]
    4012:	48 0f be c0          	movsx  rax,al
    4016:	48 01 c0             	add    rax,rax
    4019:	48 01 d0             	add    rax,rdx
    401c:	0f b7 00             	movzx  eax,WORD PTR [rax]
    401f:	0f b7 c0             	movzx  eax,ax
    4022:	25 00 08 00 00       	and    eax,0x800
    4027:	85 c0                	test   eax,eax
    4029:	75 a5                	jne    3fd0 <LEXER+0xd44>
    402b:	e8 60 e1 ff ff       	call   2190 <__ctype_b_loc@plt>
    4030:	48 8b 10             	mov    rdx,QWORD PTR [rax]
    4033:	48 8b 45 f0          	mov    rax,QWORD PTR [rbp-0x10]
    4037:	0f b6 00             	movzx  eax,BYTE PTR [rax]
    403a:	48 0f be c0          	movsx  rax,al
    403e:	48 01 c0             	add    rax,rax
    4041:	48 01 d0             	add    rax,rdx
    4044:	0f b7 00             	movzx  eax,WORD PTR [rax]
    4047:	0f b7 c0             	movzx  eax,ax
    404a:	25 00 10 00 00       	and    eax,0x1000
    404f:	85 c0                	test   eax,eax
    4051:	0f 85 79 ff ff ff    	jne    3fd0 <LEXER+0xd44>
    4057:	48 8b 45 f0          	mov    rax,QWORD PTR [rbp-0x10]
    405b:	0f b6 00             	movzx  eax,BYTE PTR [rax]
    405e:	3c 2b                	cmp    al,0x2b
    4060:	0f 84 6a ff ff ff    	je     3fd0 <LEXER+0xd44>
    4066:	48 8b 45 f0          	mov    rax,QWORD PTR [rbp-0x10]
    406a:	0f b6 00             	movzx  eax,BYTE PTR [rax]
    406d:	3c 2d                	cmp    al,0x2d
    406f:	0f 84 5b ff ff ff    	je     3fd0 <LEXER+0xd44>
    4075:	48 8b 45 f0          	mov    rax,QWORD PTR [rbp-0x10]
    4079:	0f b6 00             	movzx  eax,BYTE PTR [rax]
    407c:	3c 2a                	cmp    al,0x2a
    407e:	0f 84 4c ff ff ff    	je     3fd0 <LEXER+0xd44>
    4084:	48 8b 45 f0          	mov    rax,QWORD PTR [rbp-0x10]
    4088:	0f b6 00             	movzx  eax,BYTE PTR [rax]
    408b:	3c 2f                	cmp    al,0x2f
    408d:	0f 84 3d ff ff ff    	je     3fd0 <LEXER+0xd44>
    4093:	48 8b 45 f0          	mov    rax,QWORD PTR [rbp-0x10]
    4097:	0f b6 00             	movzx  eax,BYTE PTR [rax]
    409a:	3c 78                	cmp    al,0x78
    409c:	0f 84 2e ff ff ff    	je     3fd0 <LEXER+0xd44>
    40a2:	48 8b 45 f0          	mov    rax,QWORD PTR [rbp-0x10]
    40a6:	0f b6 00             	movzx  eax,BYTE PTR [rax]
    40a9:	3c 58                	cmp    al,0x58
    40ab:	0f 84 1f ff ff ff    	je     3fd0 <LEXER+0xd44>
    40b1:	48 8b 45 f0          	mov    rax,QWORD PTR [rbp-0x10]
    40b5:	0f b6 00             	movzx  eax,BYTE PTR [rax]
    40b8:	3c 6f                	cmp    al,0x6f
    40ba:	0f 84 10 ff ff ff    	je     3fd0 <LEXER+0xd44>
    40c0:	48 8b 45 f0          	mov    rax,QWORD PTR [rbp-0x10]
    40c4:	0f b6 00             	movzx  eax,BYTE PTR [rax]
    40c7:	3c 4f                	cmp    al,0x4f
    40c9:	0f 84 01 ff ff ff    	je     3fd0 <LEXER+0xd44>
    40cf:	48 8b 45 f0          	mov    rax,QWORD PTR [rbp-0x10]
    40d3:	0f b6 00             	movzx  eax,BYTE PTR [rax]
    40d6:	3c 62                	cmp    al,0x62
    40d8:	0f 84 f2 fe ff ff    	je     3fd0 <LEXER+0xd44>
    40de:	48 8b 45 f0          	mov    rax,QWORD PTR [rbp-0x10]
    40e2:	0f b6 00             	movzx  eax,BYTE PTR [rax]
    40e5:	3c 42                	cmp    al,0x42
    40e7:	0f 84 e3 fe ff ff    	je     3fd0 <LEXER+0xd44>
    40ed:	e8 9e e0 ff ff       	call   2190 <__ctype_b_loc@plt>
    40f2:	48 8b 10             	mov    rdx,QWORD PTR [rax]
    40f5:	48 8b 45 f0          	mov    rax,QWORD PTR [rbp-0x10]
    40f9:	0f b6 00             	movzx  eax,BYTE PTR [rax]
    40fc:	48 0f be c0          	movsx  rax,al
    4100:	48 01 c0             	add    rax,rax
    4103:	48 01 d0             	add    rax,rdx
    4106:	0f b7 00             	movzx  eax,WORD PTR [rax]
    4109:	0f b7 c0             	movzx  eax,ax
    410c:	25 00 20 00 00       	and    eax,0x2000
    4111:	85 c0                	test   eax,eax
    4113:	0f 85 b7 fe ff ff    	jne    3fd0 <LEXER+0xd44>
    4119:	8b 45 dc             	mov    eax,DWORD PTR [rbp-0x24]
    411c:	48 98                	cdqe
    411e:	c6 84 05 80 fb ff ff 	mov    BYTE PTR [rbp+rax*1-0x480],0x0
    4125:	00 
    4126:	48 8d 85 80 fb ff ff 	lea    rax,[rbp-0x480]
    412d:	48 89 c7             	mov    rdi,rax
    4130:	e8 b6 e7 ff ff       	call   28eb <eval_expr>
    4135:	48 89 45 c0          	mov    QWORD PTR [rbp-0x40],rax
    4139:	48 8b 55 c0          	mov    rdx,QWORD PTR [rbp-0x40]
    413d:	48 8d 85 80 fa ff ff 	lea    rax,[rbp-0x580]
    4144:	48 89 d1             	mov    rcx,rdx
    4147:	48 8d 15 92 84 00 00 	lea    rdx,[rip+0x8492]        # c5e0 <_IO_stdin_used+0x5e0>
    414e:	be 20 00 00 00       	mov    esi,0x20
    4153:	48 89 c7             	mov    rdi,rax
    4156:	b8 00 00 00 00       	mov    eax,0x0
    415b:	e8 50 df ff ff       	call   20b0 <snprintf@plt>
    4160:	8b 15 22 b5 00 00    	mov    edx,DWORD PTR [rip+0xb522]        # f688 <line>
    4166:	48 8d 85 80 fa ff ff 	lea    rax,[rbp-0x580]
    416d:	48 89 c6             	mov    rsi,rax
    4170:	bf 01 00 00 00       	mov    edi,0x1
    4175:	e8 8f e7 ff ff       	call   2909 <add_token>
    417a:	90                   	nop
    417b:	e9 0a 09 00 00       	jmp    4a8a <LEXER+0x17fe>
    4180:	48 8b 45 f0          	mov    rax,QWORD PTR [rbp-0x10]
    4184:	0f b6 00             	movzx  eax,BYTE PTR [rax]
    4187:	3c 22                	cmp    al,0x22
    4189:	0f 85 e3 01 00 00    	jne    4372 <LEXER+0x10e6>
    418f:	48 83 45 f0 01       	add    QWORD PTR [rbp-0x10],0x1
    4194:	48 c7 85 80 fb ff ff 	mov    QWORD PTR [rbp-0x480],0x0
    419b:	00 00 00 00 
    419f:	48 c7 85 88 fb ff ff 	mov    QWORD PTR [rbp-0x478],0x0
    41a6:	00 00 00 00 
    41aa:	48 c7 85 90 fb ff ff 	mov    QWORD PTR [rbp-0x470],0x0
    41b1:	00 00 00 00 
    41b5:	48 c7 85 98 fb ff ff 	mov    QWORD PTR [rbp-0x468],0x0
    41bc:	00 00 00 00 
    41c0:	48 c7 85 a0 fb ff ff 	mov    QWORD PTR [rbp-0x460],0x0
    41c7:	00 00 00 00 
    41cb:	48 c7 85 a8 fb ff ff 	mov    QWORD PTR [rbp-0x458],0x0
    41d2:	00 00 00 00 
    41d6:	48 c7 85 b0 fb ff ff 	mov    QWORD PTR [rbp-0x450],0x0
    41dd:	00 00 00 00 
    41e1:	48 c7 85 b8 fb ff ff 	mov    QWORD PTR [rbp-0x448],0x0
    41e8:	00 00 00 00 
    41ec:	48 c7 85 c0 fb ff ff 	mov    QWORD PTR [rbp-0x440],0x0
    41f3:	00 00 00 00 
    41f7:	48 c7 85 c8 fb ff ff 	mov    QWORD PTR [rbp-0x438],0x0
    41fe:	00 00 00 00 
    4202:	48 c7 85 d0 fb ff ff 	mov    QWORD PTR [rbp-0x430],0x0
    4209:	00 00 00 00 
    420d:	48 c7 85 d8 fb ff ff 	mov    QWORD PTR [rbp-0x428],0x0
    4214:	00 00 00 00 
    4218:	48 c7 85 e0 fb ff ff 	mov    QWORD PTR [rbp-0x420],0x0
    421f:	00 00 00 00 
    4223:	48 c7 85 e8 fb ff ff 	mov    QWORD PTR [rbp-0x418],0x0
    422a:	00 00 00 00 
    422e:	48 c7 85 f0 fb ff ff 	mov    QWORD PTR [rbp-0x410],0x0
    4235:	00 00 00 00 
    4239:	48 c7 85 f8 fb ff ff 	mov    QWORD PTR [rbp-0x408],0x0
    4240:	00 00 00 00 
    4244:	48 c7 85 00 fc ff ff 	mov    QWORD PTR [rbp-0x400],0x0
    424b:	00 00 00 00 
    424f:	48 c7 85 08 fc ff ff 	mov    QWORD PTR [rbp-0x3f8],0x0
    4256:	00 00 00 00 
    425a:	48 c7 85 10 fc ff ff 	mov    QWORD PTR [rbp-0x3f0],0x0
    4261:	00 00 00 00 
    4265:	48 c7 85 18 fc ff ff 	mov    QWORD PTR [rbp-0x3e8],0x0
    426c:	00 00 00 00 
    4270:	48 c7 85 20 fc ff ff 	mov    QWORD PTR [rbp-0x3e0],0x0
    4277:	00 00 00 00 
    427b:	48 c7 85 28 fc ff ff 	mov    QWORD PTR [rbp-0x3d8],0x0
    4282:	00 00 00 00 
    4286:	48 c7 85 30 fc ff ff 	mov    QWORD PTR [rbp-0x3d0],0x0
    428d:	00 00 00 00 
    4291:	48 c7 85 38 fc ff ff 	mov    QWORD PTR [rbp-0x3c8],0x0
    4298:	00 00 00 00 
    429c:	48 c7 85 40 fc ff ff 	mov    QWORD PTR [rbp-0x3c0],0x0
    42a3:	00 00 00 00 
    42a7:	48 c7 85 48 fc ff ff 	mov    QWORD PTR [rbp-0x3b8],0x0
    42ae:	00 00 00 00 
    42b2:	48 c7 85 50 fc ff ff 	mov    QWORD PTR [rbp-0x3b0],0x0
    42b9:	00 00 00 00 
    42bd:	48 c7 85 58 fc ff ff 	mov    QWORD PTR [rbp-0x3a8],0x0
    42c4:	00 00 00 00 
    42c8:	48 c7 85 60 fc ff ff 	mov    QWORD PTR [rbp-0x3a0],0x0
    42cf:	00 00 00 00 
    42d3:	48 c7 85 68 fc ff ff 	mov    QWORD PTR [rbp-0x398],0x0
    42da:	00 00 00 00 
    42de:	48 c7 85 70 fc ff ff 	mov    QWORD PTR [rbp-0x390],0x0
    42e5:	00 00 00 00 
    42e9:	48 c7 85 78 fc ff ff 	mov    QWORD PTR [rbp-0x388],0x0
    42f0:	00 00 00 00 
    42f4:	8b 15 8e b3 00 00    	mov    edx,DWORD PTR [rip+0xb38e]        # f688 <line>
    42fa:	48 8d 8d 80 fb ff ff 	lea    rcx,[rbp-0x480]
    4301:	48 8b 45 f0          	mov    rax,QWORD PTR [rbp-0x10]
    4305:	48 89 ce             	mov    rsi,rcx
    4308:	48 89 c7             	mov    rdi,rax
    430b:	e8 aa ec ff ff       	call   2fba <read_string>
    4310:	48 89 45 f0          	mov    QWORD PTR [rbp-0x10],rax
    4314:	48 8b 45 f0          	mov    rax,QWORD PTR [rbp-0x10]
    4318:	0f b6 00             	movzx  eax,BYTE PTR [rax]
    431b:	3c 22                	cmp    al,0x22
    431d:	74 2e                	je     434d <LEXER+0x10c1>
    431f:	8b 15 63 b3 00 00    	mov    edx,DWORD PTR [rip+0xb363]        # f688 <line>
    4325:	48 8b 05 34 b3 00 00 	mov    rax,QWORD PTR [rip+0xb334]        # f660 <stderr@GLIBC_2.2.5>
    432c:	48 8d 0d b5 82 00 00 	lea    rcx,[rip+0x82b5]        # c5e8 <_IO_stdin_used+0x5e8>
    4333:	48 89 ce             	mov    rsi,rcx
    4336:	48 89 c7             	mov    rdi,rax
    4339:	b8 00 00 00 00       	mov    eax,0x0
    433e:	e8 bd dd ff ff       	call   2100 <fprintf@plt>
    4343:	bf 01 00 00 00       	mov    edi,0x1
    4348:	e8 13 de ff ff       	call   2160 <exit@plt>
    434d:	48 83 45 f0 01       	add    QWORD PTR [rbp-0x10],0x1
    4352:	8b 15 30 b3 00 00    	mov    edx,DWORD PTR [rip+0xb330]        # f688 <line>
    4358:	48 8d 85 80 fb ff ff 	lea    rax,[rbp-0x480]
    435f:	48 89 c6             	mov    rsi,rax
    4362:	bf 0b 00 00 00       	mov    edi,0xb
    4367:	e8 9d e5 ff ff       	call   2909 <add_token>
    436c:	90                   	nop
    436d:	e9 18 07 00 00       	jmp    4a8a <LEXER+0x17fe>
    4372:	48 8b 45 f0          	mov    rax,QWORD PTR [rbp-0x10]
    4376:	0f b6 00             	movzx  eax,BYTE PTR [rax]
    4379:	3c 27                	cmp    al,0x27
    437b:	0f 85 41 01 00 00    	jne    44c2 <LEXER+0x1236>
    4381:	48 83 45 f0 01       	add    QWORD PTR [rbp-0x10],0x1
    4386:	48 8b 45 f0          	mov    rax,QWORD PTR [rbp-0x10]
    438a:	0f b6 00             	movzx  eax,BYTE PTR [rax]
    438d:	3c 5c                	cmp    al,0x5c
    438f:	0f 85 ac 00 00 00    	jne    4441 <LEXER+0x11b5>
    4395:	48 83 45 f0 01       	add    QWORD PTR [rbp-0x10],0x1
    439a:	48 8b 45 f0          	mov    rax,QWORD PTR [rbp-0x10]
    439e:	0f b6 00             	movzx  eax,BYTE PTR [rax]
    43a1:	0f be c0             	movsx  eax,al
    43a4:	83 f8 74             	cmp    eax,0x74
    43a7:	74 45                	je     43ee <LEXER+0x1162>
    43a9:	83 f8 74             	cmp    eax,0x74
    43ac:	7f 5e                	jg     440c <LEXER+0x1180>
    43ae:	83 f8 72             	cmp    eax,0x72
    43b1:	74 35                	je     43e8 <LEXER+0x115c>
    43b3:	83 f8 72             	cmp    eax,0x72
    43b6:	7f 54                	jg     440c <LEXER+0x1180>
    43b8:	83 f8 6e             	cmp    eax,0x6e
    43bb:	74 25                	je     43e2 <LEXER+0x1156>
    43bd:	83 f8 6e             	cmp    eax,0x6e
    43c0:	7f 4a                	jg     440c <LEXER+0x1180>
    43c2:	83 f8 5c             	cmp    eax,0x5c
    43c5:	74 33                	je     43fa <LEXER+0x116e>
    43c7:	83 f8 5c             	cmp    eax,0x5c
    43ca:	7f 40                	jg     440c <LEXER+0x1180>
    43cc:	83 f8 30             	cmp    eax,0x30
    43cf:	74 23                	je     43f4 <LEXER+0x1168>
    43d1:	83 f8 30             	cmp    eax,0x30
    43d4:	7f 36                	jg     440c <LEXER+0x1180>
    43d6:	83 f8 22             	cmp    eax,0x22
    43d9:	74 25                	je     4400 <LEXER+0x1174>
    43db:	83 f8 27             	cmp    eax,0x27
    43de:	74 26                	je     4406 <LEXER+0x117a>
    43e0:	eb 2a                	jmp    440c <LEXER+0x1180>
    43e2:	c6 45 db 0a          	mov    BYTE PTR [rbp-0x25],0xa
    43e6:	eb 52                	jmp    443a <LEXER+0x11ae>
    43e8:	c6 45 db 0d          	mov    BYTE PTR [rbp-0x25],0xd
    43ec:	eb 4c                	jmp    443a <LEXER+0x11ae>
    43ee:	c6 45 db 09          	mov    BYTE PTR [rbp-0x25],0x9
    43f2:	eb 46                	jmp    443a <LEXER+0x11ae>
    43f4:	c6 45 db 00          	mov    BYTE PTR [rbp-0x25],0x0
    43f8:	eb 40                	jmp    443a <LEXER+0x11ae>
    43fa:	c6 45 db 5c          	mov    BYTE PTR [rbp-0x25],0x5c
    43fe:	eb 3a                	jmp    443a <LEXER+0x11ae>
    4400:	c6 45 db 22          	mov    BYTE PTR [rbp-0x25],0x22
    4404:	eb 34                	jmp    443a <LEXER+0x11ae>
    4406:	c6 45 db 27          	mov    BYTE PTR [rbp-0x25],0x27
    440a:	eb 2e                	jmp    443a <LEXER+0x11ae>
    440c:	8b 15 76 b2 00 00    	mov    edx,DWORD PTR [rip+0xb276]        # f688 <line>
    4412:	48 8b 05 47 b2 00 00 	mov    rax,QWORD PTR [rip+0xb247]        # f660 <stderr@GLIBC_2.2.5>
    4419:	48 8d 0d f8 81 00 00 	lea    rcx,[rip+0x81f8]        # c618 <_IO_stdin_used+0x618>
    4420:	48 89 ce             	mov    rsi,rcx
    4423:	48 89 c7             	mov    rdi,rax
    4426:	b8 00 00 00 00       	mov    eax,0x0
    442b:	e8 d0 dc ff ff       	call   2100 <fprintf@plt>
    4430:	bf 01 00 00 00       	mov    edi,0x1
    4435:	e8 26 dd ff ff       	call   2160 <exit@plt>
    443a:	48 83 45 f0 01       	add    QWORD PTR [rbp-0x10],0x1
    443f:	eb 12                	jmp    4453 <LEXER+0x11c7>
    4441:	48 8b 45 f0          	mov    rax,QWORD PTR [rbp-0x10]
    4445:	48 8d 50 01          	lea    rdx,[rax+0x1]
    4449:	48 89 55 f0          	mov    QWORD PTR [rbp-0x10],rdx
    444d:	0f b6 00             	movzx  eax,BYTE PTR [rax]
    4450:	88 45 db             	mov    BYTE PTR [rbp-0x25],al
    4453:	48 8b 45 f0          	mov    rax,QWORD PTR [rbp-0x10]
    4457:	0f b6 00             	movzx  eax,BYTE PTR [rax]
    445a:	3c 27                	cmp    al,0x27
    445c:	74 2e                	je     448c <LEXER+0x1200>
    445e:	8b 15 24 b2 00 00    	mov    edx,DWORD PTR [rip+0xb224]        # f688 <line>
    4464:	48 8b 05 f5 b1 00 00 	mov    rax,QWORD PTR [rip+0xb1f5]        # f660 <stderr@GLIBC_2.2.5>
    446b:	48 8d 0d d6 81 00 00 	lea    rcx,[rip+0x81d6]        # c648 <_IO_stdin_used+0x648>
    4472:	48 89 ce             	mov    rsi,rcx
    4475:	48 89 c7             	mov    rdi,rax
    4478:	b8 00 00 00 00       	mov    eax,0x0
    447d:	e8 7e dc ff ff       	call   2100 <fprintf@plt>
    4482:	bf 01 00 00 00       	mov    edi,0x1
    4487:	e8 d4 dc ff ff       	call   2160 <exit@plt>
    448c:	48 83 45 f0 01       	add    QWORD PTR [rbp-0x10],0x1
    4491:	0f b6 45 db          	movzx  eax,BYTE PTR [rbp-0x25]
    4495:	88 85 98 fd ff ff    	mov    BYTE PTR [rbp-0x268],al
    449b:	c6 85 99 fd ff ff 00 	mov    BYTE PTR [rbp-0x267],0x0
    44a2:	8b 15 e0 b1 00 00    	mov    edx,DWORD PTR [rip+0xb1e0]        # f688 <line>
    44a8:	48 8d 85 98 fd ff ff 	lea    rax,[rbp-0x268]
    44af:	48 89 c6             	mov    rsi,rax
    44b2:	bf 17 00 00 00       	mov    edi,0x17
    44b7:	e8 4d e4 ff ff       	call   2909 <add_token>
    44bc:	90                   	nop
    44bd:	e9 c8 05 00 00       	jmp    4a8a <LEXER+0x17fe>
    44c2:	48 8b 45 f0          	mov    rax,QWORD PTR [rbp-0x10]
    44c6:	0f b6 00             	movzx  eax,BYTE PTR [rax]
    44c9:	3c 5b                	cmp    al,0x5b
    44cb:	0f 85 9e 02 00 00    	jne    476f <LEXER+0x14e3>
    44d1:	48 83 45 f0 01       	add    QWORD PTR [rbp-0x10],0x1
    44d6:	48 c7 85 80 fa ff ff 	mov    QWORD PTR [rbp-0x580],0x0
    44dd:	00 00 00 00 
    44e1:	48 c7 85 88 fa ff ff 	mov    QWORD PTR [rbp-0x578],0x0
    44e8:	00 00 00 00 
    44ec:	48 c7 85 90 fa ff ff 	mov    QWORD PTR [rbp-0x570],0x0
    44f3:	00 00 00 00 
    44f7:	48 c7 85 98 fa ff ff 	mov    QWORD PTR [rbp-0x568],0x0
    44fe:	00 00 00 00 
    4502:	48 c7 85 a0 fa ff ff 	mov    QWORD PTR [rbp-0x560],0x0
    4509:	00 00 00 00 
    450d:	48 c7 85 a8 fa ff ff 	mov    QWORD PTR [rbp-0x558],0x0
    4514:	00 00 00 00 
    4518:	48 c7 85 b0 fa ff ff 	mov    QWORD PTR [rbp-0x550],0x0
    451f:	00 00 00 00 
    4523:	48 c7 85 b8 fa ff ff 	mov    QWORD PTR [rbp-0x548],0x0
    452a:	00 00 00 00 
    452e:	48 c7 85 c0 fa ff ff 	mov    QWORD PTR [rbp-0x540],0x0
    4535:	00 00 00 00 
    4539:	48 c7 85 c8 fa ff ff 	mov    QWORD PTR [rbp-0x538],0x0
    4540:	00 00 00 00 
    4544:	48 c7 85 d0 fa ff ff 	mov    QWORD PTR [rbp-0x530],0x0
    454b:	00 00 00 00 
    454f:	48 c7 85 d8 fa ff ff 	mov    QWORD PTR [rbp-0x528],0x0
    4556:	00 00 00 00 
    455a:	48 c7 85 e0 fa ff ff 	mov    QWORD PTR [rbp-0x520],0x0
    4561:	00 00 00 00 
    4565:	48 c7 85 e8 fa ff ff 	mov    QWORD PTR [rbp-0x518],0x0
    456c:	00 00 00 00 
    4570:	48 c7 85 f0 fa ff ff 	mov    QWORD PTR [rbp-0x510],0x0
    4577:	00 00 00 00 
    457b:	48 c7 85 f8 fa ff ff 	mov    QWORD PTR [rbp-0x508],0x0
    4582:	00 00 00 00 
    4586:	c7 45 d4 00 00 00 00 	mov    DWORD PTR [rbp-0x2c],0x0
    458d:	eb 28                	jmp    45b7 <LEXER+0x132b>
    458f:	83 7d d4 7e          	cmp    DWORD PTR [rbp-0x2c],0x7e
    4593:	7f 22                	jg     45b7 <LEXER+0x132b>
    4595:	48 8b 45 f0          	mov    rax,QWORD PTR [rbp-0x10]
    4599:	48 8d 50 01          	lea    rdx,[rax+0x1]
    459d:	48 89 55 f0          	mov    QWORD PTR [rbp-0x10],rdx
    45a1:	8b 55 d4             	mov    edx,DWORD PTR [rbp-0x2c]
    45a4:	8d 4a 01             	lea    ecx,[rdx+0x1]
    45a7:	89 4d d4             	mov    DWORD PTR [rbp-0x2c],ecx
    45aa:	0f b6 08             	movzx  ecx,BYTE PTR [rax]
    45ad:	48 63 c2             	movsxd rax,edx
    45b0:	88 8c 05 80 fa ff ff 	mov    BYTE PTR [rbp+rax*1-0x580],cl
    45b7:	48 8b 45 f0          	mov    rax,QWORD PTR [rbp-0x10]
    45bb:	0f b6 00             	movzx  eax,BYTE PTR [rax]
    45be:	84 c0                	test   al,al
    45c0:	74 0b                	je     45cd <LEXER+0x1341>
    45c2:	48 8b 45 f0          	mov    rax,QWORD PTR [rbp-0x10]
    45c6:	0f b6 00             	movzx  eax,BYTE PTR [rax]
    45c9:	3c 5d                	cmp    al,0x5d
    45cb:	75 c2                	jne    458f <LEXER+0x1303>
    45cd:	48 8b 45 f0          	mov    rax,QWORD PTR [rbp-0x10]
    45d1:	0f b6 00             	movzx  eax,BYTE PTR [rax]
    45d4:	3c 5d                	cmp    al,0x5d
    45d6:	0f 85 d5 00 00 00    	jne    46b1 <LEXER+0x1425>
    45dc:	48 83 45 f0 01       	add    QWORD PTR [rbp-0x10],0x1
    45e1:	8b 45 d4             	mov    eax,DWORD PTR [rbp-0x2c]
    45e4:	48 98                	cdqe
    45e6:	c6 84 05 80 fa ff ff 	mov    BYTE PTR [rbp+rax*1-0x580],0x0
    45ed:	00 
    45ee:	48 c7 85 80 fb ff ff 	mov    QWORD PTR [rbp-0x480],0x0
    45f5:	00 00 00 00 
    45f9:	48 c7 85 88 fb ff ff 	mov    QWORD PTR [rbp-0x478],0x0
    4600:	00 00 00 00 
    4604:	48 c7 85 90 fb ff ff 	mov    QWORD PTR [rbp-0x470],0x0
    460b:	00 00 00 00 
    460f:	48 c7 85 98 fb ff ff 	mov    QWORD PTR [rbp-0x468],0x0
    4616:	00 00 00 00 
    461a:	48 c7 85 a0 fb ff ff 	mov    QWORD PTR [rbp-0x460],0x0
    4621:	00 00 00 00 
    4625:	48 c7 85 a8 fb ff ff 	mov    QWORD PTR [rbp-0x458],0x0
    462c:	00 00 00 00 
    4630:	48 c7 85 b0 fb ff ff 	mov    QWORD PTR [rbp-0x450],0x0
    4637:	00 00 00 00 
    463b:	48 c7 85 b8 fb ff ff 	mov    QWORD PTR [rbp-0x448],0x0
    4642:	00 00 00 00 
    4646:	48 c7 85 c0 fb ff ff 	mov    QWORD PTR [rbp-0x440],0x0
    464d:	00 00 00 00 
    4651:	48 c7 85 c8 fb ff ff 	mov    QWORD PTR [rbp-0x438],0x0
    4658:	00 00 00 00 
    465c:	48 c7 85 d0 fb ff ff 	mov    QWORD PTR [rbp-0x430],0x0
    4663:	00 00 00 00 
    4667:	48 c7 85 d8 fb ff ff 	mov    QWORD PTR [rbp-0x428],0x0
    466e:	00 00 00 00 
    4672:	48 c7 85 e0 fb ff ff 	mov    QWORD PTR [rbp-0x420],0x0
    4679:	00 00 00 00 
    467d:	48 c7 85 e8 fb ff ff 	mov    QWORD PTR [rbp-0x418],0x0
    4684:	00 00 00 00 
    4688:	48 c7 85 f0 fb ff ff 	mov    QWORD PTR [rbp-0x410],0x0
    468f:	00 00 00 00 
    4693:	48 c7 85 f8 fb ff ff 	mov    QWORD PTR [rbp-0x408],0x0
    469a:	00 00 00 00 
    469e:	c7 45 d0 00 00 00 00 	mov    DWORD PTR [rbp-0x30],0x0
    46a5:	c7 45 cc 00 00 00 00 	mov    DWORD PTR [rbp-0x34],0x0
    46ac:	e9 80 00 00 00       	jmp    4731 <LEXER+0x14a5>
    46b1:	8b 15 d1 af 00 00    	mov    edx,DWORD PTR [rip+0xafd1]        # f688 <line>
    46b7:	48 8b 05 a2 af 00 00 	mov    rax,QWORD PTR [rip+0xafa2]        # f660 <stderr@GLIBC_2.2.5>
    46be:	48 8d 0d bb 7f 00 00 	lea    rcx,[rip+0x7fbb]        # c680 <_IO_stdin_used+0x680>
    46c5:	48 89 ce             	mov    rsi,rcx
    46c8:	48 89 c7             	mov    rdi,rax
    46cb:	b8 00 00 00 00       	mov    eax,0x0
    46d0:	e8 2b da ff ff       	call   2100 <fprintf@plt>
    46d5:	bf 01 00 00 00       	mov    edi,0x1
    46da:	e8 81 da ff ff       	call   2160 <exit@plt>
    46df:	e8 ac da ff ff       	call   2190 <__ctype_b_loc@plt>
    46e4:	48 8b 10             	mov    rdx,QWORD PTR [rax]
    46e7:	8b 45 cc             	mov    eax,DWORD PTR [rbp-0x34]
    46ea:	48 98                	cdqe
    46ec:	0f b6 84 05 80 fa ff 	movzx  eax,BYTE PTR [rbp+rax*1-0x580]
    46f3:	ff 
    46f4:	48 0f be c0          	movsx  rax,al
    46f8:	48 01 c0             	add    rax,rax
    46fb:	48 01 d0             	add    rax,rdx
    46fe:	0f b7 00             	movzx  eax,WORD PTR [rax]
    4701:	0f b7 c0             	movzx  eax,ax
    4704:	25 00 20 00 00       	and    eax,0x2000
    4709:	85 c0                	test   eax,eax
    470b:	75 20                	jne    472d <LEXER+0x14a1>
    470d:	8b 45 d0             	mov    eax,DWORD PTR [rbp-0x30]
    4710:	8d 50 01             	lea    edx,[rax+0x1]
    4713:	89 55 d0             	mov    DWORD PTR [rbp-0x30],edx
    4716:	8b 55 cc             	mov    edx,DWORD PTR [rbp-0x34]
    4719:	48 63 d2             	movsxd rdx,edx
    471c:	0f b6 94 15 80 fa ff 	movzx  edx,BYTE PTR [rbp+rdx*1-0x580]
    4723:	ff 
    4724:	48 98                	cdqe
    4726:	88 94 05 80 fb ff ff 	mov    BYTE PTR [rbp+rax*1-0x480],dl
    472d:	83 45 cc 01          	add    DWORD PTR [rbp-0x34],0x1
    4731:	8b 45 cc             	mov    eax,DWORD PTR [rbp-0x34]
    4734:	48 98                	cdqe
    4736:	0f b6 84 05 80 fa ff 	movzx  eax,BYTE PTR [rbp+rax*1-0x580]
    473d:	ff 
    473e:	84 c0                	test   al,al
    4740:	75 9d                	jne    46df <LEXER+0x1453>
    4742:	8b 45 d0             	mov    eax,DWORD PTR [rbp-0x30]
    4745:	48 98                	cdqe
    4747:	c6 84 05 80 fb ff ff 	mov    BYTE PTR [rbp+rax*1-0x480],0x0
    474e:	00 
    474f:	8b 15 33 af 00 00    	mov    edx,DWORD PTR [rip+0xaf33]        # f688 <line>
    4755:	48 8d 85 80 fb ff ff 	lea    rax,[rbp-0x480]
    475c:	48 89 c6             	mov    rsi,rax
    475f:	bf 09 00 00 00       	mov    edi,0x9
    4764:	e8 a0 e1 ff ff       	call   2909 <add_token>
    4769:	90                   	nop
    476a:	e9 1b 03 00 00       	jmp    4a8a <LEXER+0x17fe>
    476f:	48 8b 45 f0          	mov    rax,QWORD PTR [rbp-0x10]
    4773:	0f b6 00             	movzx  eax,BYTE PTR [rax]
    4776:	3c 21                	cmp    al,0x21
    4778:	0f 85 c5 00 00 00    	jne    4843 <LEXER+0x15b7>
    477e:	48 83 45 f0 01       	add    QWORD PTR [rbp-0x10],0x1
    4783:	48 8b 45 f0          	mov    rax,QWORD PTR [rbp-0x10]
    4787:	ba 07 00 00 00       	mov    edx,0x7
    478c:	48 8d 0d 17 7f 00 00 	lea    rcx,[rip+0x7f17]        # c6aa <_IO_stdin_used+0x6aa>
    4793:	48 89 ce             	mov    rsi,rcx
    4796:	48 89 c7             	mov    rdi,rax
    4799:	e8 82 d9 ff ff       	call   2120 <strncasecmp@plt>
    479e:	85 c0                	test   eax,eax
    47a0:	0f 85 e4 02 00 00    	jne    4a8a <LEXER+0x17fe>
    47a6:	48 83 45 f0 07       	add    QWORD PTR [rbp-0x10],0x7
    47ab:	eb 05                	jmp    47b2 <LEXER+0x1526>
    47ad:	48 83 45 f0 01       	add    QWORD PTR [rbp-0x10],0x1
    47b2:	48 8b 45 f0          	mov    rax,QWORD PTR [rbp-0x10]
    47b6:	0f b6 00             	movzx  eax,BYTE PTR [rax]
    47b9:	3c 20                	cmp    al,0x20
    47bb:	74 f0                	je     47ad <LEXER+0x1521>
    47bd:	48 8b 45 f0          	mov    rax,QWORD PTR [rbp-0x10]
    47c1:	0f b6 00             	movzx  eax,BYTE PTR [rax]
    47c4:	3c 09                	cmp    al,0x9
    47c6:	74 e5                	je     47ad <LEXER+0x1521>
    47c8:	48 c7 85 8c fd ff ff 	mov    QWORD PTR [rbp-0x274],0x0
    47cf:	00 00 00 00 
    47d3:	c7 85 94 fd ff ff 00 	mov    DWORD PTR [rbp-0x26c],0x0
    47da:	00 00 00 
    47dd:	c7 45 c8 00 00 00 00 	mov    DWORD PTR [rbp-0x38],0x0
    47e4:	eb 22                	jmp    4808 <LEXER+0x157c>
    47e6:	48 8b 45 f0          	mov    rax,QWORD PTR [rbp-0x10]
    47ea:	48 8d 50 01          	lea    rdx,[rax+0x1]
    47ee:	48 89 55 f0          	mov    QWORD PTR [rbp-0x10],rdx
    47f2:	8b 55 c8             	mov    edx,DWORD PTR [rbp-0x38]
    47f5:	8d 4a 01             	lea    ecx,[rdx+0x1]
    47f8:	89 4d c8             	mov    DWORD PTR [rbp-0x38],ecx
    47fb:	0f b6 08             	movzx  ecx,BYTE PTR [rax]
    47fe:	48 63 c2             	movsxd rax,edx
    4801:	88 8c 05 8c fd ff ff 	mov    BYTE PTR [rbp+rax*1-0x274],cl
    4808:	48 8b 45 f0          	mov    rax,QWORD PTR [rbp-0x10]
    480c:	0f b6 00             	movzx  eax,BYTE PTR [rax]
    480f:	84 c0                	test   al,al
    4811:	74 11                	je     4824 <LEXER+0x1598>
    4813:	48 8b 45 f0          	mov    rax,QWORD PTR [rbp-0x10]
    4817:	0f b6 00             	movzx  eax,BYTE PTR [rax]
    481a:	3c 0a                	cmp    al,0xa
    481c:	74 06                	je     4824 <LEXER+0x1598>
    481e:	83 7d c8 0a          	cmp    DWORD PTR [rbp-0x38],0xa
    4822:	7e c2                	jle    47e6 <LEXER+0x155a>
    4824:	8b 15 5e ae 00 00    	mov    edx,DWORD PTR [rip+0xae5e]        # f688 <line>
    482a:	48 8d 85 8c fd ff ff 	lea    rax,[rbp-0x274]
    4831:	48 89 c6             	mov    rsi,rax
    4834:	bf 0e 00 00 00       	mov    edi,0xe
    4839:	e8 cb e0 ff ff       	call   2909 <add_token>
    483e:	e9 47 02 00 00       	jmp    4a8a <LEXER+0x17fe>
    4843:	48 8b 45 f0          	mov    rax,QWORD PTR [rbp-0x10]
    4847:	0f b6 00             	movzx  eax,BYTE PTR [rax]
    484a:	3c 2c                	cmp    al,0x2c
    484c:	75 55                	jne    48a3 <LEXER+0x1617>
    484e:	48 83 45 f0 01       	add    QWORD PTR [rbp-0x10],0x1
    4853:	eb 05                	jmp    485a <LEXER+0x15ce>
    4855:	48 83 45 f0 01       	add    QWORD PTR [rbp-0x10],0x1
    485a:	e8 31 d9 ff ff       	call   2190 <__ctype_b_loc@plt>
    485f:	48 8b 10             	mov    rdx,QWORD PTR [rax]
    4862:	48 8b 45 f0          	mov    rax,QWORD PTR [rbp-0x10]
    4866:	0f b6 00             	movzx  eax,BYTE PTR [rax]
    4869:	48 0f be c0          	movsx  rax,al
    486d:	48 01 c0             	add    rax,rax
    4870:	48 01 d0             	add    rax,rdx
    4873:	0f b7 00             	movzx  eax,WORD PTR [rax]
    4876:	0f b7 c0             	movzx  eax,ax
    4879:	25 00 20 00 00       	and    eax,0x2000
    487e:	85 c0                	test   eax,eax
    4880:	75 d3                	jne    4855 <LEXER+0x15c9>
    4882:	8b 05 00 ae 00 00    	mov    eax,DWORD PTR [rip+0xae00]        # f688 <line>
    4888:	89 c2                	mov    edx,eax
    488a:	48 8d 05 21 7e 00 00 	lea    rax,[rip+0x7e21]        # c6b2 <_IO_stdin_used+0x6b2>
    4891:	48 89 c6             	mov    rsi,rax
    4894:	bf 18 00 00 00       	mov    edi,0x18
    4899:	e8 6b e0 ff ff       	call   2909 <add_token>
    489e:	e9 e7 01 00 00       	jmp    4a8a <LEXER+0x17fe>
    48a3:	48 8b 45 f0          	mov    rax,QWORD PTR [rbp-0x10]
    48a7:	ba 04 00 00 00       	mov    edx,0x4
    48ac:	48 8d 0d 01 7e 00 00 	lea    rcx,[rip+0x7e01]        # c6b4 <_IO_stdin_used+0x6b4>
    48b3:	48 89 ce             	mov    rsi,rcx
    48b6:	48 89 c7             	mov    rdi,rax
    48b9:	e8 62 d8 ff ff       	call   2120 <strncasecmp@plt>
    48be:	85 c0                	test   eax,eax
    48c0:	75 50                	jne    4912 <LEXER+0x1686>
    48c2:	8b 15 c0 ad 00 00    	mov    edx,DWORD PTR [rip+0xadc0]        # f688 <line>
    48c8:	48 8b 45 f0          	mov    rax,QWORD PTR [rbp-0x10]
    48cc:	48 89 c6             	mov    rsi,rax
    48cf:	bf 19 00 00 00       	mov    edi,0x19
    48d4:	e8 30 e0 ff ff       	call   2909 <add_token>
    48d9:	48 83 45 f0 04       	add    QWORD PTR [rbp-0x10],0x4
    48de:	eb 05                	jmp    48e5 <LEXER+0x1659>
    48e0:	48 83 45 f0 01       	add    QWORD PTR [rbp-0x10],0x1
    48e5:	e8 a6 d8 ff ff       	call   2190 <__ctype_b_loc@plt>
    48ea:	48 8b 10             	mov    rdx,QWORD PTR [rax]
    48ed:	48 8b 45 f0          	mov    rax,QWORD PTR [rbp-0x10]
    48f1:	0f b6 00             	movzx  eax,BYTE PTR [rax]
    48f4:	48 0f be c0          	movsx  rax,al
    48f8:	48 01 c0             	add    rax,rax
    48fb:	48 01 d0             	add    rax,rdx
    48fe:	0f b7 00             	movzx  eax,WORD PTR [rax]
    4901:	0f b7 c0             	movzx  eax,ax
    4904:	25 00 20 00 00       	and    eax,0x2000
    4909:	85 c0                	test   eax,eax
    490b:	75 d3                	jne    48e0 <LEXER+0x1654>
    490d:	e9 78 01 00 00       	jmp    4a8a <LEXER+0x17fe>
    4912:	48 8b 45 f0          	mov    rax,QWORD PTR [rbp-0x10]
    4916:	ba 04 00 00 00       	mov    edx,0x4
    491b:	48 8d 0d 97 7d 00 00 	lea    rcx,[rip+0x7d97]        # c6b9 <_IO_stdin_used+0x6b9>
    4922:	48 89 ce             	mov    rsi,rcx
    4925:	48 89 c7             	mov    rdi,rax
    4928:	e8 f3 d7 ff ff       	call   2120 <strncasecmp@plt>
    492d:	85 c0                	test   eax,eax
    492f:	75 50                	jne    4981 <LEXER+0x16f5>
    4931:	8b 15 51 ad 00 00    	mov    edx,DWORD PTR [rip+0xad51]        # f688 <line>
    4937:	48 8b 45 f0          	mov    rax,QWORD PTR [rbp-0x10]
    493b:	48 89 c6             	mov    rsi,rax
    493e:	bf 1a 00 00 00       	mov    edi,0x1a
    4943:	e8 c1 df ff ff       	call   2909 <add_token>
    4948:	48 83 45 f0 04       	add    QWORD PTR [rbp-0x10],0x4
    494d:	eb 05                	jmp    4954 <LEXER+0x16c8>
    494f:	48 83 45 f0 01       	add    QWORD PTR [rbp-0x10],0x1
    4954:	e8 37 d8 ff ff       	call   2190 <__ctype_b_loc@plt>
    4959:	48 8b 10             	mov    rdx,QWORD PTR [rax]
    495c:	48 8b 45 f0          	mov    rax,QWORD PTR [rbp-0x10]
    4960:	0f b6 00             	movzx  eax,BYTE PTR [rax]
    4963:	48 0f be c0          	movsx  rax,al
    4967:	48 01 c0             	add    rax,rax
    496a:	48 01 d0             	add    rax,rdx
    496d:	0f b7 00             	movzx  eax,WORD PTR [rax]
    4970:	0f b7 c0             	movzx  eax,ax
    4973:	25 00 20 00 00       	and    eax,0x2000
    4978:	85 c0                	test   eax,eax
    497a:	75 d3                	jne    494f <LEXER+0x16c3>
    497c:	e9 09 01 00 00       	jmp    4a8a <LEXER+0x17fe>
    4981:	48 8b 45 f0          	mov    rax,QWORD PTR [rbp-0x10]
    4985:	ba 04 00 00 00       	mov    edx,0x4
    498a:	48 8d 0d 2d 7d 00 00 	lea    rcx,[rip+0x7d2d]        # c6be <_IO_stdin_used+0x6be>
    4991:	48 89 ce             	mov    rsi,rcx
    4994:	48 89 c7             	mov    rdi,rax
    4997:	e8 84 d7 ff ff       	call   2120 <strncasecmp@plt>
    499c:	85 c0                	test   eax,eax
    499e:	75 50                	jne    49f0 <LEXER+0x1764>
    49a0:	8b 15 e2 ac 00 00    	mov    edx,DWORD PTR [rip+0xace2]        # f688 <line>
    49a6:	48 8b 45 f0          	mov    rax,QWORD PTR [rbp-0x10]
    49aa:	48 89 c6             	mov    rsi,rax
    49ad:	bf 1b 00 00 00       	mov    edi,0x1b
    49b2:	e8 52 df ff ff       	call   2909 <add_token>
    49b7:	48 83 45 f0 04       	add    QWORD PTR [rbp-0x10],0x4
    49bc:	eb 05                	jmp    49c3 <LEXER+0x1737>
    49be:	48 83 45 f0 01       	add    QWORD PTR [rbp-0x10],0x1
    49c3:	e8 c8 d7 ff ff       	call   2190 <__ctype_b_loc@plt>
    49c8:	48 8b 10             	mov    rdx,QWORD PTR [rax]
    49cb:	48 8b 45 f0          	mov    rax,QWORD PTR [rbp-0x10]
    49cf:	0f b6 00             	movzx  eax,BYTE PTR [rax]
    49d2:	48 0f be c0          	movsx  rax,al
    49d6:	48 01 c0             	add    rax,rax
    49d9:	48 01 d0             	add    rax,rdx
    49dc:	0f b7 00             	movzx  eax,WORD PTR [rax]
    49df:	0f b7 c0             	movzx  eax,ax
    49e2:	25 00 20 00 00       	and    eax,0x2000
    49e7:	85 c0                	test   eax,eax
    49e9:	75 d3                	jne    49be <LEXER+0x1732>
    49eb:	e9 9a 00 00 00       	jmp    4a8a <LEXER+0x17fe>
    49f0:	48 8b 45 f0          	mov    rax,QWORD PTR [rbp-0x10]
    49f4:	ba 04 00 00 00       	mov    edx,0x4
    49f9:	48 8d 0d c3 7c 00 00 	lea    rcx,[rip+0x7cc3]        # c6c3 <_IO_stdin_used+0x6c3>
    4a00:	48 89 ce             	mov    rsi,rcx
    4a03:	48 89 c7             	mov    rdi,rax
    4a06:	e8 15 d7 ff ff       	call   2120 <strncasecmp@plt>
    4a0b:	85 c0                	test   eax,eax
    4a0d:	75 4d                	jne    4a5c <LEXER+0x17d0>
    4a0f:	8b 15 73 ac 00 00    	mov    edx,DWORD PTR [rip+0xac73]        # f688 <line>
    4a15:	48 8b 45 f0          	mov    rax,QWORD PTR [rbp-0x10]
    4a19:	48 89 c6             	mov    rsi,rax
    4a1c:	bf 1c 00 00 00       	mov    edi,0x1c
    4a21:	e8 e3 de ff ff       	call   2909 <add_token>
    4a26:	48 83 45 f0 04       	add    QWORD PTR [rbp-0x10],0x4
    4a2b:	eb 05                	jmp    4a32 <LEXER+0x17a6>
    4a2d:	48 83 45 f0 01       	add    QWORD PTR [rbp-0x10],0x1
    4a32:	e8 59 d7 ff ff       	call   2190 <__ctype_b_loc@plt>
    4a37:	48 8b 10             	mov    rdx,QWORD PTR [rax]
    4a3a:	48 8b 45 f0          	mov    rax,QWORD PTR [rbp-0x10]
    4a3e:	0f b6 00             	movzx  eax,BYTE PTR [rax]
    4a41:	48 0f be c0          	movsx  rax,al
    4a45:	48 01 c0             	add    rax,rax
    4a48:	48 01 d0             	add    rax,rdx
    4a4b:	0f b7 00             	movzx  eax,WORD PTR [rax]
    4a4e:	0f b7 c0             	movzx  eax,ax
    4a51:	25 00 20 00 00       	and    eax,0x2000
    4a56:	85 c0                	test   eax,eax
    4a58:	75 d3                	jne    4a2d <LEXER+0x17a1>
    4a5a:	eb 2e                	jmp    4a8a <LEXER+0x17fe>
    4a5c:	8b 15 26 ac 00 00    	mov    edx,DWORD PTR [rip+0xac26]        # f688 <line>
    4a62:	48 8b 05 f7 ab 00 00 	mov    rax,QWORD PTR [rip+0xabf7]        # f660 <stderr@GLIBC_2.2.5>
    4a69:	48 8d 0d 58 7c 00 00 	lea    rcx,[rip+0x7c58]        # c6c8 <_IO_stdin_used+0x6c8>
    4a70:	48 89 ce             	mov    rsi,rcx
    4a73:	48 89 c7             	mov    rdi,rax
    4a76:	b8 00 00 00 00       	mov    eax,0x0
    4a7b:	e8 80 d6 ff ff       	call   2100 <fprintf@plt>
    4a80:	bf 01 00 00 00       	mov    edi,0x1
    4a85:	e8 d6 d6 ff ff       	call   2160 <exit@plt>
    4a8a:	48 8b 45 f0          	mov    rax,QWORD PTR [rbp-0x10]
    4a8e:	0f b6 00             	movzx  eax,BYTE PTR [rax]
    4a91:	84 c0                	test   al,al
    4a93:	0f 85 b8 e8 ff ff    	jne    3351 <LEXER+0xc5>
    4a99:	8b 05 e9 ab 00 00    	mov    eax,DWORD PTR [rip+0xabe9]        # f688 <line>
    4a9f:	89 c2                	mov    edx,eax
    4aa1:	48 8d 05 4d 7c 00 00 	lea    rax,[rip+0x7c4d]        # c6f5 <_IO_stdin_used+0x6f5>
    4aa8:	48 89 c6             	mov    rsi,rax
    4aab:	bf 0c 00 00 00       	mov    edi,0xc
    4ab0:	e8 54 de ff ff       	call   2909 <add_token>
    4ab5:	48 8b 85 78 fa ff ff 	mov    rax,QWORD PTR [rbp-0x588]
    4abc:	48 8d 95 b0 fd ff ff 	lea    rdx,[rbp-0x250]
    4ac3:	48 8d 4a 08          	lea    rcx,[rdx+0x8]
    4ac7:	48 89 c2             	mov    rdx,rax
    4aca:	be 00 01 00 00       	mov    esi,0x100
    4acf:	48 89 cf             	mov    rdi,rcx
    4ad2:	e8 f9 d5 ff ff       	call   20d0 <fgets@plt>
    4ad7:	48 85 c0             	test   rax,rax
    4ada:	0f 85 18 e8 ff ff    	jne    32f8 <LEXER+0x6c>
    4ae0:	8b 05 a2 ab 00 00    	mov    eax,DWORD PTR [rip+0xaba2]        # f688 <line>
    4ae6:	89 c2                	mov    edx,eax
    4ae8:	48 8d 05 07 7c 00 00 	lea    rax,[rip+0x7c07]        # c6f6 <_IO_stdin_used+0x6f6>
    4aef:	48 89 c6             	mov    rsi,rax
    4af2:	bf 0d 00 00 00       	mov    edi,0xd
    4af7:	e8 0d de ff ff       	call   2909 <add_token>
    4afc:	8b 05 86 ab 00 00    	mov    eax,DWORD PTR [rip+0xab86]        # f688 <line>
    4b02:	c9                   	leave
    4b03:	c3                   	ret

0000000000004b04 <DEBUG_PRINT_AST>:
DEBUG_PRINT_AST():
    4b04:	55                   	push   rbp
    4b05:	48 89 e5             	mov    rbp,rsp
    4b08:	48 83 ec 40          	sub    rsp,0x40
    4b0c:	8b 05 ae 6b 26 00    	mov    eax,DWORD PTR [rip+0x266bae]        # 26b6c0 <ast_count>
    4b12:	89 c6                	mov    esi,eax
    4b14:	48 8d 05 df 7b 00 00 	lea    rax,[rip+0x7bdf]        # c6fa <_IO_stdin_used+0x6fa>
    4b1b:	48 89 c7             	mov    rdi,rax
    4b1e:	b8 00 00 00 00       	mov    eax,0x0
    4b23:	e8 78 d5 ff ff       	call   20a0 <printf@plt>
    4b28:	c7 45 fc 00 00 00 00 	mov    DWORD PTR [rbp-0x4],0x0
    4b2f:	e9 3e 07 00 00       	jmp    5272 <DEBUG_PRINT_AST+0x76e>
    4b34:	8b 45 fc             	mov    eax,DWORD PTR [rbp-0x4]
    4b37:	48 98                	cdqe
    4b39:	48 69 c0 58 09 00 00 	imul   rax,rax,0x958
    4b40:	48 8d 15 79 0b 01 00 	lea    rdx,[rip+0x10b79]        # 156c0 <ast>
    4b47:	48 01 d0             	add    rax,rdx
    4b4a:	48 89 45 c0          	mov    QWORD PTR [rbp-0x40],rax
    4b4e:	48 8d 05 64 77 00 00 	lea    rax,[rip+0x7764]        # c2b9 <_IO_stdin_used+0x2b9>
    4b55:	48 89 45 f0          	mov    QWORD PTR [rbp-0x10],rax
    4b59:	48 8b 45 c0          	mov    rax,QWORD PTR [rbp-0x40]
    4b5d:	8b 00                	mov    eax,DWORD PTR [rax]
    4b5f:	83 f8 13             	cmp    eax,0x13
    4b62:	0f 87 23 01 00 00    	ja     4c8b <DEBUG_PRINT_AST+0x187>
    4b68:	89 c0                	mov    eax,eax
    4b6a:	48 8d 14 85 00 00 00 	lea    rdx,[rax*4+0x0]
    4b71:	00 
    4b72:	48 8d 05 83 7d 00 00 	lea    rax,[rip+0x7d83]        # c8fc <_IO_stdin_used+0x8fc>
    4b79:	8b 04 02             	mov    eax,DWORD PTR [rdx+rax*1]
    4b7c:	48 98                	cdqe
    4b7e:	48 8d 15 77 7d 00 00 	lea    rdx,[rip+0x7d77]        # c8fc <_IO_stdin_used+0x8fc>
    4b85:	48 01 d0             	add    rax,rdx
    4b88:	ff e0                	jmp    rax
    4b8a:	48 8d 05 86 7b 00 00 	lea    rax,[rip+0x7b86]        # c717 <_IO_stdin_used+0x717>
    4b91:	48 89 45 f0          	mov    QWORD PTR [rbp-0x10],rax
    4b95:	e9 f1 00 00 00       	jmp    4c8b <DEBUG_PRINT_AST+0x187>
    4b9a:	48 8d 05 7e 7b 00 00 	lea    rax,[rip+0x7b7e]        # c71f <_IO_stdin_used+0x71f>
    4ba1:	48 89 45 f0          	mov    QWORD PTR [rbp-0x10],rax
    4ba5:	e9 e1 00 00 00       	jmp    4c8b <DEBUG_PRINT_AST+0x187>
    4baa:	48 8d 05 75 7b 00 00 	lea    rax,[rip+0x7b75]        # c726 <_IO_stdin_used+0x726>
    4bb1:	48 89 45 f0          	mov    QWORD PTR [rbp-0x10],rax
    4bb5:	e9 d1 00 00 00       	jmp    4c8b <DEBUG_PRINT_AST+0x187>
    4bba:	48 8d 05 6f 7b 00 00 	lea    rax,[rip+0x7b6f]        # c730 <_IO_stdin_used+0x730>
    4bc1:	48 89 45 f0          	mov    QWORD PTR [rbp-0x10],rax
    4bc5:	e9 c1 00 00 00       	jmp    4c8b <DEBUG_PRINT_AST+0x187>
    4bca:	48 8d 05 67 7b 00 00 	lea    rax,[rip+0x7b67]        # c738 <_IO_stdin_used+0x738>
    4bd1:	48 89 45 f0          	mov    QWORD PTR [rbp-0x10],rax
    4bd5:	e9 b1 00 00 00       	jmp    4c8b <DEBUG_PRINT_AST+0x187>
    4bda:	48 8d 05 62 7b 00 00 	lea    rax,[rip+0x7b62]        # c743 <_IO_stdin_used+0x743>
    4be1:	48 89 45 f0          	mov    QWORD PTR [rbp-0x10],rax
    4be5:	e9 a1 00 00 00       	jmp    4c8b <DEBUG_PRINT_AST+0x187>
    4bea:	48 8d 05 5a 7b 00 00 	lea    rax,[rip+0x7b5a]        # c74b <_IO_stdin_used+0x74b>
    4bf1:	48 89 45 f0          	mov    QWORD PTR [rbp-0x10],rax
    4bf5:	e9 91 00 00 00       	jmp    4c8b <DEBUG_PRINT_AST+0x187>
    4bfa:	48 8d 05 55 7b 00 00 	lea    rax,[rip+0x7b55]        # c756 <_IO_stdin_used+0x756>
    4c01:	48 89 45 f0          	mov    QWORD PTR [rbp-0x10],rax
    4c05:	e9 81 00 00 00       	jmp    4c8b <DEBUG_PRINT_AST+0x187>
    4c0a:	48 8d 05 4d 7b 00 00 	lea    rax,[rip+0x7b4d]        # c75e <_IO_stdin_used+0x75e>
    4c11:	48 89 45 f0          	mov    QWORD PTR [rbp-0x10],rax
    4c15:	eb 74                	jmp    4c8b <DEBUG_PRINT_AST+0x187>
    4c17:	48 8d 05 4b 7b 00 00 	lea    rax,[rip+0x7b4b]        # c769 <_IO_stdin_used+0x769>
    4c1e:	48 89 45 f0          	mov    QWORD PTR [rbp-0x10],rax
    4c22:	eb 67                	jmp    4c8b <DEBUG_PRINT_AST+0x187>
    4c24:	48 8d 05 47 7b 00 00 	lea    rax,[rip+0x7b47]        # c772 <_IO_stdin_used+0x772>
    4c2b:	48 89 45 f0          	mov    QWORD PTR [rbp-0x10],rax
    4c2f:	eb 5a                	jmp    4c8b <DEBUG_PRINT_AST+0x187>
    4c31:	48 8d 05 43 7b 00 00 	lea    rax,[rip+0x7b43]        # c77b <_IO_stdin_used+0x77b>
    4c38:	48 89 45 f0          	mov    QWORD PTR [rbp-0x10],rax
    4c3c:	eb 4d                	jmp    4c8b <DEBUG_PRINT_AST+0x187>
    4c3e:	48 8d 05 3f 7b 00 00 	lea    rax,[rip+0x7b3f]        # c784 <_IO_stdin_used+0x784>
    4c45:	48 89 45 f0          	mov    QWORD PTR [rbp-0x10],rax
    4c49:	eb 40                	jmp    4c8b <DEBUG_PRINT_AST+0x187>
    4c4b:	48 8d 05 3b 7b 00 00 	lea    rax,[rip+0x7b3b]        # c78d <_IO_stdin_used+0x78d>
    4c52:	48 89 45 f0          	mov    QWORD PTR [rbp-0x10],rax
    4c56:	eb 33                	jmp    4c8b <DEBUG_PRINT_AST+0x187>
    4c58:	48 8d 05 38 7b 00 00 	lea    rax,[rip+0x7b38]        # c797 <_IO_stdin_used+0x797>
    4c5f:	48 89 45 f0          	mov    QWORD PTR [rbp-0x10],rax
    4c63:	eb 26                	jmp    4c8b <DEBUG_PRINT_AST+0x187>
    4c65:	48 8d 05 37 7b 00 00 	lea    rax,[rip+0x7b37]        # c7a3 <_IO_stdin_used+0x7a3>
    4c6c:	48 89 45 f0          	mov    QWORD PTR [rbp-0x10],rax
    4c70:	eb 19                	jmp    4c8b <DEBUG_PRINT_AST+0x187>
    4c72:	48 8d 05 38 7b 00 00 	lea    rax,[rip+0x7b38]        # c7b1 <_IO_stdin_used+0x7b1>
    4c79:	48 89 45 f0          	mov    QWORD PTR [rbp-0x10],rax
    4c7d:	eb 0c                	jmp    4c8b <DEBUG_PRINT_AST+0x187>
    4c7f:	48 8d 05 34 7b 00 00 	lea    rax,[rip+0x7b34]        # c7ba <_IO_stdin_used+0x7ba>
    4c86:	48 89 45 f0          	mov    QWORD PTR [rbp-0x10],rax
    4c8a:	90                   	nop
    4c8b:	48 8b 55 f0          	mov    rdx,QWORD PTR [rbp-0x10]
    4c8f:	8b 45 fc             	mov    eax,DWORD PTR [rbp-0x4]
    4c92:	89 c6                	mov    esi,eax
    4c94:	48 8d 05 27 7b 00 00 	lea    rax,[rip+0x7b27]        # c7c2 <_IO_stdin_used+0x7c2>
    4c9b:	48 89 c7             	mov    rdi,rax
    4c9e:	b8 00 00 00 00       	mov    eax,0x0
    4ca3:	e8 f8 d3 ff ff       	call   20a0 <printf@plt>
    4ca8:	48 8b 45 c0          	mov    rax,QWORD PTR [rbp-0x40]
    4cac:	8b 00                	mov    eax,DWORD PTR [rax]
    4cae:	83 f8 13             	cmp    eax,0x13
    4cb1:	0f 87 12 05 00 00    	ja     51c9 <DEBUG_PRINT_AST+0x6c5>
    4cb7:	89 c0                	mov    eax,eax
    4cb9:	48 8d 14 85 00 00 00 	lea    rdx,[rax*4+0x0]
    4cc0:	00 
    4cc1:	48 8d 05 84 7c 00 00 	lea    rax,[rip+0x7c84]        # c94c <_IO_stdin_used+0x94c>
    4cc8:	8b 04 02             	mov    eax,DWORD PTR [rdx+rax*1]
    4ccb:	48 98                	cdqe
    4ccd:	48 8d 15 78 7c 00 00 	lea    rdx,[rip+0x7c78]        # c94c <_IO_stdin_used+0x94c>
    4cd4:	48 01 d0             	add    rax,rdx
    4cd7:	ff e0                	jmp    rax
    4cd9:	48 8b 45 c0          	mov    rax,QWORD PTR [rbp-0x40]
    4cdd:	8b 80 a4 01 00 00    	mov    eax,DWORD PTR [rax+0x1a4]
    4ce3:	48 8b 55 c0          	mov    rdx,QWORD PTR [rbp-0x40]
    4ce7:	48 8d 4a 04          	lea    rcx,[rdx+0x4]
    4ceb:	89 c2                	mov    edx,eax
    4ced:	48 89 ce             	mov    rsi,rcx
    4cf0:	48 8d 05 df 7a 00 00 	lea    rax,[rip+0x7adf]        # c7d6 <_IO_stdin_used+0x7d6>
    4cf7:	48 89 c7             	mov    rdi,rax
    4cfa:	b8 00 00 00 00       	mov    eax,0x0
    4cff:	e8 9c d3 ff ff       	call   20a0 <printf@plt>
    4d04:	c7 45 ec 00 00 00 00 	mov    DWORD PTR [rbp-0x14],0x0
    4d0b:	e9 07 01 00 00       	jmp    4e17 <DEBUG_PRINT_AST+0x313>
    4d10:	48 8d 05 d5 7a 00 00 	lea    rax,[rip+0x7ad5]        # c7ec <_IO_stdin_used+0x7ec>
    4d17:	48 89 45 e0          	mov    QWORD PTR [rbp-0x20],rax
    4d1b:	48 8b 45 c0          	mov    rax,QWORD PTR [rbp-0x40]
    4d1f:	8b 55 ec             	mov    edx,DWORD PTR [rbp-0x14]
    4d22:	48 63 d2             	movsxd rdx,edx
    4d25:	48 83 c2 60          	add    rdx,0x60
    4d29:	8b 44 90 14          	mov    eax,DWORD PTR [rax+rdx*4+0x14]
    4d2d:	83 e8 03             	sub    eax,0x3
    4d30:	83 f8 08             	cmp    eax,0x8
    4d33:	0f 87 96 00 00 00    	ja     4dcf <DEBUG_PRINT_AST+0x2cb>
    4d39:	89 c0                	mov    eax,eax
    4d3b:	48 8d 14 85 00 00 00 	lea    rdx,[rax*4+0x0]
    4d42:	00 
    4d43:	48 8d 05 52 7c 00 00 	lea    rax,[rip+0x7c52]        # c99c <_IO_stdin_used+0x99c>
    4d4a:	8b 04 02             	mov    eax,DWORD PTR [rdx+rax*1]
    4d4d:	48 98                	cdqe
    4d4f:	48 8d 15 46 7c 00 00 	lea    rdx,[rip+0x7c46]        # c99c <_IO_stdin_used+0x99c>
    4d56:	48 01 d0             	add    rax,rdx
    4d59:	ff e0                	jmp    rax
    4d5b:	48 8d 05 8c 7a 00 00 	lea    rax,[rip+0x7a8c]        # c7ee <_IO_stdin_used+0x7ee>
    4d62:	48 89 45 e0          	mov    QWORD PTR [rbp-0x20],rax
    4d66:	eb 67                	jmp    4dcf <DEBUG_PRINT_AST+0x2cb>
    4d68:	48 8d 05 84 7a 00 00 	lea    rax,[rip+0x7a84]        # c7f3 <_IO_stdin_used+0x7f3>
    4d6f:	48 89 45 e0          	mov    QWORD PTR [rbp-0x20],rax
    4d73:	eb 5a                	jmp    4dcf <DEBUG_PRINT_AST+0x2cb>
    4d75:	48 8d 05 7d 7a 00 00 	lea    rax,[rip+0x7a7d]        # c7f9 <_IO_stdin_used+0x7f9>
    4d7c:	48 89 45 e0          	mov    QWORD PTR [rbp-0x20],rax
    4d80:	eb 4d                	jmp    4dcf <DEBUG_PRINT_AST+0x2cb>
    4d82:	48 8d 05 76 7a 00 00 	lea    rax,[rip+0x7a76]        # c7ff <_IO_stdin_used+0x7ff>
    4d89:	48 89 45 e0          	mov    QWORD PTR [rbp-0x20],rax
    4d8d:	eb 40                	jmp    4dcf <DEBUG_PRINT_AST+0x2cb>
    4d8f:	48 8d 05 6f 7a 00 00 	lea    rax,[rip+0x7a6f]        # c805 <_IO_stdin_used+0x805>
    4d96:	48 89 45 e0          	mov    QWORD PTR [rbp-0x20],rax
    4d9a:	eb 33                	jmp    4dcf <DEBUG_PRINT_AST+0x2cb>
    4d9c:	48 8d 05 66 7a 00 00 	lea    rax,[rip+0x7a66]        # c809 <_IO_stdin_used+0x809>
    4da3:	48 89 45 e0          	mov    QWORD PTR [rbp-0x20],rax
    4da7:	eb 26                	jmp    4dcf <DEBUG_PRINT_AST+0x2cb>
    4da9:	48 8d 05 5d 7a 00 00 	lea    rax,[rip+0x7a5d]        # c80d <_IO_stdin_used+0x80d>
    4db0:	48 89 45 e0          	mov    QWORD PTR [rbp-0x20],rax
    4db4:	eb 19                	jmp    4dcf <DEBUG_PRINT_AST+0x2cb>
    4db6:	48 8d 05 56 7a 00 00 	lea    rax,[rip+0x7a56]        # c813 <_IO_stdin_used+0x813>
    4dbd:	48 89 45 e0          	mov    QWORD PTR [rbp-0x20],rax
    4dc1:	eb 0c                	jmp    4dcf <DEBUG_PRINT_AST+0x2cb>
    4dc3:	48 8d 05 4c 7a 00 00 	lea    rax,[rip+0x7a4c]        # c816 <_IO_stdin_used+0x816>
    4dca:	48 89 45 e0          	mov    QWORD PTR [rbp-0x20],rax
    4dce:	90                   	nop
    4dcf:	8b 45 ec             	mov    eax,DWORD PTR [rbp-0x14]
    4dd2:	48 63 d0             	movsxd rdx,eax
    4dd5:	48 89 d0             	mov    rax,rdx
    4dd8:	48 c1 e0 03          	shl    rax,0x3
    4ddc:	48 01 d0             	add    rax,rdx
    4ddf:	48 c1 e0 02          	shl    rax,0x2
    4de3:	48 29 d0             	sub    rax,rdx
    4de6:	48 8d 90 00 01 00 00 	lea    rdx,[rax+0x100]
    4ded:	48 8b 45 c0          	mov    rax,QWORD PTR [rbp-0x40]
    4df1:	48 01 d0             	add    rax,rdx
    4df4:	48 8d 50 08          	lea    rdx,[rax+0x8]
    4df8:	48 8b 45 e0          	mov    rax,QWORD PTR [rbp-0x20]
    4dfc:	48 89 c6             	mov    rsi,rax
    4dff:	48 8d 05 15 7a 00 00 	lea    rax,[rip+0x7a15]        # c81b <_IO_stdin_used+0x81b>
    4e06:	48 89 c7             	mov    rdi,rax
    4e09:	b8 00 00 00 00       	mov    eax,0x0
    4e0e:	e8 8d d2 ff ff       	call   20a0 <printf@plt>
    4e13:	83 45 ec 01          	add    DWORD PTR [rbp-0x14],0x1
    4e17:	48 8b 45 c0          	mov    rax,QWORD PTR [rbp-0x40]
    4e1b:	8b 80 a4 01 00 00    	mov    eax,DWORD PTR [rax+0x1a4]
    4e21:	39 45 ec             	cmp    DWORD PTR [rbp-0x14],eax
    4e24:	0f 8c e6 fe ff ff    	jl     4d10 <DEBUG_PRINT_AST+0x20c>
    4e2a:	48 8b 45 c0          	mov    rax,QWORD PTR [rbp-0x40]
    4e2e:	0f b6 80 50 09 00 00 	movzx  eax,BYTE PTR [rax+0x950]
    4e35:	0f b6 c0             	movzx  eax,al
    4e38:	89 c6                	mov    esi,eax
    4e3a:	48 8d 05 e5 79 00 00 	lea    rax,[rip+0x79e5]        # c826 <_IO_stdin_used+0x826>
    4e41:	48 89 c7             	mov    rdi,rax
    4e44:	b8 00 00 00 00       	mov    eax,0x0
    4e49:	e8 52 d2 ff ff       	call   20a0 <printf@plt>
    4e4e:	e9 76 03 00 00       	jmp    51c9 <DEBUG_PRINT_AST+0x6c5>
    4e53:	48 8b 45 c0          	mov    rax,QWORD PTR [rbp-0x40]
    4e57:	48 8b 90 50 01 00 00 	mov    rdx,QWORD PTR [rax+0x150]
    4e5e:	48 8b 45 c0          	mov    rax,QWORD PTR [rbp-0x40]
    4e62:	48 8b 80 48 01 00 00 	mov    rax,QWORD PTR [rax+0x148]
    4e69:	48 8b 4d c0          	mov    rcx,QWORD PTR [rbp-0x40]
    4e6d:	48 8d b1 08 01 00 00 	lea    rsi,[rcx+0x108]
    4e74:	48 89 d1             	mov    rcx,rdx
    4e77:	48 89 c2             	mov    rdx,rax
    4e7a:	48 8d 05 b7 79 00 00 	lea    rax,[rip+0x79b7]        # c838 <_IO_stdin_used+0x838>
    4e81:	48 89 c7             	mov    rdi,rax
    4e84:	b8 00 00 00 00       	mov    eax,0x0
    4e89:	e8 12 d2 ff ff       	call   20a0 <printf@plt>
    4e8e:	e9 36 03 00 00       	jmp    51c9 <DEBUG_PRINT_AST+0x6c5>
    4e93:	48 8b 45 c0          	mov    rax,QWORD PTR [rbp-0x40]
    4e97:	0f b6 80 08 01 00 00 	movzx  eax,BYTE PTR [rax+0x108]
    4e9e:	0f b6 c0             	movzx  eax,al
    4ea1:	89 c6                	mov    esi,eax
    4ea3:	48 8d 05 b1 79 00 00 	lea    rax,[rip+0x79b1]        # c85b <_IO_stdin_used+0x85b>
    4eaa:	48 89 c7             	mov    rdi,rax
    4ead:	b8 00 00 00 00       	mov    eax,0x0
    4eb2:	e8 e9 d1 ff ff       	call   20a0 <printf@plt>
    4eb7:	e9 0d 03 00 00       	jmp    51c9 <DEBUG_PRINT_AST+0x6c5>
    4ebc:	48 8b 45 c0          	mov    rax,QWORD PTR [rbp-0x40]
    4ec0:	8b 80 08 02 00 00    	mov    eax,DWORD PTR [rax+0x208]
    4ec6:	89 c6                	mov    esi,eax
    4ec8:	48 8d 05 97 79 00 00 	lea    rax,[rip+0x7997]        # c866 <_IO_stdin_used+0x866>
    4ecf:	48 89 c7             	mov    rdi,rax
    4ed2:	b8 00 00 00 00       	mov    eax,0x0
    4ed7:	e8 c4 d1 ff ff       	call   20a0 <printf@plt>
    4edc:	c7 45 dc 00 00 00 00 	mov    DWORD PTR [rbp-0x24],0x0
    4ee3:	eb 4a                	jmp    4f2f <DEBUG_PRINT_AST+0x42b>
    4ee5:	48 8b 55 c0          	mov    rdx,QWORD PTR [rbp-0x40]
    4ee9:	8b 45 dc             	mov    eax,DWORD PTR [rbp-0x24]
    4eec:	48 98                	cdqe
    4eee:	0f b6 84 02 08 01 00 	movzx  eax,BYTE PTR [rdx+rax*1+0x108]
    4ef5:	00 
    4ef6:	0f b6 c0             	movzx  eax,al
    4ef9:	89 c6                	mov    esi,eax
    4efb:	48 8d 05 74 79 00 00 	lea    rax,[rip+0x7974]        # c876 <_IO_stdin_used+0x876>
    4f02:	48 89 c7             	mov    rdi,rax
    4f05:	b8 00 00 00 00       	mov    eax,0x0
    4f0a:	e8 91 d1 ff ff       	call   20a0 <printf@plt>
    4f0f:	48 8b 45 c0          	mov    rax,QWORD PTR [rbp-0x40]
    4f13:	8b 80 08 02 00 00    	mov    eax,DWORD PTR [rax+0x208]
    4f19:	83 e8 01             	sub    eax,0x1
    4f1c:	39 45 dc             	cmp    DWORD PTR [rbp-0x24],eax
    4f1f:	7d 0a                	jge    4f2b <DEBUG_PRINT_AST+0x427>
    4f21:	bf 20 00 00 00       	mov    edi,0x20
    4f26:	e8 15 d1 ff ff       	call   2040 <putchar@plt>
    4f2b:	83 45 dc 01          	add    DWORD PTR [rbp-0x24],0x1
    4f2f:	48 8b 45 c0          	mov    rax,QWORD PTR [rbp-0x40]
    4f33:	8b 80 08 02 00 00    	mov    eax,DWORD PTR [rax+0x208]
    4f39:	39 45 dc             	cmp    DWORD PTR [rbp-0x24],eax
    4f3c:	7c a7                	jl     4ee5 <DEBUG_PRINT_AST+0x3e1>
    4f3e:	bf 5d 00 00 00       	mov    edi,0x5d
    4f43:	e8 f8 d0 ff ff       	call   2040 <putchar@plt>
    4f48:	e9 7c 02 00 00       	jmp    51c9 <DEBUG_PRINT_AST+0x6c5>
    4f4d:	48 8b 45 c0          	mov    rax,QWORD PTR [rbp-0x40]
    4f51:	8b 80 08 03 00 00    	mov    eax,DWORD PTR [rax+0x308]
    4f57:	48 98                	cdqe
    4f59:	48 01 c0             	add    rax,rax
    4f5c:	48 89 c6             	mov    rsi,rax
    4f5f:	48 8d 05 00 79 00 00 	lea    rax,[rip+0x7900]        # c866 <_IO_stdin_used+0x866>
    4f66:	48 89 c7             	mov    rdi,rax
    4f69:	b8 00 00 00 00       	mov    eax,0x0
    4f6e:	e8 2d d1 ff ff       	call   20a0 <printf@plt>
    4f73:	c7 45 d8 00 00 00 00 	mov    DWORD PTR [rbp-0x28],0x0
    4f7a:	eb 4c                	jmp    4fc8 <DEBUG_PRINT_AST+0x4c4>
    4f7c:	48 8b 45 c0          	mov    rax,QWORD PTR [rbp-0x40]
    4f80:	8b 55 d8             	mov    edx,DWORD PTR [rbp-0x28]
    4f83:	48 63 d2             	movsxd rdx,edx
    4f86:	48 83 ea 80          	sub    rdx,0xffffffffffffff80
    4f8a:	0f b7 44 50 08       	movzx  eax,WORD PTR [rax+rdx*2+0x8]
    4f8f:	0f b7 c0             	movzx  eax,ax
    4f92:	89 c6                	mov    esi,eax
    4f94:	48 8d 05 e0 78 00 00 	lea    rax,[rip+0x78e0]        # c87b <_IO_stdin_used+0x87b>
    4f9b:	48 89 c7             	mov    rdi,rax
    4f9e:	b8 00 00 00 00       	mov    eax,0x0
    4fa3:	e8 f8 d0 ff ff       	call   20a0 <printf@plt>
    4fa8:	48 8b 45 c0          	mov    rax,QWORD PTR [rbp-0x40]
    4fac:	8b 80 08 03 00 00    	mov    eax,DWORD PTR [rax+0x308]
    4fb2:	83 e8 01             	sub    eax,0x1
    4fb5:	39 45 d8             	cmp    DWORD PTR [rbp-0x28],eax
    4fb8:	7d 0a                	jge    4fc4 <DEBUG_PRINT_AST+0x4c0>
    4fba:	bf 20 00 00 00       	mov    edi,0x20
    4fbf:	e8 7c d0 ff ff       	call   2040 <putchar@plt>
    4fc4:	83 45 d8 01          	add    DWORD PTR [rbp-0x28],0x1
    4fc8:	48 8b 45 c0          	mov    rax,QWORD PTR [rbp-0x40]
    4fcc:	8b 80 08 03 00 00    	mov    eax,DWORD PTR [rax+0x308]
    4fd2:	39 45 d8             	cmp    DWORD PTR [rbp-0x28],eax
    4fd5:	7c a5                	jl     4f7c <DEBUG_PRINT_AST+0x478>
    4fd7:	bf 5d 00 00 00       	mov    edi,0x5d
    4fdc:	e8 5f d0 ff ff       	call   2040 <putchar@plt>
    4fe1:	e9 e3 01 00 00       	jmp    51c9 <DEBUG_PRINT_AST+0x6c5>
    4fe6:	48 8b 45 c0          	mov    rax,QWORD PTR [rbp-0x40]
    4fea:	8b 80 08 05 00 00    	mov    eax,DWORD PTR [rax+0x508]
    4ff0:	48 98                	cdqe
    4ff2:	48 c1 e0 02          	shl    rax,0x2
    4ff6:	48 89 c6             	mov    rsi,rax
    4ff9:	48 8d 05 66 78 00 00 	lea    rax,[rip+0x7866]        # c866 <_IO_stdin_used+0x866>
    5000:	48 89 c7             	mov    rdi,rax
    5003:	b8 00 00 00 00       	mov    eax,0x0
    5008:	e8 93 d0 ff ff       	call   20a0 <printf@plt>
    500d:	c7 45 d4 00 00 00 00 	mov    DWORD PTR [rbp-0x2c],0x0
    5014:	eb 48                	jmp    505e <DEBUG_PRINT_AST+0x55a>
    5016:	48 8b 45 c0          	mov    rax,QWORD PTR [rbp-0x40]
    501a:	8b 55 d4             	mov    edx,DWORD PTR [rbp-0x2c]
    501d:	48 63 d2             	movsxd rdx,edx
    5020:	48 83 c2 40          	add    rdx,0x40
    5024:	8b 44 90 08          	mov    eax,DWORD PTR [rax+rdx*4+0x8]
    5028:	89 c6                	mov    esi,eax
    502a:	48 8d 05 4f 78 00 00 	lea    rax,[rip+0x784f]        # c880 <_IO_stdin_used+0x880>
    5031:	48 89 c7             	mov    rdi,rax
    5034:	b8 00 00 00 00       	mov    eax,0x0
    5039:	e8 62 d0 ff ff       	call   20a0 <printf@plt>
    503e:	48 8b 45 c0          	mov    rax,QWORD PTR [rbp-0x40]
    5042:	8b 80 08 05 00 00    	mov    eax,DWORD PTR [rax+0x508]
    5048:	83 e8 01             	sub    eax,0x1
    504b:	39 45 d4             	cmp    DWORD PTR [rbp-0x2c],eax
    504e:	7d 0a                	jge    505a <DEBUG_PRINT_AST+0x556>
    5050:	bf 20 00 00 00       	mov    edi,0x20
    5055:	e8 e6 cf ff ff       	call   2040 <putchar@plt>
    505a:	83 45 d4 01          	add    DWORD PTR [rbp-0x2c],0x1
    505e:	48 8b 45 c0          	mov    rax,QWORD PTR [rbp-0x40]
    5062:	8b 80 08 05 00 00    	mov    eax,DWORD PTR [rax+0x508]
    5068:	39 45 d4             	cmp    DWORD PTR [rbp-0x2c],eax
    506b:	7c a9                	jl     5016 <DEBUG_PRINT_AST+0x512>
    506d:	bf 5d 00 00 00       	mov    edi,0x5d
    5072:	e8 c9 cf ff ff       	call   2040 <putchar@plt>
    5077:	e9 4d 01 00 00       	jmp    51c9 <DEBUG_PRINT_AST+0x6c5>
    507c:	48 8b 45 c0          	mov    rax,QWORD PTR [rbp-0x40]
    5080:	8b 80 08 09 00 00    	mov    eax,DWORD PTR [rax+0x908]
    5086:	48 98                	cdqe
    5088:	48 c1 e0 03          	shl    rax,0x3
    508c:	48 89 c6             	mov    rsi,rax
    508f:	48 8d 05 d0 77 00 00 	lea    rax,[rip+0x77d0]        # c866 <_IO_stdin_used+0x866>
    5096:	48 89 c7             	mov    rdi,rax
    5099:	b8 00 00 00 00       	mov    eax,0x0
    509e:	e8 fd cf ff ff       	call   20a0 <printf@plt>
    50a3:	c7 45 d0 00 00 00 00 	mov    DWORD PTR [rbp-0x30],0x0
    50aa:	eb 4a                	jmp    50f6 <DEBUG_PRINT_AST+0x5f2>
    50ac:	48 8b 45 c0          	mov    rax,QWORD PTR [rbp-0x40]
    50b0:	8b 55 d0             	mov    edx,DWORD PTR [rbp-0x30]
    50b3:	48 63 d2             	movsxd rdx,edx
    50b6:	48 83 c2 20          	add    rdx,0x20
    50ba:	48 8b 44 d0 08       	mov    rax,QWORD PTR [rax+rdx*8+0x8]
    50bf:	48 89 c6             	mov    rsi,rax
    50c2:	48 8d 05 bc 77 00 00 	lea    rax,[rip+0x77bc]        # c885 <_IO_stdin_used+0x885>
    50c9:	48 89 c7             	mov    rdi,rax
    50cc:	b8 00 00 00 00       	mov    eax,0x0
    50d1:	e8 ca cf ff ff       	call   20a0 <printf@plt>
    50d6:	48 8b 45 c0          	mov    rax,QWORD PTR [rbp-0x40]
    50da:	8b 80 08 09 00 00    	mov    eax,DWORD PTR [rax+0x908]
    50e0:	83 e8 01             	sub    eax,0x1
    50e3:	39 45 d0             	cmp    DWORD PTR [rbp-0x30],eax
    50e6:	7d 0a                	jge    50f2 <DEBUG_PRINT_AST+0x5ee>
    50e8:	bf 20 00 00 00       	mov    edi,0x20
    50ed:	e8 4e cf ff ff       	call   2040 <putchar@plt>
    50f2:	83 45 d0 01          	add    DWORD PTR [rbp-0x30],0x1
    50f6:	48 8b 45 c0          	mov    rax,QWORD PTR [rbp-0x40]
    50fa:	8b 80 08 09 00 00    	mov    eax,DWORD PTR [rax+0x908]
    5100:	39 45 d0             	cmp    DWORD PTR [rbp-0x30],eax
    5103:	7c a7                	jl     50ac <DEBUG_PRINT_AST+0x5a8>
    5105:	bf 5d 00 00 00       	mov    edi,0x5d
    510a:	e8 31 cf ff ff       	call   2040 <putchar@plt>
    510f:	e9 b5 00 00 00       	jmp    51c9 <DEBUG_PRINT_AST+0x6c5>
    5114:	48 8b 45 c0          	mov    rax,QWORD PTR [rbp-0x40]
    5118:	48 8b 80 08 01 00 00 	mov    rax,QWORD PTR [rax+0x108]
    511f:	48 89 c6             	mov    rsi,rax
    5122:	48 8d 05 64 77 00 00 	lea    rax,[rip+0x7764]        # c88d <_IO_stdin_used+0x88d>
    5129:	48 89 c7             	mov    rdi,rax
    512c:	b8 00 00 00 00       	mov    eax,0x0
    5131:	e8 6a cf ff ff       	call   20a0 <printf@plt>
    5136:	e9 8e 00 00 00       	jmp    51c9 <DEBUG_PRINT_AST+0x6c5>
    513b:	48 8b 45 c0          	mov    rax,QWORD PTR [rbp-0x40]
    513f:	48 8b 80 08 01 00 00 	mov    rax,QWORD PTR [rax+0x108]
    5146:	48 89 c6             	mov    rsi,rax
    5149:	48 8d 05 4d 77 00 00 	lea    rax,[rip+0x774d]        # c89d <_IO_stdin_used+0x89d>
    5150:	48 89 c7             	mov    rdi,rax
    5153:	b8 00 00 00 00       	mov    eax,0x0
    5158:	e8 43 cf ff ff       	call   20a0 <printf@plt>
    515d:	eb 6a                	jmp    51c9 <DEBUG_PRINT_AST+0x6c5>
    515f:	48 8b 45 c0          	mov    rax,QWORD PTR [rbp-0x40]
    5163:	48 8b 80 08 01 00 00 	mov    rax,QWORD PTR [rax+0x108]
    516a:	48 89 c6             	mov    rsi,rax
    516d:	48 8d 05 3a 77 00 00 	lea    rax,[rip+0x773a]        # c8ae <_IO_stdin_used+0x8ae>
    5174:	48 89 c7             	mov    rdi,rax
    5177:	b8 00 00 00 00       	mov    eax,0x0
    517c:	e8 1f cf ff ff       	call   20a0 <printf@plt>
    5181:	eb 46                	jmp    51c9 <DEBUG_PRINT_AST+0x6c5>
    5183:	48 8b 45 c0          	mov    rax,QWORD PTR [rbp-0x40]
    5187:	48 8b 80 08 01 00 00 	mov    rax,QWORD PTR [rax+0x108]
    518e:	48 89 c6             	mov    rsi,rax
    5191:	48 8d 05 27 77 00 00 	lea    rax,[rip+0x7727]        # c8bf <_IO_stdin_used+0x8bf>
    5198:	48 89 c7             	mov    rdi,rax
    519b:	b8 00 00 00 00       	mov    eax,0x0
    51a0:	e8 fb ce ff ff       	call   20a0 <printf@plt>
    51a5:	eb 22                	jmp    51c9 <DEBUG_PRINT_AST+0x6c5>
    51a7:	48 8b 45 c0          	mov    rax,QWORD PTR [rbp-0x40]
    51ab:	48 05 08 01 00 00    	add    rax,0x108
    51b1:	48 89 c6             	mov    rsi,rax
    51b4:	48 8d 05 15 77 00 00 	lea    rax,[rip+0x7715]        # c8d0 <_IO_stdin_used+0x8d0>
    51bb:	48 89 c7             	mov    rdi,rax
    51be:	b8 00 00 00 00       	mov    eax,0x0
    51c3:	e8 d8 ce ff ff       	call   20a0 <printf@plt>
    51c8:	90                   	nop
    51c9:	48 8b 45 c0          	mov    rax,QWORD PTR [rbp-0x40]
    51cd:	0f b6 80 50 09 00 00 	movzx  eax,BYTE PTR [rax+0x950]
    51d4:	84 c0                	test   al,al
    51d6:	0f 84 88 00 00 00    	je     5264 <DEBUG_PRINT_AST+0x760>
    51dc:	48 8d 05 f8 76 00 00 	lea    rax,[rip+0x76f8]        # c8db <_IO_stdin_used+0x8db>
    51e3:	48 89 c7             	mov    rdi,rax
    51e6:	b8 00 00 00 00       	mov    eax,0x0
    51eb:	e8 b0 ce ff ff       	call   20a0 <printf@plt>
    51f0:	c7 45 cc 00 00 00 00 	mov    DWORD PTR [rbp-0x34],0x0
    51f7:	eb 4e                	jmp    5247 <DEBUG_PRINT_AST+0x743>
    51f9:	48 8b 55 c0          	mov    rdx,QWORD PTR [rbp-0x40]
    51fd:	8b 45 cc             	mov    eax,DWORD PTR [rbp-0x34]
    5200:	48 98                	cdqe
    5202:	0f b6 84 02 10 09 00 	movzx  eax,BYTE PTR [rdx+rax*1+0x910]
    5209:	00 
    520a:	0f b6 c0             	movzx  eax,al
    520d:	89 c6                	mov    esi,eax
    520f:	48 8d 05 60 76 00 00 	lea    rax,[rip+0x7660]        # c876 <_IO_stdin_used+0x876>
    5216:	48 89 c7             	mov    rdi,rax
    5219:	b8 00 00 00 00       	mov    eax,0x0
    521e:	e8 7d ce ff ff       	call   20a0 <printf@plt>
    5223:	48 8b 45 c0          	mov    rax,QWORD PTR [rbp-0x40]
    5227:	0f b6 80 50 09 00 00 	movzx  eax,BYTE PTR [rax+0x950]
    522e:	0f b6 c0             	movzx  eax,al
    5231:	83 e8 01             	sub    eax,0x1
    5234:	39 45 cc             	cmp    DWORD PTR [rbp-0x34],eax
    5237:	7d 0a                	jge    5243 <DEBUG_PRINT_AST+0x73f>
    5239:	bf 20 00 00 00       	mov    edi,0x20
    523e:	e8 fd cd ff ff       	call   2040 <putchar@plt>
    5243:	83 45 cc 01          	add    DWORD PTR [rbp-0x34],0x1
    5247:	48 8b 45 c0          	mov    rax,QWORD PTR [rbp-0x40]
    524b:	0f b6 80 50 09 00 00 	movzx  eax,BYTE PTR [rax+0x950]
    5252:	0f b6 c0             	movzx  eax,al
    5255:	39 45 cc             	cmp    DWORD PTR [rbp-0x34],eax
    5258:	7c 9f                	jl     51f9 <DEBUG_PRINT_AST+0x6f5>
    525a:	bf 5d 00 00 00       	mov    edi,0x5d
    525f:	e8 dc cd ff ff       	call   2040 <putchar@plt>
    5264:	bf 0a 00 00 00       	mov    edi,0xa
    5269:	e8 d2 cd ff ff       	call   2040 <putchar@plt>
    526e:	83 45 fc 01          	add    DWORD PTR [rbp-0x4],0x1
    5272:	8b 05 48 64 26 00    	mov    eax,DWORD PTR [rip+0x266448]        # 26b6c0 <ast_count>
    5278:	39 45 fc             	cmp    DWORD PTR [rbp-0x4],eax
    527b:	0f 8c b3 f8 ff ff    	jl     4b34 <DEBUG_PRINT_AST+0x30>
    5281:	48 8d 05 63 76 00 00 	lea    rax,[rip+0x7663]        # c8eb <_IO_stdin_used+0x8eb>
    5288:	48 89 c7             	mov    rdi,rax
    528b:	e8 f0 cd ff ff       	call   2080 <puts@plt>
    5290:	90                   	nop
    5291:	c9                   	leave
    5292:	c3                   	ret

0000000000005293 <collect_labels>:
collect_labels():
    5293:	55                   	push   rbp
    5294:	48 89 e5             	mov    rbp,rsp
    5297:	48 83 ec 20          	sub    rsp,0x20
    529b:	48 c7 45 f8 00 10 40 	mov    QWORD PTR [rbp-0x8],0x401000
    52a2:	00 
    52a3:	c6 45 f7 00          	mov    BYTE PTR [rbp-0x9],0x0
    52a7:	48 c7 45 e8 00 10 40 	mov    QWORD PTR [rbp-0x18],0x401000
    52ae:	00 
    52af:	c7 45 e4 00 00 00 00 	mov    DWORD PTR [rbp-0x1c],0x0
    52b6:	e9 2f 02 00 00       	jmp    54ea <collect_labels+0x257>
    52bb:	8b 45 e4             	mov    eax,DWORD PTR [rbp-0x1c]
    52be:	48 98                	cdqe
    52c0:	48 69 c0 58 09 00 00 	imul   rax,rax,0x958
    52c7:	48 8d 15 f2 03 01 00 	lea    rdx,[rip+0x103f2]        # 156c0 <ast>
    52ce:	8b 04 10             	mov    eax,DWORD PTR [rax+rdx*1]
    52d1:	83 f8 0e             	cmp    eax,0xe
    52d4:	0f 85 d8 00 00 00    	jne    53b2 <collect_labels+0x11f>
    52da:	8b 45 e4             	mov    eax,DWORD PTR [rbp-0x1c]
    52dd:	48 98                	cdqe
    52df:	48 69 c0 58 09 00 00 	imul   rax,rax,0x958
    52e6:	48 8d 0d 1b 05 01 00 	lea    rcx,[rip+0x1051b]        # 15808 <ast+0x148>
    52ed:	48 8b 55 f8          	mov    rdx,QWORD PTR [rbp-0x8]
    52f1:	48 89 14 08          	mov    QWORD PTR [rax+rcx*1],rdx
    52f5:	8b 45 e4             	mov    eax,DWORD PTR [rbp-0x1c]
    52f8:	48 98                	cdqe
    52fa:	48 69 c0 58 09 00 00 	imul   rax,rax,0x958
    5301:	48 8d 0d 08 05 01 00 	lea    rcx,[rip+0x10508]        # 15810 <ast+0x150>
    5308:	48 8b 55 f8          	mov    rdx,QWORD PTR [rbp-0x8]
    530c:	48 89 14 08          	mov    QWORD PTR [rax+rcx*1],rdx
    5310:	8b 45 e4             	mov    eax,DWORD PTR [rbp-0x1c]
    5313:	48 98                	cdqe
    5315:	48 69 c0 58 09 00 00 	imul   rax,rax,0x958
    531c:	48 8d 15 f5 04 01 00 	lea    rdx,[rip+0x104f5]        # 15818 <ast+0x158>
    5323:	c6 04 10 01          	mov    BYTE PTR [rax+rdx*1],0x1
    5327:	8b 45 e4             	mov    eax,DWORD PTR [rbp-0x1c]
    532a:	48 98                	cdqe
    532c:	48 69 c0 58 09 00 00 	imul   rax,rax,0x958
    5333:	48 8d 90 00 01 00 00 	lea    rdx,[rax+0x100]
    533a:	48 8d 05 7f 03 01 00 	lea    rax,[rip+0x1037f]        # 156c0 <ast>
    5341:	48 01 d0             	add    rax,rdx
    5344:	48 8d 48 08          	lea    rcx,[rax+0x8]
    5348:	48 8b 45 f8          	mov    rax,QWORD PTR [rbp-0x8]
    534c:	48 89 c2             	mov    rdx,rax
    534f:	48 89 ce             	mov    rsi,rcx
    5352:	48 8d 05 67 76 00 00 	lea    rax,[rip+0x7667]        # c9c0 <_IO_stdin_used+0x9c0>
    5359:	48 89 c7             	mov    rdi,rax
    535c:	b8 00 00 00 00       	mov    eax,0x0
    5361:	e8 3a cd ff ff       	call   20a0 <printf@plt>
    5366:	8b 45 e4             	mov    eax,DWORD PTR [rbp-0x1c]
    5369:	48 98                	cdqe
    536b:	48 69 c0 58 09 00 00 	imul   rax,rax,0x958
    5372:	48 8d 90 00 01 00 00 	lea    rdx,[rax+0x100]
    5379:	48 8d 05 40 03 01 00 	lea    rax,[rip+0x10340]        # 156c0 <ast>
    5380:	48 01 d0             	add    rax,rdx
    5383:	48 83 c0 08          	add    rax,0x8
    5387:	48 8d 15 47 76 00 00 	lea    rdx,[rip+0x7647]        # c9d5 <_IO_stdin_used+0x9d5>
    538e:	48 89 d6             	mov    rsi,rdx
    5391:	48 89 c7             	mov    rdi,rax
    5394:	e8 57 cd ff ff       	call   20f0 <strcmp@plt>
    5399:	85 c0                	test   eax,eax
    539b:	0f 85 45 01 00 00    	jne    54e6 <collect_labels+0x253>
    53a1:	c6 45 f7 01          	mov    BYTE PTR [rbp-0x9],0x1
    53a5:	48 8b 45 f8          	mov    rax,QWORD PTR [rbp-0x8]
    53a9:	48 89 45 e8          	mov    QWORD PTR [rbp-0x18],rax
    53ad:	e9 34 01 00 00       	jmp    54e6 <collect_labels+0x253>
    53b2:	8b 45 e4             	mov    eax,DWORD PTR [rbp-0x1c]
    53b5:	48 98                	cdqe
    53b7:	48 69 c0 58 09 00 00 	imul   rax,rax,0x958
    53be:	48 8d 15 fb 02 01 00 	lea    rdx,[rip+0x102fb]        # 156c0 <ast>
    53c5:	8b 04 10             	mov    eax,DWORD PTR [rax+rdx*1]
    53c8:	83 f8 01             	cmp    eax,0x1
    53cb:	75 1f                	jne    53ec <collect_labels+0x159>
    53cd:	8b 45 e4             	mov    eax,DWORD PTR [rbp-0x1c]
    53d0:	48 98                	cdqe
    53d2:	48 69 c0 58 09 00 00 	imul   rax,rax,0x958
    53d9:	48 8d 15 30 0c 01 00 	lea    rdx,[rip+0x10c30]        # 16010 <ast+0x950>
    53e0:	0f b6 04 10          	movzx  eax,BYTE PTR [rax+rdx*1]
    53e4:	84 c0                	test   al,al
    53e6:	0f 85 dc 00 00 00    	jne    54c8 <collect_labels+0x235>
    53ec:	8b 45 e4             	mov    eax,DWORD PTR [rbp-0x1c]
    53ef:	48 98                	cdqe
    53f1:	48 69 c0 58 09 00 00 	imul   rax,rax,0x958
    53f8:	48 8d 15 c1 02 01 00 	lea    rdx,[rip+0x102c1]        # 156c0 <ast>
    53ff:	8b 04 10             	mov    eax,DWORD PTR [rax+rdx*1]
    5402:	83 f8 02             	cmp    eax,0x2
    5405:	75 1f                	jne    5426 <collect_labels+0x193>
    5407:	8b 45 e4             	mov    eax,DWORD PTR [rbp-0x1c]
    540a:	48 98                	cdqe
    540c:	48 69 c0 58 09 00 00 	imul   rax,rax,0x958
    5413:	48 8d 15 f6 0b 01 00 	lea    rdx,[rip+0x10bf6]        # 16010 <ast+0x950>
    541a:	0f b6 04 10          	movzx  eax,BYTE PTR [rax+rdx*1]
    541e:	84 c0                	test   al,al
    5420:	0f 85 a2 00 00 00    	jne    54c8 <collect_labels+0x235>
    5426:	8b 45 e4             	mov    eax,DWORD PTR [rbp-0x1c]
    5429:	48 98                	cdqe
    542b:	48 69 c0 58 09 00 00 	imul   rax,rax,0x958
    5432:	48 8d 15 87 02 01 00 	lea    rdx,[rip+0x10287]        # 156c0 <ast>
    5439:	8b 04 10             	mov    eax,DWORD PTR [rax+rdx*1]
    543c:	83 f8 04             	cmp    eax,0x4
    543f:	75 1b                	jne    545c <collect_labels+0x1c9>
    5441:	8b 45 e4             	mov    eax,DWORD PTR [rbp-0x1c]
    5444:	48 98                	cdqe
    5446:	48 69 c0 58 09 00 00 	imul   rax,rax,0x958
    544d:	48 8d 15 bc 0b 01 00 	lea    rdx,[rip+0x10bbc]        # 16010 <ast+0x950>
    5454:	0f b6 04 10          	movzx  eax,BYTE PTR [rax+rdx*1]
    5458:	84 c0                	test   al,al
    545a:	75 6c                	jne    54c8 <collect_labels+0x235>
    545c:	8b 45 e4             	mov    eax,DWORD PTR [rbp-0x1c]
    545f:	48 98                	cdqe
    5461:	48 69 c0 58 09 00 00 	imul   rax,rax,0x958
    5468:	48 8d 15 51 02 01 00 	lea    rdx,[rip+0x10251]        # 156c0 <ast>
    546f:	8b 04 10             	mov    eax,DWORD PTR [rax+rdx*1]
    5472:	83 f8 06             	cmp    eax,0x6
    5475:	75 1b                	jne    5492 <collect_labels+0x1ff>
    5477:	8b 45 e4             	mov    eax,DWORD PTR [rbp-0x1c]
    547a:	48 98                	cdqe
    547c:	48 69 c0 58 09 00 00 	imul   rax,rax,0x958
    5483:	48 8d 15 86 0b 01 00 	lea    rdx,[rip+0x10b86]        # 16010 <ast+0x950>
    548a:	0f b6 04 10          	movzx  eax,BYTE PTR [rax+rdx*1]
    548e:	84 c0                	test   al,al
    5490:	75 36                	jne    54c8 <collect_labels+0x235>
    5492:	8b 45 e4             	mov    eax,DWORD PTR [rbp-0x1c]
    5495:	48 98                	cdqe
    5497:	48 69 c0 58 09 00 00 	imul   rax,rax,0x958
    549e:	48 8d 15 1b 02 01 00 	lea    rdx,[rip+0x1021b]        # 156c0 <ast>
    54a5:	8b 04 10             	mov    eax,DWORD PTR [rax+rdx*1]
    54a8:	83 f8 08             	cmp    eax,0x8
    54ab:	75 39                	jne    54e6 <collect_labels+0x253>
    54ad:	8b 45 e4             	mov    eax,DWORD PTR [rbp-0x1c]
    54b0:	48 98                	cdqe
    54b2:	48 69 c0 58 09 00 00 	imul   rax,rax,0x958
    54b9:	48 8d 15 50 0b 01 00 	lea    rdx,[rip+0x10b50]        # 16010 <ast+0x950>
    54c0:	0f b6 04 10          	movzx  eax,BYTE PTR [rax+rdx*1]
    54c4:	84 c0                	test   al,al
    54c6:	74 1e                	je     54e6 <collect_labels+0x253>
    54c8:	8b 45 e4             	mov    eax,DWORD PTR [rbp-0x1c]
    54cb:	48 98                	cdqe
    54cd:	48 69 c0 58 09 00 00 	imul   rax,rax,0x958
    54d4:	48 8d 15 35 0b 01 00 	lea    rdx,[rip+0x10b35]        # 16010 <ast+0x950>
    54db:	0f b6 04 10          	movzx  eax,BYTE PTR [rax+rdx*1]
    54df:	0f b6 c0             	movzx  eax,al
    54e2:	48 01 45 f8          	add    QWORD PTR [rbp-0x8],rax
    54e6:	83 45 e4 01          	add    DWORD PTR [rbp-0x1c],0x1
    54ea:	8b 05 d0 61 26 00    	mov    eax,DWORD PTR [rip+0x2661d0]        # 26b6c0 <ast_count>
    54f0:	39 45 e4             	cmp    DWORD PTR [rbp-0x1c],eax
    54f3:	0f 8c c2 fd ff ff    	jl     52bb <collect_labels+0x28>
    54f9:	80 7d f7 00          	cmp    BYTE PTR [rbp-0x9],0x0
    54fd:	75 0f                	jne    550e <collect_labels+0x27b>
    54ff:	48 8d 05 da 74 00 00 	lea    rax,[rip+0x74da]        # c9e0 <_IO_stdin_used+0x9e0>
    5506:	48 89 c7             	mov    rdi,rax
    5509:	e8 72 cb ff ff       	call   2080 <puts@plt>
    550e:	48 8b 45 e8          	mov    rax,QWORD PTR [rbp-0x18]
    5512:	c9                   	leave
    5513:	c3                   	ret

0000000000005514 <resolve_labels>:
resolve_labels():
    5514:	55                   	push   rbp
    5515:	48 89 e5             	mov    rbp,rsp
    5518:	48 83 ec 60          	sub    rsp,0x60
    551c:	c7 45 fc 00 00 00 00 	mov    DWORD PTR [rbp-0x4],0x0
    5523:	e9 a4 04 00 00       	jmp    59cc <resolve_labels+0x4b8>
    5528:	8b 45 fc             	mov    eax,DWORD PTR [rbp-0x4]
    552b:	48 98                	cdqe
    552d:	48 69 c0 58 09 00 00 	imul   rax,rax,0x958
    5534:	48 8d 15 85 01 01 00 	lea    rdx,[rip+0x10185]        # 156c0 <ast>
    553b:	48 01 d0             	add    rax,rdx
    553e:	48 89 45 c0          	mov    QWORD PTR [rbp-0x40],rax
    5542:	48 8b 45 c0          	mov    rax,QWORD PTR [rbp-0x40]
    5546:	8b 00                	mov    eax,DWORD PTR [rax]
    5548:	83 f8 01             	cmp    eax,0x1
    554b:	0f 85 76 04 00 00    	jne    59c7 <resolve_labels+0x4b3>
    5551:	48 8b 45 c0          	mov    rax,QWORD PTR [rbp-0x40]
    5555:	8b 80 a8 01 00 00    	mov    eax,DWORD PTR [rax+0x1a8]
    555b:	85 c0                	test   eax,eax
    555d:	0f 85 64 04 00 00    	jne    59c7 <resolve_labels+0x4b3>
    5563:	48 8b 45 c0          	mov    rax,QWORD PTR [rbp-0x40]
    5567:	48 83 c0 04          	add    rax,0x4
    556b:	48 8d 15 96 6a 00 00 	lea    rdx,[rip+0x6a96]        # c008 <_IO_stdin_used+0x8>
    5572:	48 89 d6             	mov    rsi,rdx
    5575:	48 89 c7             	mov    rdi,rax
    5578:	e8 d3 ca ff ff       	call   2050 <strcasecmp@plt>
    557d:	85 c0                	test   eax,eax
    557f:	0f 85 31 01 00 00    	jne    56b6 <resolve_labels+0x1a2>
    5585:	48 8b 45 c0          	mov    rax,QWORD PTR [rbp-0x40]
    5589:	8b 80 94 01 00 00    	mov    eax,DWORD PTR [rax+0x194]
    558f:	83 f8 06             	cmp    eax,0x6
    5592:	0f 85 1e 01 00 00    	jne    56b6 <resolve_labels+0x1a2>
    5598:	48 8b 45 c0          	mov    rax,QWORD PTR [rbp-0x40]
    559c:	8b 80 98 01 00 00    	mov    eax,DWORD PTR [rax+0x198]
    55a2:	83 f8 09             	cmp    eax,0x9
    55a5:	0f 85 0b 01 00 00    	jne    56b6 <resolve_labels+0x1a2>
    55ab:	48 8b 45 c0          	mov    rax,QWORD PTR [rbp-0x40]
    55af:	48 05 2b 01 00 00    	add    rax,0x12b
    55b5:	48 89 45 b8          	mov    QWORD PTR [rbp-0x48],rax
    55b9:	48 c7 45 f0 00 00 00 	mov    QWORD PTR [rbp-0x10],0x0
    55c0:	00 
    55c1:	c7 45 ec 00 00 00 00 	mov    DWORD PTR [rbp-0x14],0x0
    55c8:	c7 45 e8 00 00 00 00 	mov    DWORD PTR [rbp-0x18],0x0
    55cf:	eb 77                	jmp    5648 <resolve_labels+0x134>
    55d1:	8b 45 e8             	mov    eax,DWORD PTR [rbp-0x18]
    55d4:	48 98                	cdqe
    55d6:	48 69 c0 58 09 00 00 	imul   rax,rax,0x958
    55dd:	48 8d 15 dc 00 01 00 	lea    rdx,[rip+0x100dc]        # 156c0 <ast>
    55e4:	8b 04 10             	mov    eax,DWORD PTR [rax+rdx*1]
    55e7:	83 f8 0e             	cmp    eax,0xe
    55ea:	75 58                	jne    5644 <resolve_labels+0x130>
    55ec:	8b 45 e8             	mov    eax,DWORD PTR [rbp-0x18]
    55ef:	48 98                	cdqe
    55f1:	48 69 c0 58 09 00 00 	imul   rax,rax,0x958
    55f8:	48 8d 90 00 01 00 00 	lea    rdx,[rax+0x100]
    55ff:	48 8d 05 ba 00 01 00 	lea    rax,[rip+0x100ba]        # 156c0 <ast>
    5606:	48 01 d0             	add    rax,rdx
    5609:	48 8d 50 08          	lea    rdx,[rax+0x8]
    560d:	48 8b 45 b8          	mov    rax,QWORD PTR [rbp-0x48]
    5611:	48 89 c6             	mov    rsi,rax
    5614:	48 89 d7             	mov    rdi,rdx
    5617:	e8 d4 ca ff ff       	call   20f0 <strcmp@plt>
    561c:	85 c0                	test   eax,eax
    561e:	75 24                	jne    5644 <resolve_labels+0x130>
    5620:	8b 45 e8             	mov    eax,DWORD PTR [rbp-0x18]
    5623:	48 98                	cdqe
    5625:	48 69 c0 58 09 00 00 	imul   rax,rax,0x958
    562c:	48 8d 15 dd 01 01 00 	lea    rdx,[rip+0x101dd]        # 15810 <ast+0x150>
    5633:	48 8b 04 10          	mov    rax,QWORD PTR [rax+rdx*1]
    5637:	48 89 45 f0          	mov    QWORD PTR [rbp-0x10],rax
    563b:	c7 45 ec 01 00 00 00 	mov    DWORD PTR [rbp-0x14],0x1
    5642:	eb 13                	jmp    5657 <resolve_labels+0x143>
    5644:	83 45 e8 01          	add    DWORD PTR [rbp-0x18],0x1
    5648:	8b 05 72 60 26 00    	mov    eax,DWORD PTR [rip+0x266072]        # 26b6c0 <ast_count>
    564e:	39 45 e8             	cmp    DWORD PTR [rbp-0x18],eax
    5651:	0f 8c 7a ff ff ff    	jl     55d1 <resolve_labels+0xbd>
    5657:	83 7d ec 00          	cmp    DWORD PTR [rbp-0x14],0x0
    565b:	75 2c                	jne    5689 <resolve_labels+0x175>
    565d:	48 8b 05 fc 9f 00 00 	mov    rax,QWORD PTR [rip+0x9ffc]        # f660 <stderr@GLIBC_2.2.5>
    5664:	48 8b 55 b8          	mov    rdx,QWORD PTR [rbp-0x48]
    5668:	48 8d 0d bb 73 00 00 	lea    rcx,[rip+0x73bb]        # ca2a <_IO_stdin_used+0xa2a>
    566f:	48 89 ce             	mov    rsi,rcx
    5672:	48 89 c7             	mov    rdi,rax
    5675:	b8 00 00 00 00       	mov    eax,0x0
    567a:	e8 81 ca ff ff       	call   2100 <fprintf@plt>
    567f:	bf 01 00 00 00       	mov    edi,0x1
    5684:	e8 d7 ca ff ff       	call   2160 <exit@plt>
    5689:	48 8b 45 c0          	mov    rax,QWORD PTR [rbp-0x40]
    568d:	48 8d 90 12 09 00 00 	lea    rdx,[rax+0x912]
    5694:	48 8b 45 f0          	mov    rax,QWORD PTR [rbp-0x10]
    5698:	48 89 d6             	mov    rsi,rdx
    569b:	48 89 c7             	mov    rdi,rax
    569e:	e8 3b db ff ff       	call   31de <As64>
    56a3:	48 8b 45 c0          	mov    rax,QWORD PTR [rbp-0x40]
    56a7:	c7 80 a8 01 00 00 01 	mov    DWORD PTR [rax+0x1a8],0x1
    56ae:	00 00 00 
    56b1:	e9 12 03 00 00       	jmp    59c8 <resolve_labels+0x4b4>
    56b6:	48 8b 45 c0          	mov    rax,QWORD PTR [rbp-0x40]
    56ba:	48 83 c0 04          	add    rax,0x4
    56be:	48 8d 15 5d 69 00 00 	lea    rdx,[rip+0x695d]        # c022 <_IO_stdin_used+0x22>
    56c5:	48 89 d6             	mov    rsi,rdx
    56c8:	48 89 c7             	mov    rdi,rax
    56cb:	e8 80 c9 ff ff       	call   2050 <strcasecmp@plt>
    56d0:	85 c0                	test   eax,eax
    56d2:	74 40                	je     5714 <resolve_labels+0x200>
    56d4:	48 8b 45 c0          	mov    rax,QWORD PTR [rbp-0x40]
    56d8:	48 83 c0 04          	add    rax,0x4
    56dc:	48 8d 15 3a 69 00 00 	lea    rdx,[rip+0x693a]        # c01d <_IO_stdin_used+0x1d>
    56e3:	48 89 d6             	mov    rsi,rdx
    56e6:	48 89 c7             	mov    rdi,rax
    56e9:	e8 62 c9 ff ff       	call   2050 <strcasecmp@plt>
    56ee:	85 c0                	test   eax,eax
    56f0:	74 22                	je     5714 <resolve_labels+0x200>
    56f2:	48 8b 45 c0          	mov    rax,QWORD PTR [rbp-0x40]
    56f6:	48 83 c0 04          	add    rax,0x4
    56fa:	48 89 c6             	mov    rsi,rax
    56fd:	48 8d 05 fc 9a 00 00 	lea    rax,[rip+0x9afc]        # f200 <JCC>
    5704:	48 89 c7             	mov    rdi,rax
    5707:	e8 de cb ff ff       	call   22ea <is2arrin>
    570c:	85 c0                	test   eax,eax
    570e:	0f 84 b4 02 00 00    	je     59c8 <resolve_labels+0x4b4>
    5714:	48 8b 45 c0          	mov    rax,QWORD PTR [rbp-0x40]
    5718:	8b 80 94 01 00 00    	mov    eax,DWORD PTR [rax+0x194]
    571e:	83 f8 09             	cmp    eax,0x9
    5721:	0f 85 a1 02 00 00    	jne    59c8 <resolve_labels+0x4b4>
    5727:	48 8b 45 c0          	mov    rax,QWORD PTR [rbp-0x40]
    572b:	48 05 08 01 00 00    	add    rax,0x108
    5731:	48 89 45 b0          	mov    QWORD PTR [rbp-0x50],rax
    5735:	48 c7 45 e0 00 00 00 	mov    QWORD PTR [rbp-0x20],0x0
    573c:	00 
    573d:	c7 45 dc 00 00 00 00 	mov    DWORD PTR [rbp-0x24],0x0
    5744:	c7 45 d8 00 00 00 00 	mov    DWORD PTR [rbp-0x28],0x0
    574b:	eb 77                	jmp    57c4 <resolve_labels+0x2b0>
    574d:	8b 45 d8             	mov    eax,DWORD PTR [rbp-0x28]
    5750:	48 98                	cdqe
    5752:	48 69 c0 58 09 00 00 	imul   rax,rax,0x958
    5759:	48 8d 15 60 ff 00 00 	lea    rdx,[rip+0xff60]        # 156c0 <ast>
    5760:	8b 04 10             	mov    eax,DWORD PTR [rax+rdx*1]
    5763:	83 f8 0e             	cmp    eax,0xe
    5766:	75 58                	jne    57c0 <resolve_labels+0x2ac>
    5768:	8b 45 d8             	mov    eax,DWORD PTR [rbp-0x28]
    576b:	48 98                	cdqe
    576d:	48 69 c0 58 09 00 00 	imul   rax,rax,0x958
    5774:	48 8d 90 00 01 00 00 	lea    rdx,[rax+0x100]
    577b:	48 8d 05 3e ff 00 00 	lea    rax,[rip+0xff3e]        # 156c0 <ast>
    5782:	48 01 d0             	add    rax,rdx
    5785:	48 8d 50 08          	lea    rdx,[rax+0x8]
    5789:	48 8b 45 b0          	mov    rax,QWORD PTR [rbp-0x50]
    578d:	48 89 c6             	mov    rsi,rax
    5790:	48 89 d7             	mov    rdi,rdx
    5793:	e8 58 c9 ff ff       	call   20f0 <strcmp@plt>
    5798:	85 c0                	test   eax,eax
    579a:	75 24                	jne    57c0 <resolve_labels+0x2ac>
    579c:	8b 45 d8             	mov    eax,DWORD PTR [rbp-0x28]
    579f:	48 98                	cdqe
    57a1:	48 69 c0 58 09 00 00 	imul   rax,rax,0x958
    57a8:	48 8d 15 61 00 01 00 	lea    rdx,[rip+0x10061]        # 15810 <ast+0x150>
    57af:	48 8b 04 10          	mov    rax,QWORD PTR [rax+rdx*1]
    57b3:	48 89 45 e0          	mov    QWORD PTR [rbp-0x20],rax
    57b7:	c7 45 dc 01 00 00 00 	mov    DWORD PTR [rbp-0x24],0x1
    57be:	eb 13                	jmp    57d3 <resolve_labels+0x2bf>
    57c0:	83 45 d8 01          	add    DWORD PTR [rbp-0x28],0x1
    57c4:	8b 05 f6 5e 26 00    	mov    eax,DWORD PTR [rip+0x265ef6]        # 26b6c0 <ast_count>
    57ca:	39 45 d8             	cmp    DWORD PTR [rbp-0x28],eax
    57cd:	0f 8c 7a ff ff ff    	jl     574d <resolve_labels+0x239>
    57d3:	83 7d dc 00          	cmp    DWORD PTR [rbp-0x24],0x0
    57d7:	75 2c                	jne    5805 <resolve_labels+0x2f1>
    57d9:	48 8b 05 80 9e 00 00 	mov    rax,QWORD PTR [rip+0x9e80]        # f660 <stderr@GLIBC_2.2.5>
    57e0:	48 8b 55 b0          	mov    rdx,QWORD PTR [rbp-0x50]
    57e4:	48 8d 0d 3f 72 00 00 	lea    rcx,[rip+0x723f]        # ca2a <_IO_stdin_used+0xa2a>
    57eb:	48 89 ce             	mov    rsi,rcx
    57ee:	48 89 c7             	mov    rdi,rax
    57f1:	b8 00 00 00 00       	mov    eax,0x0
    57f6:	e8 05 c9 ff ff       	call   2100 <fprintf@plt>
    57fb:	bf 01 00 00 00       	mov    edi,0x1
    5800:	e8 5b c9 ff ff       	call   2160 <exit@plt>
    5805:	48 c7 45 d0 00 10 40 	mov    QWORD PTR [rbp-0x30],0x401000
    580c:	00 
    580d:	c7 45 cc 00 00 00 00 	mov    DWORD PTR [rbp-0x34],0x0
    5814:	e9 38 01 00 00       	jmp    5951 <resolve_labels+0x43d>
    5819:	8b 45 cc             	mov    eax,DWORD PTR [rbp-0x34]
    581c:	48 98                	cdqe
    581e:	48 69 c0 58 09 00 00 	imul   rax,rax,0x958
    5825:	48 8d 15 94 fe 00 00 	lea    rdx,[rip+0xfe94]        # 156c0 <ast>
    582c:	8b 04 10             	mov    eax,DWORD PTR [rax+rdx*1]
    582f:	83 f8 01             	cmp    eax,0x1
    5832:	75 1f                	jne    5853 <resolve_labels+0x33f>
    5834:	8b 45 cc             	mov    eax,DWORD PTR [rbp-0x34]
    5837:	48 98                	cdqe
    5839:	48 69 c0 58 09 00 00 	imul   rax,rax,0x958
    5840:	48 8d 15 c9 07 01 00 	lea    rdx,[rip+0x107c9]        # 16010 <ast+0x950>
    5847:	0f b6 04 10          	movzx  eax,BYTE PTR [rax+rdx*1]
    584b:	84 c0                	test   al,al
    584d:	0f 85 dc 00 00 00    	jne    592f <resolve_labels+0x41b>
    5853:	8b 45 cc             	mov    eax,DWORD PTR [rbp-0x34]
    5856:	48 98                	cdqe
    5858:	48 69 c0 58 09 00 00 	imul   rax,rax,0x958
    585f:	48 8d 15 5a fe 00 00 	lea    rdx,[rip+0xfe5a]        # 156c0 <ast>
    5866:	8b 04 10             	mov    eax,DWORD PTR [rax+rdx*1]
    5869:	83 f8 02             	cmp    eax,0x2
    586c:	75 1f                	jne    588d <resolve_labels+0x379>
    586e:	8b 45 cc             	mov    eax,DWORD PTR [rbp-0x34]
    5871:	48 98                	cdqe
    5873:	48 69 c0 58 09 00 00 	imul   rax,rax,0x958
    587a:	48 8d 15 8f 07 01 00 	lea    rdx,[rip+0x1078f]        # 16010 <ast+0x950>
    5881:	0f b6 04 10          	movzx  eax,BYTE PTR [rax+rdx*1]
    5885:	84 c0                	test   al,al
    5887:	0f 85 a2 00 00 00    	jne    592f <resolve_labels+0x41b>
    588d:	8b 45 cc             	mov    eax,DWORD PTR [rbp-0x34]
    5890:	48 98                	cdqe
    5892:	48 69 c0 58 09 00 00 	imul   rax,rax,0x958
    5899:	48 8d 15 20 fe 00 00 	lea    rdx,[rip+0xfe20]        # 156c0 <ast>
    58a0:	8b 04 10             	mov    eax,DWORD PTR [rax+rdx*1]
    58a3:	83 f8 04             	cmp    eax,0x4
    58a6:	75 1b                	jne    58c3 <resolve_labels+0x3af>
    58a8:	8b 45 cc             	mov    eax,DWORD PTR [rbp-0x34]
    58ab:	48 98                	cdqe
    58ad:	48 69 c0 58 09 00 00 	imul   rax,rax,0x958
    58b4:	48 8d 15 55 07 01 00 	lea    rdx,[rip+0x10755]        # 16010 <ast+0x950>
    58bb:	0f b6 04 10          	movzx  eax,BYTE PTR [rax+rdx*1]
    58bf:	84 c0                	test   al,al
    58c1:	75 6c                	jne    592f <resolve_labels+0x41b>
    58c3:	8b 45 cc             	mov    eax,DWORD PTR [rbp-0x34]
    58c6:	48 98                	cdqe
    58c8:	48 69 c0 58 09 00 00 	imul   rax,rax,0x958
    58cf:	48 8d 15 ea fd 00 00 	lea    rdx,[rip+0xfdea]        # 156c0 <ast>
    58d6:	8b 04 10             	mov    eax,DWORD PTR [rax+rdx*1]
    58d9:	83 f8 06             	cmp    eax,0x6
    58dc:	75 1b                	jne    58f9 <resolve_labels+0x3e5>
    58de:	8b 45 cc             	mov    eax,DWORD PTR [rbp-0x34]
    58e1:	48 98                	cdqe
    58e3:	48 69 c0 58 09 00 00 	imul   rax,rax,0x958
    58ea:	48 8d 15 1f 07 01 00 	lea    rdx,[rip+0x1071f]        # 16010 <ast+0x950>
    58f1:	0f b6 04 10          	movzx  eax,BYTE PTR [rax+rdx*1]
    58f5:	84 c0                	test   al,al
    58f7:	75 36                	jne    592f <resolve_labels+0x41b>
    58f9:	8b 45 cc             	mov    eax,DWORD PTR [rbp-0x34]
    58fc:	48 98                	cdqe
    58fe:	48 69 c0 58 09 00 00 	imul   rax,rax,0x958
    5905:	48 8d 15 b4 fd 00 00 	lea    rdx,[rip+0xfdb4]        # 156c0 <ast>
    590c:	8b 04 10             	mov    eax,DWORD PTR [rax+rdx*1]
    590f:	83 f8 08             	cmp    eax,0x8
    5912:	75 39                	jne    594d <resolve_labels+0x439>
    5914:	8b 45 cc             	mov    eax,DWORD PTR [rbp-0x34]
    5917:	48 98                	cdqe
    5919:	48 69 c0 58 09 00 00 	imul   rax,rax,0x958
    5920:	48 8d 15 e9 06 01 00 	lea    rdx,[rip+0x106e9]        # 16010 <ast+0x950>
    5927:	0f b6 04 10          	movzx  eax,BYTE PTR [rax+rdx*1]
    592b:	84 c0                	test   al,al
    592d:	74 1e                	je     594d <resolve_labels+0x439>
    592f:	8b 45 cc             	mov    eax,DWORD PTR [rbp-0x34]
    5932:	48 98                	cdqe
    5934:	48 69 c0 58 09 00 00 	imul   rax,rax,0x958
    593b:	48 8d 15 ce 06 01 00 	lea    rdx,[rip+0x106ce]        # 16010 <ast+0x950>
    5942:	0f b6 04 10          	movzx  eax,BYTE PTR [rax+rdx*1]
    5946:	0f b6 c0             	movzx  eax,al
    5949:	48 01 45 d0          	add    QWORD PTR [rbp-0x30],rax
    594d:	83 45 cc 01          	add    DWORD PTR [rbp-0x34],0x1
    5951:	8b 45 cc             	mov    eax,DWORD PTR [rbp-0x34]
    5954:	3b 45 fc             	cmp    eax,DWORD PTR [rbp-0x4]
    5957:	0f 8c bc fe ff ff    	jl     5819 <resolve_labels+0x305>
    595d:	48 8b 45 e0          	mov    rax,QWORD PTR [rbp-0x20]
    5961:	89 c1                	mov    ecx,eax
    5963:	48 8b 45 d0          	mov    rax,QWORD PTR [rbp-0x30]
    5967:	89 c2                	mov    edx,eax
    5969:	48 8b 45 c0          	mov    rax,QWORD PTR [rbp-0x40]
    596d:	0f b6 80 50 09 00 00 	movzx  eax,BYTE PTR [rax+0x950]
    5974:	0f b6 c0             	movzx  eax,al
    5977:	01 c2                	add    edx,eax
    5979:	89 c8                	mov    eax,ecx
    597b:	29 d0                	sub    eax,edx
    597d:	89 45 ac             	mov    DWORD PTR [rbp-0x54],eax
    5980:	48 8b 45 c0          	mov    rax,QWORD PTR [rbp-0x40]
    5984:	48 8d 70 04          	lea    rsi,[rax+0x4]
    5988:	8b 7d ac             	mov    edi,DWORD PTR [rbp-0x54]
    598b:	48 8b 4d d0          	mov    rcx,QWORD PTR [rbp-0x30]
    598f:	48 8b 55 e0          	mov    rdx,QWORD PTR [rbp-0x20]
    5993:	48 8b 45 b0          	mov    rax,QWORD PTR [rbp-0x50]
    5997:	41 89 f9             	mov    r9d,edi
    599a:	49 89 c8             	mov    r8,rcx
    599d:	48 89 d1             	mov    rcx,rdx
    59a0:	48 89 c2             	mov    rdx,rax
    59a3:	48 8d 05 9e 70 00 00 	lea    rax,[rip+0x709e]        # ca48 <_IO_stdin_used+0xa48>
    59aa:	48 89 c7             	mov    rdi,rax
    59ad:	b8 00 00 00 00       	mov    eax,0x0
    59b2:	e8 e9 c6 ff ff       	call   20a0 <printf@plt>
    59b7:	48 8b 45 c0          	mov    rax,QWORD PTR [rbp-0x40]
    59bb:	c7 80 a8 01 00 00 01 	mov    DWORD PTR [rax+0x1a8],0x1
    59c2:	00 00 00 
    59c5:	eb 01                	jmp    59c8 <resolve_labels+0x4b4>
    59c7:	90                   	nop
    59c8:	83 45 fc 01          	add    DWORD PTR [rbp-0x4],0x1
    59cc:	8b 05 ee 5c 26 00    	mov    eax,DWORD PTR [rip+0x265cee]        # 26b6c0 <ast_count>
    59d2:	39 45 fc             	cmp    DWORD PTR [rbp-0x4],eax
    59d5:	0f 8c 4d fb ff ff    	jl     5528 <resolve_labels+0x14>
    59db:	90                   	nop
    59dc:	90                   	nop
    59dd:	c9                   	leave
    59de:	c3                   	ret

00000000000059df <PARSE>:
PARSE():
    59df:	55                   	push   rbp
    59e0:	48 89 e5             	mov    rbp,rsp
    59e3:	48 81 ec 80 09 00 00 	sub    rsp,0x980
    59ea:	c7 45 fc 00 00 00 00 	mov    DWORD PTR [rbp-0x4],0x0
    59f1:	e9 3a 22 00 00       	jmp    7c30 <PARSE+0x2251>
    59f6:	8b 45 fc             	mov    eax,DWORD PTR [rbp-0x4]
    59f9:	48 63 d0             	movsxd rdx,eax
    59fc:	48 89 d0             	mov    rax,rdx
    59ff:	48 01 c0             	add    rax,rax
    5a02:	48 01 d0             	add    rax,rdx
    5a05:	48 c1 e0 03          	shl    rax,0x3
    5a09:	48 8d 15 90 9c 00 00 	lea    rdx,[rip+0x9c90]        # f6a0 <toks>
    5a10:	48 01 d0             	add    rax,rdx
    5a13:	48 89 45 e8          	mov    QWORD PTR [rbp-0x18],rax
    5a17:	48 8d 95 80 f6 ff ff 	lea    rdx,[rbp-0x980]
    5a1e:	b8 00 00 00 00       	mov    eax,0x0
    5a23:	b9 2b 01 00 00       	mov    ecx,0x12b
    5a28:	48 89 d7             	mov    rdi,rdx
    5a2b:	f3 48 ab             	rep stos QWORD PTR es:[rdi],rax
    5a2e:	48 8b 45 e8          	mov    rax,QWORD PTR [rbp-0x18]
    5a32:	8b 00                	mov    eax,DWORD PTR [rax]
    5a34:	85 c0                	test   eax,eax
    5a36:	0f 85 9e 06 00 00    	jne    60da <PARSE+0x6fb>
    5a3c:	c7 85 80 f6 ff ff 01 	mov    DWORD PTR [rbp-0x980],0x1
    5a43:	00 00 00 
    5a46:	c7 85 24 f8 ff ff 00 	mov    DWORD PTR [rbp-0x7dc],0x0
    5a4d:	00 00 00 
    5a50:	8b 45 fc             	mov    eax,DWORD PTR [rbp-0x4]
    5a53:	48 63 d0             	movsxd rdx,eax
    5a56:	48 89 d0             	mov    rax,rdx
    5a59:	48 01 c0             	add    rax,rax
    5a5c:	48 01 d0             	add    rax,rdx
    5a5f:	48 c1 e0 03          	shl    rax,0x3
    5a63:	48 89 c2             	mov    rdx,rax
    5a66:	48 8d 05 3b 9c 00 00 	lea    rax,[rip+0x9c3b]        # f6a8 <toks+0x8>
    5a6d:	48 8b 04 02          	mov    rax,QWORD PTR [rdx+rax*1]
    5a71:	48 8d 95 80 f6 ff ff 	lea    rdx,[rbp-0x980]
    5a78:	48 8d 4a 04          	lea    rcx,[rdx+0x4]
    5a7c:	ba 00 01 00 00       	mov    edx,0x100
    5a81:	48 89 c6             	mov    rsi,rax
    5a84:	48 89 cf             	mov    rdi,rcx
    5a87:	e8 d4 c5 ff ff       	call   2060 <strncpy@plt>
    5a8c:	83 45 fc 01          	add    DWORD PTR [rbp-0x4],0x1
    5a90:	e9 be 05 00 00       	jmp    6053 <PARSE+0x674>
    5a95:	8b 45 fc             	mov    eax,DWORD PTR [rbp-0x4]
    5a98:	48 63 d0             	movsxd rdx,eax
    5a9b:	48 89 d0             	mov    rax,rdx
    5a9e:	48 01 c0             	add    rax,rax
    5aa1:	48 01 d0             	add    rax,rdx
    5aa4:	48 c1 e0 03          	shl    rax,0x3
    5aa8:	48 89 c2             	mov    rdx,rax
    5aab:	48 8d 05 ee 9b 00 00 	lea    rax,[rip+0x9bee]        # f6a0 <toks>
    5ab2:	8b 04 02             	mov    eax,DWORD PTR [rdx+rax*1]
    5ab5:	83 f8 18             	cmp    eax,0x18
    5ab8:	75 09                	jne    5ac3 <PARSE+0xe4>
    5aba:	83 45 fc 01          	add    DWORD PTR [rbp-0x4],0x1
    5abe:	e9 90 05 00 00       	jmp    6053 <PARSE+0x674>
    5ac3:	8b 45 fc             	mov    eax,DWORD PTR [rbp-0x4]
    5ac6:	48 63 d0             	movsxd rdx,eax
    5ac9:	48 89 d0             	mov    rax,rdx
    5acc:	48 01 c0             	add    rax,rax
    5acf:	48 01 d0             	add    rax,rdx
    5ad2:	48 c1 e0 03          	shl    rax,0x3
    5ad6:	48 89 c2             	mov    rdx,rax
    5ad9:	48 8d 05 c0 9b 00 00 	lea    rax,[rip+0x9bc0]        # f6a0 <toks>
    5ae0:	8b 04 02             	mov    eax,DWORD PTR [rdx+rax*1]
    5ae3:	83 f8 03             	cmp    eax,0x3
    5ae6:	74 73                	je     5b5b <PARSE+0x17c>
    5ae8:	8b 45 fc             	mov    eax,DWORD PTR [rbp-0x4]
    5aeb:	48 63 d0             	movsxd rdx,eax
    5aee:	48 89 d0             	mov    rax,rdx
    5af1:	48 01 c0             	add    rax,rax
    5af4:	48 01 d0             	add    rax,rdx
    5af7:	48 c1 e0 03          	shl    rax,0x3
    5afb:	48 89 c2             	mov    rdx,rax
    5afe:	48 8d 05 9b 9b 00 00 	lea    rax,[rip+0x9b9b]        # f6a0 <toks>
    5b05:	8b 04 02             	mov    eax,DWORD PTR [rdx+rax*1]
    5b08:	83 f8 04             	cmp    eax,0x4
    5b0b:	74 4e                	je     5b5b <PARSE+0x17c>
    5b0d:	8b 45 fc             	mov    eax,DWORD PTR [rbp-0x4]
    5b10:	48 63 d0             	movsxd rdx,eax
    5b13:	48 89 d0             	mov    rax,rdx
    5b16:	48 01 c0             	add    rax,rax
    5b19:	48 01 d0             	add    rax,rdx
    5b1c:	48 c1 e0 03          	shl    rax,0x3
    5b20:	48 89 c2             	mov    rdx,rax
    5b23:	48 8d 05 76 9b 00 00 	lea    rax,[rip+0x9b76]        # f6a0 <toks>
    5b2a:	8b 04 02             	mov    eax,DWORD PTR [rdx+rax*1]
    5b2d:	83 f8 05             	cmp    eax,0x5
    5b30:	74 29                	je     5b5b <PARSE+0x17c>
    5b32:	8b 45 fc             	mov    eax,DWORD PTR [rbp-0x4]
    5b35:	48 63 d0             	movsxd rdx,eax
    5b38:	48 89 d0             	mov    rax,rdx
    5b3b:	48 01 c0             	add    rax,rax
    5b3e:	48 01 d0             	add    rax,rdx
    5b41:	48 c1 e0 03          	shl    rax,0x3
    5b45:	48 89 c2             	mov    rdx,rax
    5b48:	48 8d 05 51 9b 00 00 	lea    rax,[rip+0x9b51]        # f6a0 <toks>
    5b4f:	8b 04 02             	mov    eax,DWORD PTR [rdx+rax*1]
    5b52:	83 f8 06             	cmp    eax,0x6
    5b55:	0f 85 6e 01 00 00    	jne    5cc9 <PARSE+0x2ea>
    5b5b:	8b 45 fc             	mov    eax,DWORD PTR [rbp-0x4]
    5b5e:	48 63 d0             	movsxd rdx,eax
    5b61:	48 89 d0             	mov    rax,rdx
    5b64:	48 01 c0             	add    rax,rax
    5b67:	48 01 d0             	add    rax,rdx
    5b6a:	48 c1 e0 03          	shl    rax,0x3
    5b6e:	48 89 c2             	mov    rdx,rax
    5b71:	48 8d 05 28 9b 00 00 	lea    rax,[rip+0x9b28]        # f6a0 <toks>
    5b78:	8b 04 02             	mov    eax,DWORD PTR [rdx+rax*1]
    5b7b:	89 45 dc             	mov    DWORD PTR [rbp-0x24],eax
    5b7e:	8b 45 fc             	mov    eax,DWORD PTR [rbp-0x4]
    5b81:	8d 50 01             	lea    edx,[rax+0x1]
    5b84:	89 55 fc             	mov    DWORD PTR [rbp-0x4],edx
    5b87:	48 63 d0             	movsxd rdx,eax
    5b8a:	48 89 d0             	mov    rax,rdx
    5b8d:	48 01 c0             	add    rax,rax
    5b90:	48 01 d0             	add    rax,rdx
    5b93:	48 c1 e0 03          	shl    rax,0x3
    5b97:	48 89 c2             	mov    rdx,rax
    5b9a:	48 8d 05 07 9b 00 00 	lea    rax,[rip+0x9b07]        # f6a8 <toks+0x8>
    5ba1:	48 8b 0c 02          	mov    rcx,QWORD PTR [rdx+rax*1]
    5ba5:	8b 85 24 f8 ff ff    	mov    eax,DWORD PTR [rbp-0x7dc]
    5bab:	48 8d b5 80 f6 ff ff 	lea    rsi,[rbp-0x980]
    5bb2:	48 63 d0             	movsxd rdx,eax
    5bb5:	48 89 d0             	mov    rax,rdx
    5bb8:	48 c1 e0 03          	shl    rax,0x3
    5bbc:	48 01 d0             	add    rax,rdx
    5bbf:	48 c1 e0 02          	shl    rax,0x2
    5bc3:	48 29 d0             	sub    rax,rdx
    5bc6:	48 05 00 01 00 00    	add    rax,0x100
    5bcc:	48 01 f0             	add    rax,rsi
    5bcf:	48 83 c0 08          	add    rax,0x8
    5bd3:	ba 23 00 00 00       	mov    edx,0x23
    5bd8:	48 89 ce             	mov    rsi,rcx
    5bdb:	48 89 c7             	mov    rdi,rax
    5bde:	e8 7d c4 ff ff       	call   2060 <strncpy@plt>
    5be3:	83 7d dc 06          	cmp    DWORD PTR [rbp-0x24],0x6
    5be7:	0f 84 94 00 00 00    	je     5c81 <PARSE+0x2a2>
    5bed:	83 7d dc 06          	cmp    DWORD PTR [rbp-0x24],0x6
    5bf1:	0f 8f ac 00 00 00    	jg     5ca3 <PARSE+0x2c4>
    5bf7:	83 7d dc 05          	cmp    DWORD PTR [rbp-0x24],0x5
    5bfb:	74 62                	je     5c5f <PARSE+0x280>
    5bfd:	83 7d dc 05          	cmp    DWORD PTR [rbp-0x24],0x5
    5c01:	0f 8f 9c 00 00 00    	jg     5ca3 <PARSE+0x2c4>
    5c07:	83 7d dc 03          	cmp    DWORD PTR [rbp-0x24],0x3
    5c0b:	74 0b                	je     5c18 <PARSE+0x239>
    5c0d:	83 7d dc 04          	cmp    DWORD PTR [rbp-0x24],0x4
    5c11:	74 2a                	je     5c3d <PARSE+0x25e>
    5c13:	e9 8b 00 00 00       	jmp    5ca3 <PARSE+0x2c4>
    5c18:	8b 85 24 f8 ff ff    	mov    eax,DWORD PTR [rbp-0x7dc]
    5c1e:	8d 50 01             	lea    edx,[rax+0x1]
    5c21:	89 95 24 f8 ff ff    	mov    DWORD PTR [rbp-0x7dc],edx
    5c27:	48 98                	cdqe
    5c29:	48 83 c0 60          	add    rax,0x60
    5c2d:	c7 84 85 94 f6 ff ff 	mov    DWORD PTR [rbp+rax*4-0x96c],0x3
    5c34:	03 00 00 00 
    5c38:	e9 87 00 00 00       	jmp    5cc4 <PARSE+0x2e5>
    5c3d:	8b 85 24 f8 ff ff    	mov    eax,DWORD PTR [rbp-0x7dc]
    5c43:	8d 50 01             	lea    edx,[rax+0x1]
    5c46:	89 95 24 f8 ff ff    	mov    DWORD PTR [rbp-0x7dc],edx
    5c4c:	48 98                	cdqe
    5c4e:	48 83 c0 60          	add    rax,0x60
    5c52:	c7 84 85 94 f6 ff ff 	mov    DWORD PTR [rbp+rax*4-0x96c],0x4
    5c59:	04 00 00 00 
    5c5d:	eb 65                	jmp    5cc4 <PARSE+0x2e5>
    5c5f:	8b 85 24 f8 ff ff    	mov    eax,DWORD PTR [rbp-0x7dc]
    5c65:	8d 50 01             	lea    edx,[rax+0x1]
    5c68:	89 95 24 f8 ff ff    	mov    DWORD PTR [rbp-0x7dc],edx
    5c6e:	48 98                	cdqe
    5c70:	48 83 c0 60          	add    rax,0x60
    5c74:	c7 84 85 94 f6 ff ff 	mov    DWORD PTR [rbp+rax*4-0x96c],0x5
    5c7b:	05 00 00 00 
    5c7f:	eb 43                	jmp    5cc4 <PARSE+0x2e5>
    5c81:	8b 85 24 f8 ff ff    	mov    eax,DWORD PTR [rbp-0x7dc]
    5c87:	8d 50 01             	lea    edx,[rax+0x1]
    5c8a:	89 95 24 f8 ff ff    	mov    DWORD PTR [rbp-0x7dc],edx
    5c90:	48 98                	cdqe
    5c92:	48 83 c0 60          	add    rax,0x60
    5c96:	c7 84 85 94 f6 ff ff 	mov    DWORD PTR [rbp+rax*4-0x96c],0x6
    5c9d:	06 00 00 00 
    5ca1:	eb 21                	jmp    5cc4 <PARSE+0x2e5>
    5ca3:	8b 85 24 f8 ff ff    	mov    eax,DWORD PTR [rbp-0x7dc]
    5ca9:	8d 50 01             	lea    edx,[rax+0x1]
    5cac:	89 95 24 f8 ff ff    	mov    DWORD PTR [rbp-0x7dc],edx
    5cb2:	48 98                	cdqe
    5cb4:	48 83 c0 60          	add    rax,0x60
    5cb8:	c7 84 85 94 f6 ff ff 	mov    DWORD PTR [rbp+rax*4-0x96c],0x2
    5cbf:	02 00 00 00 
    5cc3:	90                   	nop
    5cc4:	e9 8a 03 00 00       	jmp    6053 <PARSE+0x674>
    5cc9:	8b 45 fc             	mov    eax,DWORD PTR [rbp-0x4]
    5ccc:	48 63 d0             	movsxd rdx,eax
    5ccf:	48 89 d0             	mov    rax,rdx
    5cd2:	48 01 c0             	add    rax,rax
    5cd5:	48 01 d0             	add    rax,rdx
    5cd8:	48 c1 e0 03          	shl    rax,0x3
    5cdc:	48 89 c2             	mov    rdx,rax
    5cdf:	48 8d 05 ba 99 00 00 	lea    rax,[rip+0x99ba]        # f6a0 <toks>
    5ce6:	8b 04 02             	mov    eax,DWORD PTR [rdx+rax*1]
    5ce9:	83 f8 09             	cmp    eax,0x9
    5cec:	0f 85 88 00 00 00    	jne    5d7a <PARSE+0x39b>
    5cf2:	8b 45 fc             	mov    eax,DWORD PTR [rbp-0x4]
    5cf5:	48 63 d0             	movsxd rdx,eax
    5cf8:	48 89 d0             	mov    rax,rdx
    5cfb:	48 01 c0             	add    rax,rax
    5cfe:	48 01 d0             	add    rax,rdx
    5d01:	48 c1 e0 03          	shl    rax,0x3
    5d05:	48 89 c2             	mov    rdx,rax
    5d08:	48 8d 05 99 99 00 00 	lea    rax,[rip+0x9999]        # f6a8 <toks+0x8>
    5d0f:	48 8b 0c 02          	mov    rcx,QWORD PTR [rdx+rax*1]
    5d13:	8b 85 24 f8 ff ff    	mov    eax,DWORD PTR [rbp-0x7dc]
    5d19:	48 8d b5 80 f6 ff ff 	lea    rsi,[rbp-0x980]
    5d20:	48 63 d0             	movsxd rdx,eax
    5d23:	48 89 d0             	mov    rax,rdx
    5d26:	48 c1 e0 03          	shl    rax,0x3
    5d2a:	48 01 d0             	add    rax,rdx
    5d2d:	48 c1 e0 02          	shl    rax,0x2
    5d31:	48 29 d0             	sub    rax,rdx
    5d34:	48 05 00 01 00 00    	add    rax,0x100
    5d3a:	48 01 f0             	add    rax,rsi
    5d3d:	48 83 c0 08          	add    rax,0x8
    5d41:	ba 23 00 00 00       	mov    edx,0x23
    5d46:	48 89 ce             	mov    rsi,rcx
    5d49:	48 89 c7             	mov    rdi,rax
    5d4c:	e8 0f c3 ff ff       	call   2060 <strncpy@plt>
    5d51:	83 45 fc 01          	add    DWORD PTR [rbp-0x4],0x1
    5d55:	8b 85 24 f8 ff ff    	mov    eax,DWORD PTR [rbp-0x7dc]
    5d5b:	8d 50 01             	lea    edx,[rax+0x1]
    5d5e:	89 95 24 f8 ff ff    	mov    DWORD PTR [rbp-0x7dc],edx
    5d64:	48 98                	cdqe
    5d66:	48 83 c0 60          	add    rax,0x60
    5d6a:	c7 84 85 94 f6 ff ff 	mov    DWORD PTR [rbp+rax*4-0x96c],0x8
    5d71:	08 00 00 00 
    5d75:	e9 d9 02 00 00       	jmp    6053 <PARSE+0x674>
    5d7a:	8b 45 fc             	mov    eax,DWORD PTR [rbp-0x4]
    5d7d:	48 63 d0             	movsxd rdx,eax
    5d80:	48 89 d0             	mov    rax,rdx
    5d83:	48 01 c0             	add    rax,rax
    5d86:	48 01 d0             	add    rax,rdx
    5d89:	48 c1 e0 03          	shl    rax,0x3
    5d8d:	48 89 c2             	mov    rdx,rax
    5d90:	48 8d 05 09 99 00 00 	lea    rax,[rip+0x9909]        # f6a0 <toks>
    5d97:	8b 04 02             	mov    eax,DWORD PTR [rdx+rax*1]
    5d9a:	83 f8 02             	cmp    eax,0x2
    5d9d:	0f 85 88 00 00 00    	jne    5e2b <PARSE+0x44c>
    5da3:	8b 45 fc             	mov    eax,DWORD PTR [rbp-0x4]
    5da6:	48 63 d0             	movsxd rdx,eax
    5da9:	48 89 d0             	mov    rax,rdx
    5dac:	48 01 c0             	add    rax,rax
    5daf:	48 01 d0             	add    rax,rdx
    5db2:	48 c1 e0 03          	shl    rax,0x3
    5db6:	48 89 c2             	mov    rdx,rax
    5db9:	48 8d 05 e8 98 00 00 	lea    rax,[rip+0x98e8]        # f6a8 <toks+0x8>
    5dc0:	48 8b 0c 02          	mov    rcx,QWORD PTR [rdx+rax*1]
    5dc4:	8b 85 24 f8 ff ff    	mov    eax,DWORD PTR [rbp-0x7dc]
    5dca:	48 8d b5 80 f6 ff ff 	lea    rsi,[rbp-0x980]
    5dd1:	48 63 d0             	movsxd rdx,eax
    5dd4:	48 89 d0             	mov    rax,rdx
    5dd7:	48 c1 e0 03          	shl    rax,0x3
    5ddb:	48 01 d0             	add    rax,rdx
    5dde:	48 c1 e0 02          	shl    rax,0x2
    5de2:	48 29 d0             	sub    rax,rdx
    5de5:	48 05 00 01 00 00    	add    rax,0x100
    5deb:	48 01 f0             	add    rax,rsi
    5dee:	48 83 c0 08          	add    rax,0x8
    5df2:	ba 23 00 00 00       	mov    edx,0x23
    5df7:	48 89 ce             	mov    rsi,rcx
    5dfa:	48 89 c7             	mov    rdi,rax
    5dfd:	e8 5e c2 ff ff       	call   2060 <strncpy@plt>
    5e02:	83 45 fc 01          	add    DWORD PTR [rbp-0x4],0x1
    5e06:	8b 85 24 f8 ff ff    	mov    eax,DWORD PTR [rbp-0x7dc]
    5e0c:	8d 50 01             	lea    edx,[rax+0x1]
    5e0f:	89 95 24 f8 ff ff    	mov    DWORD PTR [rbp-0x7dc],edx
    5e15:	48 98                	cdqe
    5e17:	48 83 c0 60          	add    rax,0x60
    5e1b:	c7 84 85 94 f6 ff ff 	mov    DWORD PTR [rbp+rax*4-0x96c],0x9
    5e22:	09 00 00 00 
    5e26:	e9 28 02 00 00       	jmp    6053 <PARSE+0x674>
    5e2b:	8b 45 fc             	mov    eax,DWORD PTR [rbp-0x4]
    5e2e:	48 63 d0             	movsxd rdx,eax
    5e31:	48 89 d0             	mov    rax,rdx
    5e34:	48 01 c0             	add    rax,rax
    5e37:	48 01 d0             	add    rax,rdx
    5e3a:	48 c1 e0 03          	shl    rax,0x3
    5e3e:	48 89 c2             	mov    rdx,rax
    5e41:	48 8d 05 58 98 00 00 	lea    rax,[rip+0x9858]        # f6a0 <toks>
    5e48:	8b 04 02             	mov    eax,DWORD PTR [rdx+rax*1]
    5e4b:	83 f8 01             	cmp    eax,0x1
    5e4e:	0f 85 88 00 00 00    	jne    5edc <PARSE+0x4fd>
    5e54:	8b 45 fc             	mov    eax,DWORD PTR [rbp-0x4]
    5e57:	48 63 d0             	movsxd rdx,eax
    5e5a:	48 89 d0             	mov    rax,rdx
    5e5d:	48 01 c0             	add    rax,rax
    5e60:	48 01 d0             	add    rax,rdx
    5e63:	48 c1 e0 03          	shl    rax,0x3
    5e67:	48 89 c2             	mov    rdx,rax
    5e6a:	48 8d 05 37 98 00 00 	lea    rax,[rip+0x9837]        # f6a8 <toks+0x8>
    5e71:	48 8b 0c 02          	mov    rcx,QWORD PTR [rdx+rax*1]
    5e75:	8b 85 24 f8 ff ff    	mov    eax,DWORD PTR [rbp-0x7dc]
    5e7b:	48 8d b5 80 f6 ff ff 	lea    rsi,[rbp-0x980]
    5e82:	48 63 d0             	movsxd rdx,eax
    5e85:	48 89 d0             	mov    rax,rdx
    5e88:	48 c1 e0 03          	shl    rax,0x3
    5e8c:	48 01 d0             	add    rax,rdx
    5e8f:	48 c1 e0 02          	shl    rax,0x2
    5e93:	48 29 d0             	sub    rax,rdx
    5e96:	48 05 00 01 00 00    	add    rax,0x100
    5e9c:	48 01 f0             	add    rax,rsi
    5e9f:	48 83 c0 08          	add    rax,0x8
    5ea3:	ba 23 00 00 00       	mov    edx,0x23
    5ea8:	48 89 ce             	mov    rsi,rcx
    5eab:	48 89 c7             	mov    rdi,rax
    5eae:	e8 ad c1 ff ff       	call   2060 <strncpy@plt>
    5eb3:	83 45 fc 01          	add    DWORD PTR [rbp-0x4],0x1
    5eb7:	8b 85 24 f8 ff ff    	mov    eax,DWORD PTR [rbp-0x7dc]
    5ebd:	8d 50 01             	lea    edx,[rax+0x1]
    5ec0:	89 95 24 f8 ff ff    	mov    DWORD PTR [rbp-0x7dc],edx
    5ec6:	48 98                	cdqe
    5ec8:	48 83 c0 60          	add    rax,0x60
    5ecc:	c7 84 85 94 f6 ff ff 	mov    DWORD PTR [rbp+rax*4-0x96c],0x7
    5ed3:	07 00 00 00 
    5ed7:	e9 77 01 00 00       	jmp    6053 <PARSE+0x674>
    5edc:	8b 45 fc             	mov    eax,DWORD PTR [rbp-0x4]
    5edf:	48 63 d0             	movsxd rdx,eax
    5ee2:	48 89 d0             	mov    rax,rdx
    5ee5:	48 01 c0             	add    rax,rax
    5ee8:	48 01 d0             	add    rax,rdx
    5eeb:	48 c1 e0 03          	shl    rax,0x3
    5eef:	48 89 c2             	mov    rdx,rax
    5ef2:	48 8d 05 a7 97 00 00 	lea    rax,[rip+0x97a7]        # f6a0 <toks>
    5ef9:	8b 04 02             	mov    eax,DWORD PTR [rdx+rax*1]
    5efc:	83 f8 17             	cmp    eax,0x17
    5eff:	0f 85 9a 00 00 00    	jne    5f9f <PARSE+0x5c0>
    5f05:	8b 45 fc             	mov    eax,DWORD PTR [rbp-0x4]
    5f08:	48 63 d0             	movsxd rdx,eax
    5f0b:	48 89 d0             	mov    rax,rdx
    5f0e:	48 01 c0             	add    rax,rax
    5f11:	48 01 d0             	add    rax,rdx
    5f14:	48 c1 e0 03          	shl    rax,0x3
    5f18:	48 89 c2             	mov    rdx,rax
    5f1b:	48 8d 05 86 97 00 00 	lea    rax,[rip+0x9786]        # f6a8 <toks+0x8>
    5f22:	48 8b 04 02          	mov    rax,QWORD PTR [rdx+rax*1]
    5f26:	0f b6 10             	movzx  edx,BYTE PTR [rax]
    5f29:	8b 85 24 f8 ff ff    	mov    eax,DWORD PTR [rbp-0x7dc]
    5f2f:	89 d1                	mov    ecx,edx
    5f31:	48 63 d0             	movsxd rdx,eax
    5f34:	48 89 d0             	mov    rax,rdx
    5f37:	48 c1 e0 03          	shl    rax,0x3
    5f3b:	48 01 d0             	add    rax,rdx
    5f3e:	48 c1 e0 02          	shl    rax,0x2
    5f42:	48 29 d0             	sub    rax,rdx
    5f45:	48 01 e8             	add    rax,rbp
    5f48:	48 2d 78 08 00 00    	sub    rax,0x878
    5f4e:	88 08                	mov    BYTE PTR [rax],cl
    5f50:	8b 85 24 f8 ff ff    	mov    eax,DWORD PTR [rbp-0x7dc]
    5f56:	48 63 d0             	movsxd rdx,eax
    5f59:	48 89 d0             	mov    rax,rdx
    5f5c:	48 c1 e0 03          	shl    rax,0x3
    5f60:	48 01 d0             	add    rax,rdx
    5f63:	48 c1 e0 02          	shl    rax,0x2
    5f67:	48 29 d0             	sub    rax,rdx
    5f6a:	48 01 e8             	add    rax,rbp
    5f6d:	48 2d 77 08 00 00    	sub    rax,0x877
    5f73:	c6 00 00             	mov    BYTE PTR [rax],0x0
    5f76:	8b 85 24 f8 ff ff    	mov    eax,DWORD PTR [rbp-0x7dc]
    5f7c:	8d 50 01             	lea    edx,[rax+0x1]
    5f7f:	89 95 24 f8 ff ff    	mov    DWORD PTR [rbp-0x7dc],edx
    5f85:	48 98                	cdqe
    5f87:	48 83 c0 60          	add    rax,0x60
    5f8b:	c7 84 85 94 f6 ff ff 	mov    DWORD PTR [rbp+rax*4-0x96c],0xa
    5f92:	0a 00 00 00 
    5f96:	83 45 fc 01          	add    DWORD PTR [rbp-0x4],0x1
    5f9a:	e9 b4 00 00 00       	jmp    6053 <PARSE+0x674>
    5f9f:	8b 45 fc             	mov    eax,DWORD PTR [rbp-0x4]
    5fa2:	48 63 d0             	movsxd rdx,eax
    5fa5:	48 89 d0             	mov    rax,rdx
    5fa8:	48 01 c0             	add    rax,rax
    5fab:	48 01 d0             	add    rax,rdx
    5fae:	48 c1 e0 03          	shl    rax,0x3
    5fb2:	48 89 c2             	mov    rdx,rax
    5fb5:	48 8d 05 e4 96 00 00 	lea    rax,[rip+0x96e4]        # f6a0 <toks>
    5fbc:	8b 04 02             	mov    eax,DWORD PTR [rdx+rax*1]
    5fbf:	83 f8 0c             	cmp    eax,0xc
    5fc2:	0f 84 9a 00 00 00    	je     6062 <PARSE+0x683>
    5fc8:	8b 45 fc             	mov    eax,DWORD PTR [rbp-0x4]
    5fcb:	48 63 d0             	movsxd rdx,eax
    5fce:	48 89 d0             	mov    rax,rdx
    5fd1:	48 01 c0             	add    rax,rax
    5fd4:	48 01 d0             	add    rax,rdx
    5fd7:	48 c1 e0 03          	shl    rax,0x3
    5fdb:	48 89 c2             	mov    rdx,rax
    5fde:	48 8d 05 bb 96 00 00 	lea    rax,[rip+0x96bb]        # f6a0 <toks>
    5fe5:	8b 04 02             	mov    eax,DWORD PTR [rdx+rax*1]
    5fe8:	83 f8 0d             	cmp    eax,0xd
    5feb:	74 75                	je     6062 <PARSE+0x683>
    5fed:	8b 45 fc             	mov    eax,DWORD PTR [rbp-0x4]
    5ff0:	48 63 d0             	movsxd rdx,eax
    5ff3:	48 89 d0             	mov    rax,rdx
    5ff6:	48 01 c0             	add    rax,rax
    5ff9:	48 01 d0             	add    rax,rdx
    5ffc:	48 c1 e0 03          	shl    rax,0x3
    6000:	48 89 c2             	mov    rdx,rax
    6003:	48 8d 05 a6 96 00 00 	lea    rax,[rip+0x96a6]        # f6b0 <toks+0x10>
    600a:	8b 0c 02             	mov    ecx,DWORD PTR [rdx+rax*1]
    600d:	8b 45 fc             	mov    eax,DWORD PTR [rbp-0x4]
    6010:	48 63 d0             	movsxd rdx,eax
    6013:	48 89 d0             	mov    rax,rdx
    6016:	48 01 c0             	add    rax,rax
    6019:	48 01 d0             	add    rax,rdx
    601c:	48 c1 e0 03          	shl    rax,0x3
    6020:	48 89 c2             	mov    rdx,rax
    6023:	48 8d 05 7e 96 00 00 	lea    rax,[rip+0x967e]        # f6a8 <toks+0x8>
    602a:	48 8b 14 02          	mov    rdx,QWORD PTR [rdx+rax*1]
    602e:	48 8b 05 2b 96 00 00 	mov    rax,QWORD PTR [rip+0x962b]        # f660 <stderr@GLIBC_2.2.5>
    6035:	48 8d 35 4c 6a 00 00 	lea    rsi,[rip+0x6a4c]        # ca88 <_IO_stdin_used+0xa88>
    603c:	48 89 c7             	mov    rdi,rax
    603f:	b8 00 00 00 00       	mov    eax,0x0
    6044:	e8 b7 c0 ff ff       	call   2100 <fprintf@plt>
    6049:	bf 01 00 00 00       	mov    edi,0x1
    604e:	e8 0d c1 ff ff       	call   2160 <exit@plt>
    6053:	8b 05 47 f6 00 00    	mov    eax,DWORD PTR [rip+0xf647]        # 156a0 <toks_count>
    6059:	39 45 fc             	cmp    DWORD PTR [rbp-0x4],eax
    605c:	0f 8c 33 fa ff ff    	jl     5a95 <PARSE+0xb6>
    6062:	8b 05 58 56 26 00    	mov    eax,DWORD PTR [rip+0x265658]        # 26b6c0 <ast_count>
    6068:	8d 50 01             	lea    edx,[rax+0x1]
    606b:	89 15 4f 56 26 00    	mov    DWORD PTR [rip+0x26564f],edx        # 26b6c0 <ast_count>
    6071:	48 98                	cdqe
    6073:	48 69 c0 58 09 00 00 	imul   rax,rax,0x958
    607a:	48 8d 15 3f f6 00 00 	lea    rdx,[rip+0xf63f]        # 156c0 <ast>
    6081:	48 01 c2             	add    rdx,rax
    6084:	48 8d 85 80 f6 ff ff 	lea    rax,[rbp-0x980]
    608b:	b9 2b 01 00 00       	mov    ecx,0x12b
    6090:	48 89 d7             	mov    rdi,rdx
    6093:	48 89 c6             	mov    rsi,rax
    6096:	f3 48 a5             	rep movs QWORD PTR es:[rdi],QWORD PTR ds:[rsi]
    6099:	8b 05 01 f6 00 00    	mov    eax,DWORD PTR [rip+0xf601]        # 156a0 <toks_count>
    609f:	39 45 fc             	cmp    DWORD PTR [rbp-0x4],eax
    60a2:	0f 8d 72 1b 00 00    	jge    7c1a <PARSE+0x223b>
    60a8:	8b 45 fc             	mov    eax,DWORD PTR [rbp-0x4]
    60ab:	48 63 d0             	movsxd rdx,eax
    60ae:	48 89 d0             	mov    rax,rdx
    60b1:	48 01 c0             	add    rax,rax
    60b4:	48 01 d0             	add    rax,rdx
    60b7:	48 c1 e0 03          	shl    rax,0x3
    60bb:	48 89 c2             	mov    rdx,rax
    60be:	48 8d 05 db 95 00 00 	lea    rax,[rip+0x95db]        # f6a0 <toks>
    60c5:	8b 04 02             	mov    eax,DWORD PTR [rdx+rax*1]
    60c8:	83 f8 0c             	cmp    eax,0xc
    60cb:	0f 85 49 1b 00 00    	jne    7c1a <PARSE+0x223b>
    60d1:	83 45 fc 01          	add    DWORD PTR [rbp-0x4],0x1
    60d5:	e9 40 1b 00 00       	jmp    7c1a <PARSE+0x223b>
    60da:	48 8b 45 e8          	mov    rax,QWORD PTR [rbp-0x18]
    60de:	8b 00                	mov    eax,DWORD PTR [rax]
    60e0:	83 f8 02             	cmp    eax,0x2
    60e3:	0f 85 a1 00 00 00    	jne    618a <PARSE+0x7ab>
    60e9:	c7 85 80 f6 ff ff 0e 	mov    DWORD PTR [rbp-0x980],0xe
    60f0:	00 00 00 
    60f3:	48 8b 45 e8          	mov    rax,QWORD PTR [rbp-0x18]
    60f7:	8b 00                	mov    eax,DWORD PTR [rax]
    60f9:	83 f8 0d             	cmp    eax,0xd
    60fc:	74 50                	je     614e <PARSE+0x76f>
    60fe:	48 8b 45 e8          	mov    rax,QWORD PTR [rbp-0x18]
    6102:	8b 00                	mov    eax,DWORD PTR [rax]
    6104:	83 f8 0c             	cmp    eax,0xc
    6107:	74 45                	je     614e <PARSE+0x76f>
    6109:	8b 45 fc             	mov    eax,DWORD PTR [rbp-0x4]
    610c:	8d 50 01             	lea    edx,[rax+0x1]
    610f:	89 55 fc             	mov    DWORD PTR [rbp-0x4],edx
    6112:	48 63 d0             	movsxd rdx,eax
    6115:	48 89 d0             	mov    rax,rdx
    6118:	48 01 c0             	add    rax,rax
    611b:	48 01 d0             	add    rax,rdx
    611e:	48 c1 e0 03          	shl    rax,0x3
    6122:	48 89 c2             	mov    rdx,rax
    6125:	48 8d 05 7c 95 00 00 	lea    rax,[rip+0x957c]        # f6a8 <toks+0x8>
    612c:	48 8b 04 02          	mov    rax,QWORD PTR [rdx+rax*1]
    6130:	48 8d 95 80 f6 ff ff 	lea    rdx,[rbp-0x980]
    6137:	48 8d 8a 08 01 00 00 	lea    rcx,[rdx+0x108]
    613e:	ba 40 00 00 00       	mov    edx,0x40
    6143:	48 89 c6             	mov    rsi,rax
    6146:	48 89 cf             	mov    rdi,rcx
    6149:	e8 12 bf ff ff       	call   2060 <strncpy@plt>
    614e:	8b 05 6c 55 26 00    	mov    eax,DWORD PTR [rip+0x26556c]        # 26b6c0 <ast_count>
    6154:	8d 50 01             	lea    edx,[rax+0x1]
    6157:	89 15 63 55 26 00    	mov    DWORD PTR [rip+0x265563],edx        # 26b6c0 <ast_count>
    615d:	48 98                	cdqe
    615f:	48 69 c0 58 09 00 00 	imul   rax,rax,0x958
    6166:	48 8d 15 53 f5 00 00 	lea    rdx,[rip+0xf553]        # 156c0 <ast>
    616d:	48 01 c2             	add    rdx,rax
    6170:	48 8d 85 80 f6 ff ff 	lea    rax,[rbp-0x980]
    6177:	b9 2b 01 00 00       	mov    ecx,0x12b
    617c:	48 89 d7             	mov    rdi,rdx
    617f:	48 89 c6             	mov    rsi,rax
    6182:	f3 48 a5             	rep movs QWORD PTR es:[rdi],QWORD PTR ds:[rsi]
    6185:	e9 a6 1a 00 00       	jmp    7c30 <PARSE+0x2251>
    618a:	48 8b 45 e8          	mov    rax,QWORD PTR [rbp-0x18]
    618e:	8b 00                	mov    eax,DWORD PTR [rax]
    6190:	83 f8 0f             	cmp    eax,0xf
    6193:	0f 85 b5 03 00 00    	jne    654e <PARSE+0xb6f>
    6199:	83 7d fc 00          	cmp    DWORD PTR [rbp-0x4],0x0
    619d:	74 2c                	je     61cb <PARSE+0x7ec>
    619f:	8b 45 fc             	mov    eax,DWORD PTR [rbp-0x4]
    61a2:	83 e8 01             	sub    eax,0x1
    61a5:	48 63 d0             	movsxd rdx,eax
    61a8:	48 89 d0             	mov    rax,rdx
    61ab:	48 01 c0             	add    rax,rax
    61ae:	48 01 d0             	add    rax,rdx
    61b1:	48 c1 e0 03          	shl    rax,0x3
    61b5:	48 89 c2             	mov    rdx,rax
    61b8:	48 8d 05 e1 94 00 00 	lea    rax,[rip+0x94e1]        # f6a0 <toks>
    61bf:	8b 04 02             	mov    eax,DWORD PTR [rdx+rax*1]
    61c2:	83 f8 02             	cmp    eax,0x2
    61c5:	0f 85 83 03 00 00    	jne    654e <PARSE+0xb6f>
    61cb:	c7 85 80 f6 ff ff 02 	mov    DWORD PTR [rbp-0x980],0x2
    61d2:	00 00 00 
    61d5:	c7 85 88 f8 ff ff 00 	mov    DWORD PTR [rbp-0x778],0x0
    61dc:	00 00 00 
    61df:	83 45 fc 01          	add    DWORD PTR [rbp-0x4],0x1
    61e3:	e9 df 02 00 00       	jmp    64c7 <PARSE+0xae8>
    61e8:	8b 45 fc             	mov    eax,DWORD PTR [rbp-0x4]
    61eb:	48 63 d0             	movsxd rdx,eax
    61ee:	48 89 d0             	mov    rax,rdx
    61f1:	48 01 c0             	add    rax,rax
    61f4:	48 01 d0             	add    rax,rdx
    61f7:	48 c1 e0 03          	shl    rax,0x3
    61fb:	48 89 c2             	mov    rdx,rax
    61fe:	48 8d 05 9b 94 00 00 	lea    rax,[rip+0x949b]        # f6a0 <toks>
    6205:	8b 04 02             	mov    eax,DWORD PTR [rdx+rax*1]
    6208:	83 f8 0c             	cmp    eax,0xc
    620b:	0f 84 c5 02 00 00    	je     64d6 <PARSE+0xaf7>
    6211:	8b 45 fc             	mov    eax,DWORD PTR [rbp-0x4]
    6214:	48 63 d0             	movsxd rdx,eax
    6217:	48 89 d0             	mov    rax,rdx
    621a:	48 01 c0             	add    rax,rax
    621d:	48 01 d0             	add    rax,rdx
    6220:	48 c1 e0 03          	shl    rax,0x3
    6224:	48 89 c2             	mov    rdx,rax
    6227:	48 8d 05 72 94 00 00 	lea    rax,[rip+0x9472]        # f6a0 <toks>
    622e:	8b 04 02             	mov    eax,DWORD PTR [rdx+rax*1]
    6231:	83 f8 0d             	cmp    eax,0xd
    6234:	0f 84 9c 02 00 00    	je     64d6 <PARSE+0xaf7>
    623a:	8b 45 fc             	mov    eax,DWORD PTR [rbp-0x4]
    623d:	48 63 d0             	movsxd rdx,eax
    6240:	48 89 d0             	mov    rax,rdx
    6243:	48 01 c0             	add    rax,rax
    6246:	48 01 d0             	add    rax,rdx
    6249:	48 c1 e0 03          	shl    rax,0x3
    624d:	48 89 c2             	mov    rdx,rax
    6250:	48 8d 05 49 94 00 00 	lea    rax,[rip+0x9449]        # f6a0 <toks>
    6257:	8b 04 02             	mov    eax,DWORD PTR [rdx+rax*1]
    625a:	83 f8 18             	cmp    eax,0x18
    625d:	75 09                	jne    6268 <PARSE+0x889>
    625f:	83 45 fc 01          	add    DWORD PTR [rbp-0x4],0x1
    6263:	e9 5f 02 00 00       	jmp    64c7 <PARSE+0xae8>
    6268:	8b 85 88 f8 ff ff    	mov    eax,DWORD PTR [rbp-0x778]
    626e:	3d ff 00 00 00       	cmp    eax,0xff
    6273:	7e 48                	jle    62bd <PARSE+0x8de>
    6275:	8b 45 fc             	mov    eax,DWORD PTR [rbp-0x4]
    6278:	48 63 d0             	movsxd rdx,eax
    627b:	48 89 d0             	mov    rax,rdx
    627e:	48 01 c0             	add    rax,rax
    6281:	48 01 d0             	add    rax,rdx
    6284:	48 c1 e0 03          	shl    rax,0x3
    6288:	48 89 c2             	mov    rdx,rax
    628b:	48 8d 05 1e 94 00 00 	lea    rax,[rip+0x941e]        # f6b0 <toks+0x10>
    6292:	8b 14 02             	mov    edx,DWORD PTR [rdx+rax*1]
    6295:	48 8b 05 c4 93 00 00 	mov    rax,QWORD PTR [rip+0x93c4]        # f660 <stderr@GLIBC_2.2.5>
    629c:	48 8d 0d 15 68 00 00 	lea    rcx,[rip+0x6815]        # cab8 <_IO_stdin_used+0xab8>
    62a3:	48 89 ce             	mov    rsi,rcx
    62a6:	48 89 c7             	mov    rdi,rax
    62a9:	b8 00 00 00 00       	mov    eax,0x0
    62ae:	e8 4d be ff ff       	call   2100 <fprintf@plt>
    62b3:	bf 01 00 00 00       	mov    edi,0x1
    62b8:	e8 a3 be ff ff       	call   2160 <exit@plt>
    62bd:	8b 45 fc             	mov    eax,DWORD PTR [rbp-0x4]
    62c0:	48 63 d0             	movsxd rdx,eax
    62c3:	48 89 d0             	mov    rax,rdx
    62c6:	48 01 c0             	add    rax,rax
    62c9:	48 01 d0             	add    rax,rdx
    62cc:	48 c1 e0 03          	shl    rax,0x3
    62d0:	48 89 c2             	mov    rdx,rax
    62d3:	48 8d 05 c6 93 00 00 	lea    rax,[rip+0x93c6]        # f6a0 <toks>
    62da:	8b 04 02             	mov    eax,DWORD PTR [rdx+rax*1]
    62dd:	83 f8 17             	cmp    eax,0x17
    62e0:	75 47                	jne    6329 <PARSE+0x94a>
    62e2:	8b 45 fc             	mov    eax,DWORD PTR [rbp-0x4]
    62e5:	48 63 d0             	movsxd rdx,eax
    62e8:	48 89 d0             	mov    rax,rdx
    62eb:	48 01 c0             	add    rax,rax
    62ee:	48 01 d0             	add    rax,rdx
    62f1:	48 c1 e0 03          	shl    rax,0x3
    62f5:	48 89 c2             	mov    rdx,rax
    62f8:	48 8d 05 a9 93 00 00 	lea    rax,[rip+0x93a9]        # f6a8 <toks+0x8>
    62ff:	48 8b 04 02          	mov    rax,QWORD PTR [rdx+rax*1]
    6303:	0f b6 08             	movzx  ecx,BYTE PTR [rax]
    6306:	8b 85 88 f8 ff ff    	mov    eax,DWORD PTR [rbp-0x778]
    630c:	8d 50 01             	lea    edx,[rax+0x1]
    630f:	89 95 88 f8 ff ff    	mov    DWORD PTR [rbp-0x778],edx
    6315:	89 ca                	mov    edx,ecx
    6317:	48 98                	cdqe
    6319:	88 94 05 88 f7 ff ff 	mov    BYTE PTR [rbp+rax*1-0x878],dl
    6320:	83 45 fc 01          	add    DWORD PTR [rbp-0x4],0x1
    6324:	e9 9e 01 00 00       	jmp    64c7 <PARSE+0xae8>
    6329:	8b 45 fc             	mov    eax,DWORD PTR [rbp-0x4]
    632c:	48 63 d0             	movsxd rdx,eax
    632f:	48 89 d0             	mov    rax,rdx
    6332:	48 01 c0             	add    rax,rax
    6335:	48 01 d0             	add    rax,rdx
    6338:	48 c1 e0 03          	shl    rax,0x3
    633c:	48 89 c2             	mov    rdx,rax
    633f:	48 8d 05 5a 93 00 00 	lea    rax,[rip+0x935a]        # f6a0 <toks>
    6346:	8b 04 02             	mov    eax,DWORD PTR [rdx+rax*1]
    6349:	83 f8 01             	cmp    eax,0x1
    634c:	75 4e                	jne    639c <PARSE+0x9bd>
    634e:	8b 45 fc             	mov    eax,DWORD PTR [rbp-0x4]
    6351:	48 63 d0             	movsxd rdx,eax
    6354:	48 89 d0             	mov    rax,rdx
    6357:	48 01 c0             	add    rax,rax
    635a:	48 01 d0             	add    rax,rdx
    635d:	48 c1 e0 03          	shl    rax,0x3
    6361:	48 89 c2             	mov    rdx,rax
    6364:	48 8d 05 3d 93 00 00 	lea    rax,[rip+0x933d]        # f6a8 <toks+0x8>
    636b:	48 8b 04 02          	mov    rax,QWORD PTR [rdx+rax*1]
    636f:	48 89 c7             	mov    rdi,rax
    6372:	e8 d9 bd ff ff       	call   2150 <atoi@plt>
    6377:	89 c1                	mov    ecx,eax
    6379:	8b 85 88 f8 ff ff    	mov    eax,DWORD PTR [rbp-0x778]
    637f:	8d 50 01             	lea    edx,[rax+0x1]
    6382:	89 95 88 f8 ff ff    	mov    DWORD PTR [rbp-0x778],edx
    6388:	89 ca                	mov    edx,ecx
    638a:	48 98                	cdqe
    638c:	88 94 05 88 f7 ff ff 	mov    BYTE PTR [rbp+rax*1-0x878],dl
    6393:	83 45 fc 01          	add    DWORD PTR [rbp-0x4],0x1
    6397:	e9 2b 01 00 00       	jmp    64c7 <PARSE+0xae8>
    639c:	8b 45 fc             	mov    eax,DWORD PTR [rbp-0x4]
    639f:	48 63 d0             	movsxd rdx,eax
    63a2:	48 89 d0             	mov    rax,rdx
    63a5:	48 01 c0             	add    rax,rax
    63a8:	48 01 d0             	add    rax,rdx
    63ab:	48 c1 e0 03          	shl    rax,0x3
    63af:	48 89 c2             	mov    rdx,rax
    63b2:	48 8d 05 e7 92 00 00 	lea    rax,[rip+0x92e7]        # f6a0 <toks>
    63b9:	8b 04 02             	mov    eax,DWORD PTR [rdx+rax*1]
    63bc:	83 f8 0b             	cmp    eax,0xb
    63bf:	0f 85 ba 00 00 00    	jne    647f <PARSE+0xaa0>
    63c5:	8b 45 fc             	mov    eax,DWORD PTR [rbp-0x4]
    63c8:	48 63 d0             	movsxd rdx,eax
    63cb:	48 89 d0             	mov    rax,rdx
    63ce:	48 01 c0             	add    rax,rax
    63d1:	48 01 d0             	add    rax,rdx
    63d4:	48 c1 e0 03          	shl    rax,0x3
    63d8:	48 89 c2             	mov    rdx,rax
    63db:	48 8d 05 c6 92 00 00 	lea    rax,[rip+0x92c6]        # f6a8 <toks+0x8>
    63e2:	48 8b 04 02          	mov    rax,QWORD PTR [rdx+rax*1]
    63e6:	48 89 45 f0          	mov    QWORD PTR [rbp-0x10],rax
    63ea:	eb 7e                	jmp    646a <PARSE+0xa8b>
    63ec:	8b 85 88 f8 ff ff    	mov    eax,DWORD PTR [rbp-0x778]
    63f2:	3d ff 00 00 00       	cmp    eax,0xff
    63f7:	76 48                	jbe    6441 <PARSE+0xa62>
    63f9:	8b 45 fc             	mov    eax,DWORD PTR [rbp-0x4]
    63fc:	48 63 d0             	movsxd rdx,eax
    63ff:	48 89 d0             	mov    rax,rdx
    6402:	48 01 c0             	add    rax,rax
    6405:	48 01 d0             	add    rax,rdx
    6408:	48 c1 e0 03          	shl    rax,0x3
    640c:	48 89 c2             	mov    rdx,rax
    640f:	48 8d 05 9a 92 00 00 	lea    rax,[rip+0x929a]        # f6b0 <toks+0x10>
    6416:	8b 14 02             	mov    edx,DWORD PTR [rdx+rax*1]
    6419:	48 8b 05 40 92 00 00 	mov    rax,QWORD PTR [rip+0x9240]        # f660 <stderr@GLIBC_2.2.5>
    6420:	48 8d 0d c9 66 00 00 	lea    rcx,[rip+0x66c9]        # caf0 <_IO_stdin_used+0xaf0>
    6427:	48 89 ce             	mov    rsi,rcx
    642a:	48 89 c7             	mov    rdi,rax
    642d:	b8 00 00 00 00       	mov    eax,0x0
    6432:	e8 c9 bc ff ff       	call   2100 <fprintf@plt>
    6437:	bf 01 00 00 00       	mov    edi,0x1
    643c:	e8 1f bd ff ff       	call   2160 <exit@plt>
    6441:	48 8b 45 f0          	mov    rax,QWORD PTR [rbp-0x10]
    6445:	48 8d 50 01          	lea    rdx,[rax+0x1]
    6449:	48 89 55 f0          	mov    QWORD PTR [rbp-0x10],rdx
    644d:	0f b6 08             	movzx  ecx,BYTE PTR [rax]
    6450:	8b 85 88 f8 ff ff    	mov    eax,DWORD PTR [rbp-0x778]
    6456:	8d 50 01             	lea    edx,[rax+0x1]
    6459:	89 95 88 f8 ff ff    	mov    DWORD PTR [rbp-0x778],edx
    645f:	89 ca                	mov    edx,ecx
    6461:	48 98                	cdqe
    6463:	88 94 05 88 f7 ff ff 	mov    BYTE PTR [rbp+rax*1-0x878],dl
    646a:	48 8b 45 f0          	mov    rax,QWORD PTR [rbp-0x10]
    646e:	0f b6 00             	movzx  eax,BYTE PTR [rax]
    6471:	84 c0                	test   al,al
    6473:	0f 85 73 ff ff ff    	jne    63ec <PARSE+0xa0d>
    6479:	83 45 fc 01          	add    DWORD PTR [rbp-0x4],0x1
    647d:	eb 48                	jmp    64c7 <PARSE+0xae8>
    647f:	8b 45 fc             	mov    eax,DWORD PTR [rbp-0x4]
    6482:	48 63 d0             	movsxd rdx,eax
    6485:	48 89 d0             	mov    rax,rdx
    6488:	48 01 c0             	add    rax,rax
    648b:	48 01 d0             	add    rax,rdx
    648e:	48 c1 e0 03          	shl    rax,0x3
    6492:	48 89 c2             	mov    rdx,rax
    6495:	48 8d 05 14 92 00 00 	lea    rax,[rip+0x9214]        # f6b0 <toks+0x10>
    649c:	8b 14 02             	mov    edx,DWORD PTR [rdx+rax*1]
    649f:	48 8b 05 ba 91 00 00 	mov    rax,QWORD PTR [rip+0x91ba]        # f660 <stderr@GLIBC_2.2.5>
    64a6:	48 8d 0d 7b 66 00 00 	lea    rcx,[rip+0x667b]        # cb28 <_IO_stdin_used+0xb28>
    64ad:	48 89 ce             	mov    rsi,rcx
    64b0:	48 89 c7             	mov    rdi,rax
    64b3:	b8 00 00 00 00       	mov    eax,0x0
    64b8:	e8 43 bc ff ff       	call   2100 <fprintf@plt>
    64bd:	bf 01 00 00 00       	mov    edi,0x1
    64c2:	e8 99 bc ff ff       	call   2160 <exit@plt>
    64c7:	8b 05 d3 f1 00 00    	mov    eax,DWORD PTR [rip+0xf1d3]        # 156a0 <toks_count>
    64cd:	39 45 fc             	cmp    DWORD PTR [rbp-0x4],eax
    64d0:	0f 8c 12 fd ff ff    	jl     61e8 <PARSE+0x809>
    64d6:	8b 05 e4 51 26 00    	mov    eax,DWORD PTR [rip+0x2651e4]        # 26b6c0 <ast_count>
    64dc:	8d 50 01             	lea    edx,[rax+0x1]
    64df:	89 15 db 51 26 00    	mov    DWORD PTR [rip+0x2651db],edx        # 26b6c0 <ast_count>
    64e5:	48 98                	cdqe
    64e7:	48 69 c0 58 09 00 00 	imul   rax,rax,0x958
    64ee:	48 8d 15 cb f1 00 00 	lea    rdx,[rip+0xf1cb]        # 156c0 <ast>
    64f5:	48 01 c2             	add    rdx,rax
    64f8:	48 8d 85 80 f6 ff ff 	lea    rax,[rbp-0x980]
    64ff:	b9 2b 01 00 00       	mov    ecx,0x12b
    6504:	48 89 d7             	mov    rdi,rdx
    6507:	48 89 c6             	mov    rsi,rax
    650a:	f3 48 a5             	rep movs QWORD PTR es:[rdi],QWORD PTR ds:[rsi]
    650d:	8b 05 8d f1 00 00    	mov    eax,DWORD PTR [rip+0xf18d]        # 156a0 <toks_count>
    6513:	39 45 fc             	cmp    DWORD PTR [rbp-0x4],eax
    6516:	0f 8d 01 17 00 00    	jge    7c1d <PARSE+0x223e>
    651c:	8b 45 fc             	mov    eax,DWORD PTR [rbp-0x4]
    651f:	48 63 d0             	movsxd rdx,eax
    6522:	48 89 d0             	mov    rax,rdx
    6525:	48 01 c0             	add    rax,rax
    6528:	48 01 d0             	add    rax,rdx
    652b:	48 c1 e0 03          	shl    rax,0x3
    652f:	48 89 c2             	mov    rdx,rax
    6532:	48 8d 05 67 91 00 00 	lea    rax,[rip+0x9167]        # f6a0 <toks>
    6539:	8b 04 02             	mov    eax,DWORD PTR [rdx+rax*1]
    653c:	83 f8 0c             	cmp    eax,0xc
    653f:	0f 85 d8 16 00 00    	jne    7c1d <PARSE+0x223e>
    6545:	83 45 fc 01          	add    DWORD PTR [rbp-0x4],0x1
    6549:	e9 cf 16 00 00       	jmp    7c1d <PARSE+0x223e>
    654e:	48 8b 45 e8          	mov    rax,QWORD PTR [rbp-0x18]
    6552:	8b 00                	mov    eax,DWORD PTR [rax]
    6554:	83 f8 10             	cmp    eax,0x10
    6557:	0f 85 fa 02 00 00    	jne    6857 <PARSE+0xe78>
    655d:	83 7d fc 00          	cmp    DWORD PTR [rbp-0x4],0x0
    6561:	74 2c                	je     658f <PARSE+0xbb0>
    6563:	8b 45 fc             	mov    eax,DWORD PTR [rbp-0x4]
    6566:	83 e8 01             	sub    eax,0x1
    6569:	48 63 d0             	movsxd rdx,eax
    656c:	48 89 d0             	mov    rax,rdx
    656f:	48 01 c0             	add    rax,rax
    6572:	48 01 d0             	add    rax,rdx
    6575:	48 c1 e0 03          	shl    rax,0x3
    6579:	48 89 c2             	mov    rdx,rax
    657c:	48 8d 05 1d 91 00 00 	lea    rax,[rip+0x911d]        # f6a0 <toks>
    6583:	8b 04 02             	mov    eax,DWORD PTR [rdx+rax*1]
    6586:	83 f8 02             	cmp    eax,0x2
    6589:	0f 85 c8 02 00 00    	jne    6857 <PARSE+0xe78>
    658f:	c7 85 80 f6 ff ff 03 	mov    DWORD PTR [rbp-0x980],0x3
    6596:	00 00 00 
    6599:	c7 45 88 00 00 00 00 	mov    DWORD PTR [rbp-0x78],0x0
    65a0:	83 45 fc 01          	add    DWORD PTR [rbp-0x4],0x1
    65a4:	e9 27 02 00 00       	jmp    67d0 <PARSE+0xdf1>
    65a9:	8b 45 fc             	mov    eax,DWORD PTR [rbp-0x4]
    65ac:	48 63 d0             	movsxd rdx,eax
    65af:	48 89 d0             	mov    rax,rdx
    65b2:	48 01 c0             	add    rax,rax
    65b5:	48 01 d0             	add    rax,rdx
    65b8:	48 c1 e0 03          	shl    rax,0x3
    65bc:	48 89 c2             	mov    rdx,rax
    65bf:	48 8d 05 da 90 00 00 	lea    rax,[rip+0x90da]        # f6a0 <toks>
