
aasm:     file format elf64-x86-64


Disassembly of section .init:

0000000000002000 <_init>:
_init():
    2000:	48 83 ec 08          	sub    rsp,0x8
    2004:	48 8b 05 c5 cf 00 00 	mov    rax,QWORD PTR [rip+0xcfc5]        # efd0 <__gmon_start__@Base>
    200b:	48 85 c0             	test   rax,rax
    200e:	74 02                	je     2012 <_init+0x12>
    2010:	ff d0                	call   rax
    2012:	48 83 c4 08          	add    rsp,0x8
    2016:	c3                   	ret

Disassembly of section .plt:

0000000000002020 <free@plt-0x10>:
    2020:	ff 35 ca cf 00 00    	push   QWORD PTR [rip+0xcfca]        # eff0 <_GLOBAL_OFFSET_TABLE_+0x8>
    2026:	ff 25 cc cf 00 00    	jmp    QWORD PTR [rip+0xcfcc]        # eff8 <_GLOBAL_OFFSET_TABLE_+0x10>
    202c:	0f 1f 40 00          	nop    DWORD PTR [rax+0x0]

0000000000002030 <free@plt>:
    2030:	ff 25 ca cf 00 00    	jmp    QWORD PTR [rip+0xcfca]        # f000 <free@GLIBC_2.2.5>
    2036:	68 00 00 00 00       	push   0x0
    203b:	e9 e0 ff ff ff       	jmp    2020 <_init+0x20>

0000000000002040 <putchar@plt>:
    2040:	ff 25 c2 cf 00 00    	jmp    QWORD PTR [rip+0xcfc2]        # f008 <putchar@GLIBC_2.2.5>
    2046:	68 01 00 00 00       	push   0x1
    204b:	e9 d0 ff ff ff       	jmp    2020 <_init+0x20>

0000000000002050 <strcasecmp@plt>:
    2050:	ff 25 ba cf 00 00    	jmp    QWORD PTR [rip+0xcfba]        # f010 <strcasecmp@GLIBC_2.2.5>
    2056:	68 02 00 00 00       	push   0x2
    205b:	e9 c0 ff ff ff       	jmp    2020 <_init+0x20>

0000000000002060 <strncpy@plt>:
    2060:	ff 25 b2 cf 00 00    	jmp    QWORD PTR [rip+0xcfb2]        # f018 <strncpy@GLIBC_2.2.5>
    2066:	68 03 00 00 00       	push   0x3
    206b:	e9 b0 ff ff ff       	jmp    2020 <_init+0x20>

0000000000002070 <strncmp@plt>:
    2070:	ff 25 aa cf 00 00    	jmp    QWORD PTR [rip+0xcfaa]        # f020 <strncmp@GLIBC_2.2.5>
    2076:	68 04 00 00 00       	push   0x4
    207b:	e9 a0 ff ff ff       	jmp    2020 <_init+0x20>

0000000000002080 <puts@plt>:
    2080:	ff 25 a2 cf 00 00    	jmp    QWORD PTR [rip+0xcfa2]        # f028 <puts@GLIBC_2.2.5>
    2086:	68 05 00 00 00       	push   0x5
    208b:	e9 90 ff ff ff       	jmp    2020 <_init+0x20>

0000000000002090 <fclose@plt>:
    2090:	ff 25 9a cf 00 00    	jmp    QWORD PTR [rip+0xcf9a]        # f030 <fclose@GLIBC_2.2.5>
    2096:	68 06 00 00 00       	push   0x6
    209b:	e9 80 ff ff ff       	jmp    2020 <_init+0x20>

00000000000020a0 <printf@plt>:
    20a0:	ff 25 92 cf 00 00    	jmp    QWORD PTR [rip+0xcf92]        # f038 <printf@GLIBC_2.2.5>
    20a6:	68 07 00 00 00       	push   0x7
    20ab:	e9 70 ff ff ff       	jmp    2020 <_init+0x20>

00000000000020b0 <snprintf@plt>:
    20b0:	ff 25 8a cf 00 00    	jmp    QWORD PTR [rip+0xcf8a]        # f040 <snprintf@GLIBC_2.2.5>
    20b6:	68 08 00 00 00       	push   0x8
    20bb:	e9 60 ff ff ff       	jmp    2020 <_init+0x20>

00000000000020c0 <memset@plt>:
    20c0:	ff 25 82 cf 00 00    	jmp    QWORD PTR [rip+0xcf82]        # f048 <memset@GLIBC_2.2.5>
    20c6:	68 09 00 00 00       	push   0x9
    20cb:	e9 50 ff ff ff       	jmp    2020 <_init+0x20>

00000000000020d0 <fgets@plt>:
    20d0:	ff 25 7a cf 00 00    	jmp    QWORD PTR [rip+0xcf7a]        # f050 <fgets@GLIBC_2.2.5>
    20d6:	68 0a 00 00 00       	push   0xa
    20db:	e9 40 ff ff ff       	jmp    2020 <_init+0x20>

00000000000020e0 <calloc@plt>:
    20e0:	ff 25 72 cf 00 00    	jmp    QWORD PTR [rip+0xcf72]        # f058 <calloc@GLIBC_2.2.5>
    20e6:	68 0b 00 00 00       	push   0xb
    20eb:	e9 30 ff ff ff       	jmp    2020 <_init+0x20>

00000000000020f0 <strcmp@plt>:
    20f0:	ff 25 6a cf 00 00    	jmp    QWORD PTR [rip+0xcf6a]        # f060 <strcmp@GLIBC_2.2.5>
    20f6:	68 0c 00 00 00       	push   0xc
    20fb:	e9 20 ff ff ff       	jmp    2020 <_init+0x20>

0000000000002100 <fprintf@plt>:
    2100:	ff 25 62 cf 00 00    	jmp    QWORD PTR [rip+0xcf62]        # f068 <fprintf@GLIBC_2.2.5>
    2106:	68 0d 00 00 00       	push   0xd
    210b:	e9 10 ff ff ff       	jmp    2020 <_init+0x20>

0000000000002110 <memcpy@plt>:
    2110:	ff 25 5a cf 00 00    	jmp    QWORD PTR [rip+0xcf5a]        # f070 <memcpy@GLIBC_2.14>
    2116:	68 0e 00 00 00       	push   0xe
    211b:	e9 00 ff ff ff       	jmp    2020 <_init+0x20>

0000000000002120 <strncasecmp@plt>:
    2120:	ff 25 52 cf 00 00    	jmp    QWORD PTR [rip+0xcf52]        # f078 <strncasecmp@GLIBC_2.2.5>
    2126:	68 0f 00 00 00       	push   0xf
    212b:	e9 f0 fe ff ff       	jmp    2020 <_init+0x20>

0000000000002130 <fflush@plt>:
    2130:	ff 25 4a cf 00 00    	jmp    QWORD PTR [rip+0xcf4a]        # f080 <fflush@GLIBC_2.2.5>
    2136:	68 10 00 00 00       	push   0x10
    213b:	e9 e0 fe ff ff       	jmp    2020 <_init+0x20>

0000000000002140 <fopen@plt>:
    2140:	ff 25 42 cf 00 00    	jmp    QWORD PTR [rip+0xcf42]        # f088 <fopen@GLIBC_2.2.5>
    2146:	68 11 00 00 00       	push   0x11
    214b:	e9 d0 fe ff ff       	jmp    2020 <_init+0x20>

0000000000002150 <atoi@plt>:
    2150:	ff 25 3a cf 00 00    	jmp    QWORD PTR [rip+0xcf3a]        # f090 <atoi@GLIBC_2.2.5>
    2156:	68 12 00 00 00       	push   0x12
    215b:	e9 c0 fe ff ff       	jmp    2020 <_init+0x20>

0000000000002160 <exit@plt>:
    2160:	ff 25 32 cf 00 00    	jmp    QWORD PTR [rip+0xcf32]        # f098 <exit@GLIBC_2.2.5>
    2166:	68 13 00 00 00       	push   0x13
    216b:	e9 b0 fe ff ff       	jmp    2020 <_init+0x20>

0000000000002170 <fwrite@plt>:
    2170:	ff 25 2a cf 00 00    	jmp    QWORD PTR [rip+0xcf2a]        # f0a0 <fwrite@GLIBC_2.2.5>
    2176:	68 14 00 00 00       	push   0x14
    217b:	e9 a0 fe ff ff       	jmp    2020 <_init+0x20>

0000000000002180 <strdup@plt>:
    2180:	ff 25 22 cf 00 00    	jmp    QWORD PTR [rip+0xcf22]        # f0a8 <strdup@GLIBC_2.2.5>
    2186:	68 15 00 00 00       	push   0x15
    218b:	e9 90 fe ff ff       	jmp    2020 <_init+0x20>

0000000000002190 <__ctype_b_loc@plt>:
    2190:	ff 25 1a cf 00 00    	jmp    QWORD PTR [rip+0xcf1a]        # f0b0 <__ctype_b_loc@GLIBC_2.3>
    2196:	68 16 00 00 00       	push   0x16
    219b:	e9 80 fe ff ff       	jmp    2020 <_init+0x20>

Disassembly of section .plt.got:

00000000000021a0 <__cxa_finalize@plt>:
    21a0:	ff 25 3a ce 00 00    	jmp    QWORD PTR [rip+0xce3a]        # efe0 <__cxa_finalize@GLIBC_2.2.5>
    21a6:	66 90                	xchg   ax,ax

Disassembly of section .text:

00000000000021b0 <_start>:
_start():
    21b0:	31 ed                	xor    ebp,ebp
    21b2:	49 89 d1             	mov    r9,rdx
    21b5:	5e                   	pop    rsi
    21b6:	48 89 e2             	mov    rdx,rsp
    21b9:	48 83 e4 f0          	and    rsp,0xfffffffffffffff0
    21bd:	50                   	push   rax
    21be:	54                   	push   rsp
    21bf:	45 31 c0             	xor    r8d,r8d
    21c2:	31 c9                	xor    ecx,ecx
    21c4:	48 8d 3d 80 9c 00 00 	lea    rdi,[rip+0x9c80]        # be4b <main>
    21cb:	ff 15 ef cd 00 00    	call   QWORD PTR [rip+0xcdef]        # efc0 <__libc_start_main@GLIBC_2.34>
    21d1:	f4                   	hlt
    21d2:	66 2e 0f 1f 84 00 00 	cs nop WORD PTR [rax+rax*1+0x0]
    21d9:	00 00 00 
    21dc:	0f 1f 40 00          	nop    DWORD PTR [rax+0x0]

00000000000021e0 <deregister_tm_clones>:
deregister_tm_clones():
    21e0:	48 8d 3d 41 d4 00 00 	lea    rdi,[rip+0xd441]        # f628 <__TMC_END__>
    21e7:	48 8d 05 3a d4 00 00 	lea    rax,[rip+0xd43a]        # f628 <__TMC_END__>
    21ee:	48 39 f8             	cmp    rax,rdi
    21f1:	74 15                	je     2208 <deregister_tm_clones+0x28>
    21f3:	48 8b 05 ce cd 00 00 	mov    rax,QWORD PTR [rip+0xcdce]        # efc8 <_ITM_deregisterTMCloneTable@Base>
    21fa:	48 85 c0             	test   rax,rax
    21fd:	74 09                	je     2208 <deregister_tm_clones+0x28>
    21ff:	ff e0                	jmp    rax
    2201:	0f 1f 80 00 00 00 00 	nop    DWORD PTR [rax+0x0]
    2208:	c3                   	ret
    2209:	0f 1f 80 00 00 00 00 	nop    DWORD PTR [rax+0x0]

0000000000002210 <register_tm_clones>:
register_tm_clones():
    2210:	48 8d 3d 11 d4 00 00 	lea    rdi,[rip+0xd411]        # f628 <__TMC_END__>
    2217:	48 8d 35 0a d4 00 00 	lea    rsi,[rip+0xd40a]        # f628 <__TMC_END__>
    221e:	48 29 fe             	sub    rsi,rdi
    2221:	48 89 f0             	mov    rax,rsi
    2224:	48 c1 ee 3f          	shr    rsi,0x3f
    2228:	48 c1 f8 03          	sar    rax,0x3
    222c:	48 01 c6             	add    rsi,rax
    222f:	48 d1 fe             	sar    rsi,1
    2232:	74 14                	je     2248 <register_tm_clones+0x38>
    2234:	48 8b 05 9d cd 00 00 	mov    rax,QWORD PTR [rip+0xcd9d]        # efd8 <_ITM_registerTMCloneTable@Base>
    223b:	48 85 c0             	test   rax,rax
    223e:	74 08                	je     2248 <register_tm_clones+0x38>
    2240:	ff e0                	jmp    rax
    2242:	66 0f 1f 44 00 00    	nop    WORD PTR [rax+rax*1+0x0]
    2248:	c3                   	ret
    2249:	0f 1f 80 00 00 00 00 	nop    DWORD PTR [rax+0x0]

0000000000002250 <__do_global_dtors_aux>:
__do_global_dtors_aux():
    2250:	f3 0f 1e fa          	endbr64
    2254:	80 3d 0d d4 00 00 00 	cmp    BYTE PTR [rip+0xd40d],0x0        # f668 <completed.0>
    225b:	75 2b                	jne    2288 <__do_global_dtors_aux+0x38>
    225d:	55                   	push   rbp
    225e:	48 83 3d 7a cd 00 00 	cmp    QWORD PTR [rip+0xcd7a],0x0        # efe0 <__cxa_finalize@GLIBC_2.2.5>
    2265:	00 
    2266:	48 89 e5             	mov    rbp,rsp
    2269:	74 0c                	je     2277 <__do_global_dtors_aux+0x27>
    226b:	48 8b 3d 56 ce 00 00 	mov    rdi,QWORD PTR [rip+0xce56]        # f0c8 <__dso_handle>
    2272:	e8 29 ff ff ff       	call   21a0 <__cxa_finalize@plt>
    2277:	e8 64 ff ff ff       	call   21e0 <deregister_tm_clones>
    227c:	c6 05 e5 d3 00 00 01 	mov    BYTE PTR [rip+0xd3e5],0x1        # f668 <completed.0>
    2283:	5d                   	pop    rbp
    2284:	c3                   	ret
    2285:	0f 1f 00             	nop    DWORD PTR [rax]
    2288:	c3                   	ret
    2289:	0f 1f 80 00 00 00 00 	nop    DWORD PTR [rax+0x0]

0000000000002290 <frame_dummy>:
frame_dummy():
    2290:	f3 0f 1e fa          	endbr64
    2294:	e9 77 ff ff ff       	jmp    2210 <register_tm_clones>

0000000000002299 <isin>:
isin():
    2299:	55                   	push   rbp
    229a:	48 89 e5             	mov    rbp,rsp
    229d:	48 89 7d e8          	mov    QWORD PTR [rbp-0x18],rdi
    22a1:	89 f0                	mov    eax,esi
    22a3:	88 45 e4             	mov    BYTE PTR [rbp-0x1c],al
    22a6:	c7 45 fc 00 00 00 00 	mov    DWORD PTR [rbp-0x4],0x0
    22ad:	eb 20                	jmp    22cf <isin+0x36>
    22af:	8b 45 fc             	mov    eax,DWORD PTR [rbp-0x4]
    22b2:	48 63 d0             	movsxd rdx,eax
    22b5:	48 8b 45 e8          	mov    rax,QWORD PTR [rbp-0x18]
    22b9:	48 01 d0             	add    rax,rdx
    22bc:	0f b6 00             	movzx  eax,BYTE PTR [rax]
    22bf:	38 45 e4             	cmp    BYTE PTR [rbp-0x1c],al
    22c2:	75 07                	jne    22cb <isin+0x32>
    22c4:	b8 01 00 00 00       	mov    eax,0x1
    22c9:	eb 1d                	jmp    22e8 <isin+0x4f>
    22cb:	83 45 fc 01          	add    DWORD PTR [rbp-0x4],0x1
    22cf:	8b 45 fc             	mov    eax,DWORD PTR [rbp-0x4]
    22d2:	48 63 d0             	movsxd rdx,eax
    22d5:	48 8b 45 e8          	mov    rax,QWORD PTR [rbp-0x18]
    22d9:	48 01 d0             	add    rax,rdx
    22dc:	0f b6 00             	movzx  eax,BYTE PTR [rax]
    22df:	84 c0                	test   al,al
    22e1:	75 cc                	jne    22af <isin+0x16>
    22e3:	b8 00 00 00 00       	mov    eax,0x0
    22e8:	5d                   	pop    rbp
    22e9:	c3                   	ret

00000000000022ea <is2arrin>:
is2arrin():
    22ea:	55                   	push   rbp
    22eb:	48 89 e5             	mov    rbp,rsp
    22ee:	48 83 ec 20          	sub    rsp,0x20
    22f2:	48 89 7d e8          	mov    QWORD PTR [rbp-0x18],rdi
    22f6:	48 89 75 e0          	mov    QWORD PTR [rbp-0x20],rsi
    22fa:	c7 45 fc 00 00 00 00 	mov    DWORD PTR [rbp-0x4],0x0
    2301:	eb 35                	jmp    2338 <is2arrin+0x4e>
    2303:	8b 45 fc             	mov    eax,DWORD PTR [rbp-0x4]
    2306:	48 98                	cdqe
    2308:	48 8d 14 c5 00 00 00 	lea    rdx,[rax*8+0x0]
    230f:	00 
    2310:	48 8b 45 e8          	mov    rax,QWORD PTR [rbp-0x18]
    2314:	48 01 d0             	add    rax,rdx
    2317:	48 8b 00             	mov    rax,QWORD PTR [rax]
    231a:	48 8b 55 e0          	mov    rdx,QWORD PTR [rbp-0x20]
    231e:	48 89 d6             	mov    rsi,rdx
    2321:	48 89 c7             	mov    rdi,rax
    2324:	e8 27 fd ff ff       	call   2050 <strcasecmp@plt>
    2329:	85 c0                	test   eax,eax
    232b:	75 07                	jne    2334 <is2arrin+0x4a>
    232d:	b8 01 00 00 00       	mov    eax,0x1
    2332:	eb 25                	jmp    2359 <is2arrin+0x6f>
    2334:	83 45 fc 01          	add    DWORD PTR [rbp-0x4],0x1
    2338:	8b 45 fc             	mov    eax,DWORD PTR [rbp-0x4]
    233b:	48 98                	cdqe
    233d:	48 8d 14 c5 00 00 00 	lea    rdx,[rax*8+0x0]
    2344:	00 
    2345:	48 8b 45 e8          	mov    rax,QWORD PTR [rbp-0x18]
    2349:	48 01 d0             	add    rax,rdx
    234c:	48 8b 00             	mov    rax,QWORD PTR [rax]
    234f:	48 85 c0             	test   rax,rax
    2352:	75 af                	jne    2303 <is2arrin+0x19>
    2354:	b8 00 00 00 00       	mov    eax,0x0
    2359:	c9                   	leave
    235a:	c3                   	ret

000000000000235b <parse_number>:
parse_number():
    235b:	55                   	push   rbp
    235c:	48 89 e5             	mov    rbp,rsp
    235f:	48 83 ec 10          	sub    rsp,0x10
    2363:	eb 12                	jmp    2377 <parse_number+0x1c>
    2365:	48 8b 05 3c 33 01 00 	mov    rax,QWORD PTR [rip+0x1333c]        # 156a8 <p>
    236c:	48 83 c0 01          	add    rax,0x1
    2370:	48 89 05 31 33 01 00 	mov    QWORD PTR [rip+0x13331],rax        # 156a8 <p>
    2377:	e8 14 fe ff ff       	call   2190 <__ctype_b_loc@plt>
    237c:	48 8b 10             	mov    rdx,QWORD PTR [rax]
    237f:	48 8b 05 22 33 01 00 	mov    rax,QWORD PTR [rip+0x13322]        # 156a8 <p>
    2386:	0f b6 00             	movzx  eax,BYTE PTR [rax]
    2389:	48 0f be c0          	movsx  rax,al
    238d:	48 01 c0             	add    rax,rax
    2390:	48 01 d0             	add    rax,rdx
    2393:	0f b7 00             	movzx  eax,WORD PTR [rax]
    2396:	0f b7 c0             	movzx  eax,ax
    2399:	25 00 20 00 00       	and    eax,0x2000
    239e:	85 c0                	test   eax,eax
    23a0:	75 c3                	jne    2365 <parse_number+0xa>
    23a2:	48 8b 05 ff 32 01 00 	mov    rax,QWORD PTR [rip+0x132ff]        # 156a8 <p>
    23a9:	0f b6 00             	movzx  eax,BYTE PTR [rax]
    23ac:	3c 2d                	cmp    al,0x2d
    23ae:	75 1f                	jne    23cf <parse_number+0x74>
    23b0:	48 8b 05 f1 32 01 00 	mov    rax,QWORD PTR [rip+0x132f1]        # 156a8 <p>
    23b7:	48 83 c0 01          	add    rax,0x1
    23bb:	48 89 05 e6 32 01 00 	mov    QWORD PTR [rip+0x132e6],rax        # 156a8 <p>
    23c2:	e8 94 ff ff ff       	call   235b <parse_number>
    23c7:	48 f7 d8             	neg    rax
    23ca:	e9 a6 03 00 00       	jmp    2775 <parse_number+0x41a>
    23cf:	48 8b 05 d2 32 01 00 	mov    rax,QWORD PTR [rip+0x132d2]        # 156a8 <p>
    23d6:	0f b6 00             	movzx  eax,BYTE PTR [rax]
    23d9:	3c 28                	cmp    al,0x28
    23db:	75 44                	jne    2421 <parse_number+0xc6>
    23dd:	48 8b 05 c4 32 01 00 	mov    rax,QWORD PTR [rip+0x132c4]        # 156a8 <p>
    23e4:	48 83 c0 01          	add    rax,0x1
    23e8:	48 89 05 b9 32 01 00 	mov    QWORD PTR [rip+0x132b9],rax        # 156a8 <p>
    23ef:	e8 47 04 00 00       	call   283b <parse_expr>
    23f4:	48 89 45 f0          	mov    QWORD PTR [rbp-0x10],rax
    23f8:	48 8b 05 a9 32 01 00 	mov    rax,QWORD PTR [rip+0x132a9]        # 156a8 <p>
    23ff:	0f b6 00             	movzx  eax,BYTE PTR [rax]
    2402:	3c 29                	cmp    al,0x29
    2404:	75 12                	jne    2418 <parse_number+0xbd>
    2406:	48 8b 05 9b 32 01 00 	mov    rax,QWORD PTR [rip+0x1329b]        # 156a8 <p>
    240d:	48 83 c0 01          	add    rax,0x1
    2411:	48 89 05 90 32 01 00 	mov    QWORD PTR [rip+0x13290],rax        # 156a8 <p>
    2418:	48 8b 45 f0          	mov    rax,QWORD PTR [rbp-0x10]
    241c:	e9 54 03 00 00       	jmp    2775 <parse_number+0x41a>
    2421:	48 c7 45 f8 00 00 00 	mov    QWORD PTR [rbp-0x8],0x0
    2428:	00 
    2429:	48 8b 05 78 32 01 00 	mov    rax,QWORD PTR [rip+0x13278]        # 156a8 <p>
    2430:	0f b6 00             	movzx  eax,BYTE PTR [rax]
    2433:	3c 30                	cmp    al,0x30
    2435:	0f 85 50 01 00 00    	jne    258b <parse_number+0x230>
    243b:	48 8b 05 66 32 01 00 	mov    rax,QWORD PTR [rip+0x13266]        # 156a8 <p>
    2442:	48 83 c0 01          	add    rax,0x1
    2446:	0f b6 00             	movzx  eax,BYTE PTR [rax]
    2449:	3c 78                	cmp    al,0x78
    244b:	74 16                	je     2463 <parse_number+0x108>
    244d:	48 8b 05 54 32 01 00 	mov    rax,QWORD PTR [rip+0x13254]        # 156a8 <p>
    2454:	48 83 c0 01          	add    rax,0x1
    2458:	0f b6 00             	movzx  eax,BYTE PTR [rax]
    245b:	3c 58                	cmp    al,0x58
    245d:	0f 85 28 01 00 00    	jne    258b <parse_number+0x230>
    2463:	48 8b 05 3e 32 01 00 	mov    rax,QWORD PTR [rip+0x1323e]        # 156a8 <p>
    246a:	48 83 c0 02          	add    rax,0x2
    246e:	48 89 05 33 32 01 00 	mov    QWORD PTR [rip+0x13233],rax        # 156a8 <p>
    2475:	e9 d9 00 00 00       	jmp    2553 <parse_number+0x1f8>
    247a:	48 8b 05 27 32 01 00 	mov    rax,QWORD PTR [rip+0x13227]        # 156a8 <p>
    2481:	0f b6 00             	movzx  eax,BYTE PTR [rax]
    2484:	3c 2f                	cmp    al,0x2f
    2486:	7e 37                	jle    24bf <parse_number+0x164>
    2488:	48 8b 05 19 32 01 00 	mov    rax,QWORD PTR [rip+0x13219]        # 156a8 <p>
    248f:	0f b6 00             	movzx  eax,BYTE PTR [rax]
    2492:	3c 39                	cmp    al,0x39
    2494:	7f 29                	jg     24bf <parse_number+0x164>
    2496:	48 8b 45 f8          	mov    rax,QWORD PTR [rbp-0x8]
    249a:	48 c1 e0 04          	shl    rax,0x4
    249e:	48 89 c2             	mov    rdx,rax
    24a1:	48 8b 05 00 32 01 00 	mov    rax,QWORD PTR [rip+0x13200]        # 156a8 <p>
    24a8:	0f b6 00             	movzx  eax,BYTE PTR [rax]
    24ab:	0f be c0             	movsx  eax,al
    24ae:	83 e8 30             	sub    eax,0x30
    24b1:	48 98                	cdqe
    24b3:	48 01 d0             	add    rax,rdx
    24b6:	48 89 45 f8          	mov    QWORD PTR [rbp-0x8],rax
    24ba:	e9 82 00 00 00       	jmp    2541 <parse_number+0x1e6>
    24bf:	48 8b 05 e2 31 01 00 	mov    rax,QWORD PTR [rip+0x131e2]        # 156a8 <p>
    24c6:	0f b6 00             	movzx  eax,BYTE PTR [rax]
    24c9:	3c 60                	cmp    al,0x60
    24cb:	7e 34                	jle    2501 <parse_number+0x1a6>
    24cd:	48 8b 05 d4 31 01 00 	mov    rax,QWORD PTR [rip+0x131d4]        # 156a8 <p>
    24d4:	0f b6 00             	movzx  eax,BYTE PTR [rax]
    24d7:	3c 66                	cmp    al,0x66
    24d9:	7f 26                	jg     2501 <parse_number+0x1a6>
    24db:	48 8b 45 f8          	mov    rax,QWORD PTR [rbp-0x8]
    24df:	48 c1 e0 04          	shl    rax,0x4
    24e3:	48 89 c2             	mov    rdx,rax
    24e6:	48 8b 05 bb 31 01 00 	mov    rax,QWORD PTR [rip+0x131bb]        # 156a8 <p>
    24ed:	0f b6 00             	movzx  eax,BYTE PTR [rax]
    24f0:	0f be c0             	movsx  eax,al
    24f3:	83 e8 57             	sub    eax,0x57
    24f6:	48 98                	cdqe
    24f8:	48 01 d0             	add    rax,rdx
    24fb:	48 89 45 f8          	mov    QWORD PTR [rbp-0x8],rax
    24ff:	eb 40                	jmp    2541 <parse_number+0x1e6>
    2501:	48 8b 05 a0 31 01 00 	mov    rax,QWORD PTR [rip+0x131a0]        # 156a8 <p>
    2508:	0f b6 00             	movzx  eax,BYTE PTR [rax]
    250b:	3c 40                	cmp    al,0x40
    250d:	7e 32                	jle    2541 <parse_number+0x1e6>
    250f:	48 8b 05 92 31 01 00 	mov    rax,QWORD PTR [rip+0x13192]        # 156a8 <p>
    2516:	0f b6 00             	movzx  eax,BYTE PTR [rax]
    2519:	3c 46                	cmp    al,0x46
    251b:	7f 24                	jg     2541 <parse_number+0x1e6>
    251d:	48 8b 45 f8          	mov    rax,QWORD PTR [rbp-0x8]
    2521:	48 c1 e0 04          	shl    rax,0x4
    2525:	48 89 c2             	mov    rdx,rax
    2528:	48 8b 05 79 31 01 00 	mov    rax,QWORD PTR [rip+0x13179]        # 156a8 <p>
    252f:	0f b6 00             	movzx  eax,BYTE PTR [rax]
    2532:	0f be c0             	movsx  eax,al
    2535:	83 e8 37             	sub    eax,0x37
    2538:	48 98                	cdqe
    253a:	48 01 d0             	add    rax,rdx
    253d:	48 89 45 f8          	mov    QWORD PTR [rbp-0x8],rax
    2541:	48 8b 05 60 31 01 00 	mov    rax,QWORD PTR [rip+0x13160]        # 156a8 <p>
    2548:	48 83 c0 01          	add    rax,0x1
    254c:	48 89 05 55 31 01 00 	mov    QWORD PTR [rip+0x13155],rax        # 156a8 <p>
    2553:	e8 38 fc ff ff       	call   2190 <__ctype_b_loc@plt>
    2558:	48 8b 10             	mov    rdx,QWORD PTR [rax]
    255b:	48 8b 05 46 31 01 00 	mov    rax,QWORD PTR [rip+0x13146]        # 156a8 <p>
    2562:	0f b6 00             	movzx  eax,BYTE PTR [rax]
    2565:	48 0f be c0          	movsx  rax,al
    2569:	48 01 c0             	add    rax,rax
    256c:	48 01 d0             	add    rax,rdx
    256f:	0f b7 00             	movzx  eax,WORD PTR [rax]
    2572:	0f b7 c0             	movzx  eax,ax
    2575:	25 00 10 00 00       	and    eax,0x1000
    257a:	85 c0                	test   eax,eax
    257c:	0f 85 f8 fe ff ff    	jne    247a <parse_number+0x11f>
    2582:	48 8b 45 f8          	mov    rax,QWORD PTR [rbp-0x8]
    2586:	e9 ea 01 00 00       	jmp    2775 <parse_number+0x41a>
    258b:	48 8b 05 16 31 01 00 	mov    rax,QWORD PTR [rip+0x13116]        # 156a8 <p>
    2592:	0f b6 00             	movzx  eax,BYTE PTR [rax]
    2595:	3c 30                	cmp    al,0x30
    2597:	0f 85 90 00 00 00    	jne    262d <parse_number+0x2d2>
    259d:	48 8b 05 04 31 01 00 	mov    rax,QWORD PTR [rip+0x13104]        # 156a8 <p>
    25a4:	48 83 c0 01          	add    rax,0x1
    25a8:	0f b6 00             	movzx  eax,BYTE PTR [rax]
    25ab:	3c 62                	cmp    al,0x62
    25ad:	74 12                	je     25c1 <parse_number+0x266>
    25af:	48 8b 05 f2 30 01 00 	mov    rax,QWORD PTR [rip+0x130f2]        # 156a8 <p>
    25b6:	48 83 c0 01          	add    rax,0x1
    25ba:	0f b6 00             	movzx  eax,BYTE PTR [rax]
    25bd:	3c 42                	cmp    al,0x42
    25bf:	75 6c                	jne    262d <parse_number+0x2d2>
    25c1:	48 8b 05 e0 30 01 00 	mov    rax,QWORD PTR [rip+0x130e0]        # 156a8 <p>
    25c8:	48 83 c0 02          	add    rax,0x2
    25cc:	48 89 05 d5 30 01 00 	mov    QWORD PTR [rip+0x130d5],rax        # 156a8 <p>
    25d3:	eb 33                	jmp    2608 <parse_number+0x2ad>
    25d5:	48 8b 45 f8          	mov    rax,QWORD PTR [rbp-0x8]
    25d9:	48 8d 14 00          	lea    rdx,[rax+rax*1]
    25dd:	48 8b 05 c4 30 01 00 	mov    rax,QWORD PTR [rip+0x130c4]        # 156a8 <p>
    25e4:	0f b6 00             	movzx  eax,BYTE PTR [rax]
    25e7:	0f be c0             	movsx  eax,al
    25ea:	83 e8 30             	sub    eax,0x30
    25ed:	48 98                	cdqe
    25ef:	48 01 d0             	add    rax,rdx
    25f2:	48 89 45 f8          	mov    QWORD PTR [rbp-0x8],rax
    25f6:	48 8b 05 ab 30 01 00 	mov    rax,QWORD PTR [rip+0x130ab]        # 156a8 <p>
    25fd:	48 83 c0 01          	add    rax,0x1
    2601:	48 89 05 a0 30 01 00 	mov    QWORD PTR [rip+0x130a0],rax        # 156a8 <p>
    2608:	48 8b 05 99 30 01 00 	mov    rax,QWORD PTR [rip+0x13099]        # 156a8 <p>
    260f:	0f b6 00             	movzx  eax,BYTE PTR [rax]
    2612:	3c 30                	cmp    al,0x30
    2614:	74 bf                	je     25d5 <parse_number+0x27a>
    2616:	48 8b 05 8b 30 01 00 	mov    rax,QWORD PTR [rip+0x1308b]        # 156a8 <p>
    261d:	0f b6 00             	movzx  eax,BYTE PTR [rax]
    2620:	3c 31                	cmp    al,0x31
    2622:	74 b1                	je     25d5 <parse_number+0x27a>
    2624:	48 8b 45 f8          	mov    rax,QWORD PTR [rbp-0x8]
    2628:	e9 48 01 00 00       	jmp    2775 <parse_number+0x41a>
    262d:	48 8b 05 74 30 01 00 	mov    rax,QWORD PTR [rip+0x13074]        # 156a8 <p>
    2634:	0f b6 00             	movzx  eax,BYTE PTR [rax]
    2637:	3c 30                	cmp    al,0x30
    2639:	0f 85 94 00 00 00    	jne    26d3 <parse_number+0x378>
    263f:	48 8b 05 62 30 01 00 	mov    rax,QWORD PTR [rip+0x13062]        # 156a8 <p>
    2646:	48 83 c0 01          	add    rax,0x1
    264a:	0f b6 00             	movzx  eax,BYTE PTR [rax]
    264d:	3c 6f                	cmp    al,0x6f
    264f:	74 12                	je     2663 <parse_number+0x308>
    2651:	48 8b 05 50 30 01 00 	mov    rax,QWORD PTR [rip+0x13050]        # 156a8 <p>
    2658:	48 83 c0 01          	add    rax,0x1
    265c:	0f b6 00             	movzx  eax,BYTE PTR [rax]
    265f:	3c 4f                	cmp    al,0x4f
    2661:	75 70                	jne    26d3 <parse_number+0x378>
    2663:	48 8b 05 3e 30 01 00 	mov    rax,QWORD PTR [rip+0x1303e]        # 156a8 <p>
    266a:	48 83 c0 02          	add    rax,0x2
    266e:	48 89 05 33 30 01 00 	mov    QWORD PTR [rip+0x13033],rax        # 156a8 <p>
    2675:	eb 37                	jmp    26ae <parse_number+0x353>
    2677:	48 8b 45 f8          	mov    rax,QWORD PTR [rbp-0x8]
    267b:	48 8d 14 c5 00 00 00 	lea    rdx,[rax*8+0x0]
    2682:	00 
    2683:	48 8b 05 1e 30 01 00 	mov    rax,QWORD PTR [rip+0x1301e]        # 156a8 <p>
    268a:	0f b6 00             	movzx  eax,BYTE PTR [rax]
    268d:	0f be c0             	movsx  eax,al
    2690:	83 e8 30             	sub    eax,0x30
    2693:	48 98                	cdqe
    2695:	48 01 d0             	add    rax,rdx
    2698:	48 89 45 f8          	mov    QWORD PTR [rbp-0x8],rax
    269c:	48 8b 05 05 30 01 00 	mov    rax,QWORD PTR [rip+0x13005]        # 156a8 <p>
    26a3:	48 83 c0 01          	add    rax,0x1
    26a7:	48 89 05 fa 2f 01 00 	mov    QWORD PTR [rip+0x12ffa],rax        # 156a8 <p>
    26ae:	48 8b 05 f3 2f 01 00 	mov    rax,QWORD PTR [rip+0x12ff3]        # 156a8 <p>
    26b5:	0f b6 00             	movzx  eax,BYTE PTR [rax]
    26b8:	3c 2f                	cmp    al,0x2f
    26ba:	7e 0e                	jle    26ca <parse_number+0x36f>
    26bc:	48 8b 05 e5 2f 01 00 	mov    rax,QWORD PTR [rip+0x12fe5]        # 156a8 <p>
    26c3:	0f b6 00             	movzx  eax,BYTE PTR [rax]
    26c6:	3c 37                	cmp    al,0x37
    26c8:	7e ad                	jle    2677 <parse_number+0x31c>
    26ca:	48 8b 45 f8          	mov    rax,QWORD PTR [rbp-0x8]
    26ce:	e9 a2 00 00 00       	jmp    2775 <parse_number+0x41a>
    26d3:	e8 b8 fa ff ff       	call   2190 <__ctype_b_loc@plt>
    26d8:	48 8b 10             	mov    rdx,QWORD PTR [rax]
    26db:	48 8b 05 c6 2f 01 00 	mov    rax,QWORD PTR [rip+0x12fc6]        # 156a8 <p>
    26e2:	0f b6 00             	movzx  eax,BYTE PTR [rax]
    26e5:	48 0f be c0          	movsx  rax,al
    26e9:	48 01 c0             	add    rax,rax
    26ec:	48 01 d0             	add    rax,rdx
    26ef:	0f b7 00             	movzx  eax,WORD PTR [rax]
    26f2:	0f b7 c0             	movzx  eax,ax
    26f5:	25 00 08 00 00       	and    eax,0x800
    26fa:	85 c0                	test   eax,eax
    26fc:	74 72                	je     2770 <parse_number+0x415>
    26fe:	eb 3f                	jmp    273f <parse_number+0x3e4>
    2700:	48 8b 55 f8          	mov    rdx,QWORD PTR [rbp-0x8]
    2704:	48 89 d0             	mov    rax,rdx
    2707:	48 c1 e0 02          	shl    rax,0x2
    270b:	48 01 d0             	add    rax,rdx
    270e:	48 01 c0             	add    rax,rax
    2711:	48 89 c2             	mov    rdx,rax
    2714:	48 8b 05 8d 2f 01 00 	mov    rax,QWORD PTR [rip+0x12f8d]        # 156a8 <p>
    271b:	0f b6 00             	movzx  eax,BYTE PTR [rax]
    271e:	0f be c0             	movsx  eax,al
    2721:	83 e8 30             	sub    eax,0x30
    2724:	48 98                	cdqe
    2726:	48 01 d0             	add    rax,rdx
    2729:	48 89 45 f8          	mov    QWORD PTR [rbp-0x8],rax
    272d:	48 8b 05 74 2f 01 00 	mov    rax,QWORD PTR [rip+0x12f74]        # 156a8 <p>
    2734:	48 83 c0 01          	add    rax,0x1
    2738:	48 89 05 69 2f 01 00 	mov    QWORD PTR [rip+0x12f69],rax        # 156a8 <p>
    273f:	e8 4c fa ff ff       	call   2190 <__ctype_b_loc@plt>
    2744:	48 8b 10             	mov    rdx,QWORD PTR [rax]
    2747:	48 8b 05 5a 2f 01 00 	mov    rax,QWORD PTR [rip+0x12f5a]        # 156a8 <p>
    274e:	0f b6 00             	movzx  eax,BYTE PTR [rax]
    2751:	48 0f be c0          	movsx  rax,al
    2755:	48 01 c0             	add    rax,rax
    2758:	48 01 d0             	add    rax,rdx
    275b:	0f b7 00             	movzx  eax,WORD PTR [rax]
    275e:	0f b7 c0             	movzx  eax,ax
    2761:	25 00 08 00 00       	and    eax,0x800
    2766:	85 c0                	test   eax,eax
    2768:	75 96                	jne    2700 <parse_number+0x3a5>
    276a:	48 8b 45 f8          	mov    rax,QWORD PTR [rbp-0x8]
    276e:	eb 05                	jmp    2775 <parse_number+0x41a>
    2770:	b8 00 00 00 00       	mov    eax,0x0
    2775:	c9                   	leave
    2776:	c3                   	ret

0000000000002777 <parse_term>:
parse_term():
    2777:	55                   	push   rbp
    2778:	48 89 e5             	mov    rbp,rsp
    277b:	48 83 ec 10          	sub    rsp,0x10
    277f:	e8 d7 fb ff ff       	call   235b <parse_number>
    2784:	48 89 45 f8          	mov    QWORD PTR [rbp-0x8],rax
    2788:	eb 12                	jmp    279c <parse_term+0x25>
    278a:	48 8b 05 17 2f 01 00 	mov    rax,QWORD PTR [rip+0x12f17]        # 156a8 <p>
    2791:	48 83 c0 01          	add    rax,0x1
    2795:	48 89 05 0c 2f 01 00 	mov    QWORD PTR [rip+0x12f0c],rax        # 156a8 <p>
    279c:	e8 ef f9 ff ff       	call   2190 <__ctype_b_loc@plt>
    27a1:	48 8b 10             	mov    rdx,QWORD PTR [rax]
    27a4:	48 8b 05 fd 2e 01 00 	mov    rax,QWORD PTR [rip+0x12efd]        # 156a8 <p>
    27ab:	0f b6 00             	movzx  eax,BYTE PTR [rax]
    27ae:	48 0f be c0          	movsx  rax,al
    27b2:	48 01 c0             	add    rax,rax
    27b5:	48 01 d0             	add    rax,rdx
    27b8:	0f b7 00             	movzx  eax,WORD PTR [rax]
    27bb:	0f b7 c0             	movzx  eax,ax
    27be:	25 00 20 00 00       	and    eax,0x2000
    27c3:	85 c0                	test   eax,eax
    27c5:	75 c3                	jne    278a <parse_term+0x13>
    27c7:	48 8b 05 da 2e 01 00 	mov    rax,QWORD PTR [rip+0x12eda]        # 156a8 <p>
    27ce:	0f b6 00             	movzx  eax,BYTE PTR [rax]
    27d1:	3c 2a                	cmp    al,0x2a
    27d3:	75 25                	jne    27fa <parse_term+0x83>
    27d5:	48 8b 05 cc 2e 01 00 	mov    rax,QWORD PTR [rip+0x12ecc]        # 156a8 <p>
    27dc:	48 83 c0 01          	add    rax,0x1
    27e0:	48 89 05 c1 2e 01 00 	mov    QWORD PTR [rip+0x12ec1],rax        # 156a8 <p>
    27e7:	e8 6f fb ff ff       	call   235b <parse_number>
    27ec:	48 8b 55 f8          	mov    rdx,QWORD PTR [rbp-0x8]
    27f0:	48 0f af c2          	imul   rax,rdx
    27f4:	48 89 45 f8          	mov    QWORD PTR [rbp-0x8],rax
    27f8:	eb a2                	jmp    279c <parse_term+0x25>
    27fa:	48 8b 05 a7 2e 01 00 	mov    rax,QWORD PTR [rip+0x12ea7]        # 156a8 <p>
    2801:	0f b6 00             	movzx  eax,BYTE PTR [rax]
    2804:	3c 2f                	cmp    al,0x2f
    2806:	75 2c                	jne    2834 <parse_term+0xbd>
    2808:	48 8b 05 99 2e 01 00 	mov    rax,QWORD PTR [rip+0x12e99]        # 156a8 <p>
    280f:	48 83 c0 01          	add    rax,0x1
    2813:	48 89 05 8e 2e 01 00 	mov    QWORD PTR [rip+0x12e8e],rax        # 156a8 <p>
    281a:	e8 3c fb ff ff       	call   235b <parse_number>
    281f:	48 89 c1             	mov    rcx,rax
    2822:	48 8b 45 f8          	mov    rax,QWORD PTR [rbp-0x8]
    2826:	48 99                	cqo
    2828:	48 f7 f9             	idiv   rcx
    282b:	48 89 45 f8          	mov    QWORD PTR [rbp-0x8],rax
    282f:	e9 68 ff ff ff       	jmp    279c <parse_term+0x25>
    2834:	90                   	nop
    2835:	48 8b 45 f8          	mov    rax,QWORD PTR [rbp-0x8]
    2839:	c9                   	leave
    283a:	c3                   	ret

000000000000283b <parse_expr>:
parse_expr():
    283b:	55                   	push   rbp
    283c:	48 89 e5             	mov    rbp,rsp
    283f:	48 83 ec 10          	sub    rsp,0x10
    2843:	e8 2f ff ff ff       	call   2777 <parse_term>
    2848:	48 89 45 f8          	mov    QWORD PTR [rbp-0x8],rax
    284c:	eb 12                	jmp    2860 <parse_expr+0x25>
    284e:	48 8b 05 53 2e 01 00 	mov    rax,QWORD PTR [rip+0x12e53]        # 156a8 <p>
    2855:	48 83 c0 01          	add    rax,0x1
    2859:	48 89 05 48 2e 01 00 	mov    QWORD PTR [rip+0x12e48],rax        # 156a8 <p>
    2860:	e8 2b f9 ff ff       	call   2190 <__ctype_b_loc@plt>
    2865:	48 8b 10             	mov    rdx,QWORD PTR [rax]
    2868:	48 8b 05 39 2e 01 00 	mov    rax,QWORD PTR [rip+0x12e39]        # 156a8 <p>
    286f:	0f b6 00             	movzx  eax,BYTE PTR [rax]
    2872:	48 0f be c0          	movsx  rax,al
    2876:	48 01 c0             	add    rax,rax
    2879:	48 01 d0             	add    rax,rdx
    287c:	0f b7 00             	movzx  eax,WORD PTR [rax]
    287f:	0f b7 c0             	movzx  eax,ax
    2882:	25 00 20 00 00       	and    eax,0x2000
    2887:	85 c0                	test   eax,eax
    2889:	75 c3                	jne    284e <parse_expr+0x13>
    288b:	48 8b 05 16 2e 01 00 	mov    rax,QWORD PTR [rip+0x12e16]        # 156a8 <p>
    2892:	0f b6 00             	movzx  eax,BYTE PTR [rax]
    2895:	3c 2b                	cmp    al,0x2b
    2897:	75 1d                	jne    28b6 <parse_expr+0x7b>
    2899:	48 8b 05 08 2e 01 00 	mov    rax,QWORD PTR [rip+0x12e08]        # 156a8 <p>
    28a0:	48 83 c0 01          	add    rax,0x1
    28a4:	48 89 05 fd 2d 01 00 	mov    QWORD PTR [rip+0x12dfd],rax        # 156a8 <p>
    28ab:	e8 c7 fe ff ff       	call   2777 <parse_term>
    28b0:	48 01 45 f8          	add    QWORD PTR [rbp-0x8],rax
    28b4:	eb aa                	jmp    2860 <parse_expr+0x25>
    28b6:	48 8b 05 eb 2d 01 00 	mov    rax,QWORD PTR [rip+0x12deb]        # 156a8 <p>
    28bd:	0f b6 00             	movzx  eax,BYTE PTR [rax]
    28c0:	3c 2d                	cmp    al,0x2d
    28c2:	75 20                	jne    28e4 <parse_expr+0xa9>
    28c4:	48 8b 05 dd 2d 01 00 	mov    rax,QWORD PTR [rip+0x12ddd]        # 156a8 <p>
    28cb:	48 83 c0 01          	add    rax,0x1
    28cf:	48 89 05 d2 2d 01 00 	mov    QWORD PTR [rip+0x12dd2],rax        # 156a8 <p>
    28d6:	e8 9c fe ff ff       	call   2777 <parse_term>
    28db:	48 29 45 f8          	sub    QWORD PTR [rbp-0x8],rax
    28df:	e9 7c ff ff ff       	jmp    2860 <parse_expr+0x25>
    28e4:	90                   	nop
    28e5:	48 8b 45 f8          	mov    rax,QWORD PTR [rbp-0x8]
    28e9:	c9                   	leave
    28ea:	c3                   	ret

00000000000028eb <eval_expr>:
eval_expr():
    28eb:	55                   	push   rbp
    28ec:	48 89 e5             	mov    rbp,rsp
    28ef:	48 83 ec 10          	sub    rsp,0x10
    28f3:	48 89 7d f8          	mov    QWORD PTR [rbp-0x8],rdi
    28f7:	48 8b 45 f8          	mov    rax,QWORD PTR [rbp-0x8]
    28fb:	48 89 05 a6 2d 01 00 	mov    QWORD PTR [rip+0x12da6],rax        # 156a8 <p>
    2902:	e8 34 ff ff ff       	call   283b <parse_expr>
    2907:	c9                   	leave
    2908:	c3                   	ret

0000000000002909 <add_token>:
add_token():
    2909:	55                   	push   rbp
    290a:	48 89 e5             	mov    rbp,rsp
    290d:	53                   	push   rbx
    290e:	48 83 ec 18          	sub    rsp,0x18
    2912:	89 7d ec             	mov    DWORD PTR [rbp-0x14],edi
    2915:	48 89 75 e0          	mov    QWORD PTR [rbp-0x20],rsi
    2919:	89 55 e8             	mov    DWORD PTR [rbp-0x18],edx
    291c:	8b 05 7e 2d 01 00    	mov    eax,DWORD PTR [rip+0x12d7e]        # 156a0 <toks_count>
    2922:	3d ff 03 00 00       	cmp    eax,0x3ff
    2927:	7e 2d                	jle    2956 <add_token+0x4d>
    2929:	48 8b 05 30 cd 00 00 	mov    rax,QWORD PTR [rip+0xcd30]        # f660 <stderr@GLIBC_2.2.5>
    2930:	48 89 c1             	mov    rcx,rax
    2933:	ba 34 00 00 00       	mov    edx,0x34
    2938:	be 01 00 00 00       	mov    esi,0x1
    293d:	48 8d 05 1c 99 00 00 	lea    rax,[rip+0x991c]        # c260 <_IO_stdin_used+0x260>
    2944:	48 89 c7             	mov    rdi,rax
    2947:	e8 24 f8 ff ff       	call   2170 <fwrite@plt>
    294c:	bf 01 00 00 00       	mov    edi,0x1
    2951:	e8 0a f8 ff ff       	call   2160 <exit@plt>
    2956:	8b 05 44 2d 01 00    	mov    eax,DWORD PTR [rip+0x12d44]        # 156a0 <toks_count>
    295c:	48 63 d0             	movsxd rdx,eax
    295f:	48 89 d0             	mov    rax,rdx
    2962:	48 01 c0             	add    rax,rax
    2965:	48 01 d0             	add    rax,rdx
    2968:	48 c1 e0 03          	shl    rax,0x3
    296c:	48 89 c1             	mov    rcx,rax
    296f:	48 8d 15 3a cd 00 00 	lea    rdx,[rip+0xcd3a]        # f6b0 <toks+0x10>
    2976:	8b 45 e8             	mov    eax,DWORD PTR [rbp-0x18]
    2979:	89 04 11             	mov    DWORD PTR [rcx+rdx*1],eax
    297c:	8b 05 1e 2d 01 00    	mov    eax,DWORD PTR [rip+0x12d1e]        # 156a0 <toks_count>
    2982:	48 63 d0             	movsxd rdx,eax
    2985:	48 89 d0             	mov    rax,rdx
    2988:	48 01 c0             	add    rax,rax
    298b:	48 01 d0             	add    rax,rdx
    298e:	48 c1 e0 03          	shl    rax,0x3
    2992:	48 89 c1             	mov    rcx,rax
    2995:	48 8d 15 04 cd 00 00 	lea    rdx,[rip+0xcd04]        # f6a0 <toks>
    299c:	8b 45 ec             	mov    eax,DWORD PTR [rbp-0x14]
    299f:	89 04 11             	mov    DWORD PTR [rcx+rdx*1],eax
    29a2:	8b 1d f8 2c 01 00    	mov    ebx,DWORD PTR [rip+0x12cf8]        # 156a0 <toks_count>
    29a8:	48 8b 45 e0          	mov    rax,QWORD PTR [rbp-0x20]
    29ac:	48 89 c7             	mov    rdi,rax
    29af:	e8 cc f7 ff ff       	call   2180 <strdup@plt>
    29b4:	48 89 c1             	mov    rcx,rax
    29b7:	48 63 d3             	movsxd rdx,ebx
    29ba:	48 89 d0             	mov    rax,rdx
    29bd:	48 01 c0             	add    rax,rax
    29c0:	48 01 d0             	add    rax,rdx
    29c3:	48 c1 e0 03          	shl    rax,0x3
    29c7:	48 89 c2             	mov    rdx,rax
    29ca:	48 8d 05 d7 cc 00 00 	lea    rax,[rip+0xccd7]        # f6a8 <toks+0x8>
    29d1:	48 89 0c 02          	mov    QWORD PTR [rdx+rax*1],rcx
    29d5:	8b 05 c5 2c 01 00    	mov    eax,DWORD PTR [rip+0x12cc5]        # 156a0 <toks_count>
    29db:	83 c0 01             	add    eax,0x1
    29de:	89 05 bc 2c 01 00    	mov    DWORD PTR [rip+0x12cbc],eax        # 156a0 <toks_count>
    29e4:	90                   	nop
    29e5:	48 8b 5d f8          	mov    rbx,QWORD PTR [rbp-0x8]
    29e9:	c9                   	leave
    29ea:	c3                   	ret

00000000000029eb <del_all_toks>:
del_all_toks():
    29eb:	55                   	push   rbp
    29ec:	48 89 e5             	mov    rbp,rsp
    29ef:	48 83 ec 10          	sub    rsp,0x10
    29f3:	c7 45 fc ff 03 00 00 	mov    DWORD PTR [rbp-0x4],0x3ff
    29fa:	eb 2d                	jmp    2a29 <del_all_toks+0x3e>
    29fc:	8b 45 fc             	mov    eax,DWORD PTR [rbp-0x4]
    29ff:	48 63 d0             	movsxd rdx,eax
    2a02:	48 89 d0             	mov    rax,rdx
    2a05:	48 01 c0             	add    rax,rax
    2a08:	48 01 d0             	add    rax,rdx
    2a0b:	48 c1 e0 03          	shl    rax,0x3
    2a0f:	48 89 c2             	mov    rdx,rax
    2a12:	48 8d 05 8f cc 00 00 	lea    rax,[rip+0xcc8f]        # f6a8 <toks+0x8>
    2a19:	48 8b 04 02          	mov    rax,QWORD PTR [rdx+rax*1]
    2a1d:	48 89 c7             	mov    rdi,rax
    2a20:	e8 0b f6 ff ff       	call   2030 <free@plt>
    2a25:	83 6d fc 01          	sub    DWORD PTR [rbp-0x4],0x1
    2a29:	83 7d fc 00          	cmp    DWORD PTR [rbp-0x4],0x0
    2a2d:	79 cd                	jns    29fc <del_all_toks+0x11>
    2a2f:	90                   	nop
    2a30:	90                   	nop
    2a31:	c9                   	leave
    2a32:	c3                   	ret

0000000000002a33 <is_inst>:
is_inst():
    2a33:	55                   	push   rbp
    2a34:	48 89 e5             	mov    rbp,rsp
    2a37:	48 83 ec 20          	sub    rsp,0x20
    2a3b:	48 89 7d e8          	mov    QWORD PTR [rbp-0x18],rdi
    2a3f:	c7 45 fc 00 00 00 00 	mov    DWORD PTR [rbp-0x4],0x0
    2a46:	eb 36                	jmp    2a7e <is_inst+0x4b>
    2a48:	8b 45 fc             	mov    eax,DWORD PTR [rbp-0x4]
    2a4b:	48 98                	cdqe
    2a4d:	48 8d 14 c5 00 00 00 	lea    rdx,[rax*8+0x0]
    2a54:	00 
    2a55:	48 8d 05 84 c6 00 00 	lea    rax,[rip+0xc684]        # f0e0 <CMDS>
    2a5c:	48 8b 14 02          	mov    rdx,QWORD PTR [rdx+rax*1]
    2a60:	48 8b 45 e8          	mov    rax,QWORD PTR [rbp-0x18]
    2a64:	48 89 d6             	mov    rsi,rdx
    2a67:	48 89 c7             	mov    rdi,rax
    2a6a:	e8 e1 f5 ff ff       	call   2050 <strcasecmp@plt>
    2a6f:	85 c0                	test   eax,eax
    2a71:	75 07                	jne    2a7a <is_inst+0x47>
    2a73:	b8 01 00 00 00       	mov    eax,0x1
    2a78:	eb 26                	jmp    2aa0 <is_inst+0x6d>
    2a7a:	83 45 fc 01          	add    DWORD PTR [rbp-0x4],0x1
    2a7e:	8b 45 fc             	mov    eax,DWORD PTR [rbp-0x4]
    2a81:	48 98                	cdqe
    2a83:	48 8d 14 c5 00 00 00 	lea    rdx,[rax*8+0x0]
    2a8a:	00 
    2a8b:	48 8d 05 4e c6 00 00 	lea    rax,[rip+0xc64e]        # f0e0 <CMDS>
    2a92:	48 8b 04 02          	mov    rax,QWORD PTR [rdx+rax*1]
    2a96:	48 85 c0             	test   rax,rax
    2a99:	75 ad                	jne    2a48 <is_inst+0x15>
    2a9b:	b8 00 00 00 00       	mov    eax,0x0
    2aa0:	c9                   	leave
    2aa1:	c3                   	ret

0000000000002aa2 <DEBUG_PRINT_TOKENS>:
DEBUG_PRINT_TOKENS():
    2aa2:	55                   	push   rbp
    2aa3:	48 89 e5             	mov    rbp,rsp
    2aa6:	48 83 ec 10          	sub    rsp,0x10
    2aaa:	8b 05 f0 2b 01 00    	mov    eax,DWORD PTR [rip+0x12bf0]        # 156a0 <toks_count>
    2ab0:	89 c6                	mov    esi,eax
    2ab2:	48 8d 05 df 97 00 00 	lea    rax,[rip+0x97df]        # c298 <_IO_stdin_used+0x298>
    2ab9:	48 89 c7             	mov    rdi,rax
    2abc:	b8 00 00 00 00       	mov    eax,0x0
    2ac1:	e8 da f5 ff ff       	call   20a0 <printf@plt>
    2ac6:	c7 45 fc 00 00 00 00 	mov    DWORD PTR [rbp-0x4],0x0
    2acd:	e9 6c 02 00 00       	jmp    2d3e <DEBUG_PRINT_TOKENS+0x29c>
    2ad2:	48 8d 05 e0 97 00 00 	lea    rax,[rip+0x97e0]        # c2b9 <_IO_stdin_used+0x2b9>
    2ad9:	48 89 45 f0          	mov    QWORD PTR [rbp-0x10],rax
    2add:	8b 45 fc             	mov    eax,DWORD PTR [rbp-0x4]
    2ae0:	48 63 d0             	movsxd rdx,eax
    2ae3:	48 89 d0             	mov    rax,rdx
    2ae6:	48 01 c0             	add    rax,rax
    2ae9:	48 01 d0             	add    rax,rdx
    2aec:	48 c1 e0 03          	shl    rax,0x3
    2af0:	48 89 c2             	mov    rdx,rax
    2af3:	48 8d 05 a6 cb 00 00 	lea    rax,[rip+0xcba6]        # f6a0 <toks>
    2afa:	8b 04 02             	mov    eax,DWORD PTR [rdx+rax*1]
    2afd:	83 f8 1c             	cmp    eax,0x1c
    2b00:	0f 87 a3 01 00 00    	ja     2ca9 <DEBUG_PRINT_TOKENS+0x207>
    2b06:	89 c0                	mov    eax,eax
    2b08:	48 8d 14 85 00 00 00 	lea    rdx,[rax*4+0x0]
    2b0f:	00 
    2b10:	48 8d 05 b1 98 00 00 	lea    rax,[rip+0x98b1]        # c3c8 <_IO_stdin_used+0x3c8>
    2b17:	8b 04 02             	mov    eax,DWORD PTR [rdx+rax*1]
    2b1a:	48 98                	cdqe
    2b1c:	48 8d 15 a5 98 00 00 	lea    rdx,[rip+0x98a5]        # c3c8 <_IO_stdin_used+0x3c8>
    2b23:	48 01 d0             	add    rax,rdx
    2b26:	ff e0                	jmp    rax
    2b28:	48 8d 05 92 97 00 00 	lea    rax,[rip+0x9792]        # c2c1 <_IO_stdin_used+0x2c1>
    2b2f:	48 89 45 f0          	mov    QWORD PTR [rbp-0x10],rax
    2b33:	e9 71 01 00 00       	jmp    2ca9 <DEBUG_PRINT_TOKENS+0x207>
    2b38:	48 8d 05 88 97 00 00 	lea    rax,[rip+0x9788]        # c2c7 <_IO_stdin_used+0x2c7>
    2b3f:	48 89 45 f0          	mov    QWORD PTR [rbp-0x10],rax
    2b43:	e9 61 01 00 00       	jmp    2ca9 <DEBUG_PRINT_TOKENS+0x207>
    2b48:	48 8d 05 7e 97 00 00 	lea    rax,[rip+0x977e]        # c2cd <_IO_stdin_used+0x2cd>
    2b4f:	48 89 45 f0          	mov    QWORD PTR [rbp-0x10],rax
    2b53:	e9 51 01 00 00       	jmp    2ca9 <DEBUG_PRINT_TOKENS+0x207>
    2b58:	48 8d 05 74 97 00 00 	lea    rax,[rip+0x9774]        # c2d3 <_IO_stdin_used+0x2d3>
    2b5f:	48 89 45 f0          	mov    QWORD PTR [rbp-0x10],rax
    2b63:	e9 41 01 00 00       	jmp    2ca9 <DEBUG_PRINT_TOKENS+0x207>
    2b68:	48 8d 05 6b 97 00 00 	lea    rax,[rip+0x976b]        # c2da <_IO_stdin_used+0x2da>
    2b6f:	48 89 45 f0          	mov    QWORD PTR [rbp-0x10],rax
    2b73:	e9 31 01 00 00       	jmp    2ca9 <DEBUG_PRINT_TOKENS+0x207>
    2b78:	48 8d 05 63 97 00 00 	lea    rax,[rip+0x9763]        # c2e2 <_IO_stdin_used+0x2e2>
    2b7f:	48 89 45 f0          	mov    QWORD PTR [rbp-0x10],rax
    2b83:	e9 21 01 00 00       	jmp    2ca9 <DEBUG_PRINT_TOKENS+0x207>
    2b88:	48 8d 05 5b 97 00 00 	lea    rax,[rip+0x975b]        # c2ea <_IO_stdin_used+0x2ea>
    2b8f:	48 89 45 f0          	mov    QWORD PTR [rbp-0x10],rax
    2b93:	e9 11 01 00 00       	jmp    2ca9 <DEBUG_PRINT_TOKENS+0x207>
    2b98:	48 8d 05 53 97 00 00 	lea    rax,[rip+0x9753]        # c2f2 <_IO_stdin_used+0x2f2>
    2b9f:	48 89 45 f0          	mov    QWORD PTR [rbp-0x10],rax
    2ba3:	e9 01 01 00 00       	jmp    2ca9 <DEBUG_PRINT_TOKENS+0x207>
    2ba8:	48 8d 05 4f 97 00 00 	lea    rax,[rip+0x974f]        # c2fe <_IO_stdin_used+0x2fe>
    2baf:	48 89 45 f0          	mov    QWORD PTR [rbp-0x10],rax
    2bb3:	e9 f1 00 00 00       	jmp    2ca9 <DEBUG_PRINT_TOKENS+0x207>
    2bb8:	48 8d 05 45 97 00 00 	lea    rax,[rip+0x9745]        # c304 <_IO_stdin_used+0x304>
    2bbf:	48 89 45 f0          	mov    QWORD PTR [rbp-0x10],rax
    2bc3:	e9 e1 00 00 00       	jmp    2ca9 <DEBUG_PRINT_TOKENS+0x207>
    2bc8:	48 8d 05 3b 97 00 00 	lea    rax,[rip+0x973b]        # c30a <_IO_stdin_used+0x30a>
    2bcf:	48 89 45 f0          	mov    QWORD PTR [rbp-0x10],rax
    2bd3:	e9 d1 00 00 00       	jmp    2ca9 <DEBUG_PRINT_TOKENS+0x207>
    2bd8:	48 8d 05 31 97 00 00 	lea    rax,[rip+0x9731]        # c310 <_IO_stdin_used+0x310>
    2bdf:	48 89 45 f0          	mov    QWORD PTR [rbp-0x10],rax
    2be3:	e9 c1 00 00 00       	jmp    2ca9 <DEBUG_PRINT_TOKENS+0x207>
    2be8:	48 8d 05 27 97 00 00 	lea    rax,[rip+0x9727]        # c316 <_IO_stdin_used+0x316>
    2bef:	48 89 45 f0          	mov    QWORD PTR [rbp-0x10],rax
    2bf3:	e9 b1 00 00 00       	jmp    2ca9 <DEBUG_PRINT_TOKENS+0x207>
    2bf8:	48 8d 05 1c 97 00 00 	lea    rax,[rip+0x971c]        # c31b <_IO_stdin_used+0x31b>
    2bff:	48 89 45 f0          	mov    QWORD PTR [rbp-0x10],rax
    2c03:	e9 a1 00 00 00       	jmp    2ca9 <DEBUG_PRINT_TOKENS+0x207>
    2c08:	48 8d 05 14 97 00 00 	lea    rax,[rip+0x9714]        # c323 <_IO_stdin_used+0x323>
    2c0f:	48 89 45 f0          	mov    QWORD PTR [rbp-0x10],rax
    2c13:	e9 91 00 00 00       	jmp    2ca9 <DEBUG_PRINT_TOKENS+0x207>
    2c18:	48 8d 05 0a 97 00 00 	lea    rax,[rip+0x970a]        # c329 <_IO_stdin_used+0x329>
    2c1f:	48 89 45 f0          	mov    QWORD PTR [rbp-0x10],rax
    2c23:	e9 81 00 00 00       	jmp    2ca9 <DEBUG_PRINT_TOKENS+0x207>
    2c28:	48 8d 05 03 97 00 00 	lea    rax,[rip+0x9703]        # c332 <_IO_stdin_used+0x332>
    2c2f:	48 89 45 f0          	mov    QWORD PTR [rbp-0x10],rax
    2c33:	eb 74                	jmp    2ca9 <DEBUG_PRINT_TOKENS+0x207>
    2c35:	48 8d 05 fc 96 00 00 	lea    rax,[rip+0x96fc]        # c338 <_IO_stdin_used+0x338>
    2c3c:	48 89 45 f0          	mov    QWORD PTR [rbp-0x10],rax
    2c40:	eb 67                	jmp    2ca9 <DEBUG_PRINT_TOKENS+0x207>
    2c42:	48 8d 05 f8 96 00 00 	lea    rax,[rip+0x96f8]        # c341 <_IO_stdin_used+0x341>
    2c49:	48 89 45 f0          	mov    QWORD PTR [rbp-0x10],rax
    2c4d:	eb 5a                	jmp    2ca9 <DEBUG_PRINT_TOKENS+0x207>
    2c4f:	48 8d 05 f1 96 00 00 	lea    rax,[rip+0x96f1]        # c347 <_IO_stdin_used+0x347>
    2c56:	48 89 45 f0          	mov    QWORD PTR [rbp-0x10],rax
    2c5a:	eb 4d                	jmp    2ca9 <DEBUG_PRINT_TOKENS+0x207>
    2c5c:	48 8d 05 ed 96 00 00 	lea    rax,[rip+0x96ed]        # c350 <_IO_stdin_used+0x350>
    2c63:	48 89 45 f0          	mov    QWORD PTR [rbp-0x10],rax
    2c67:	eb 40                	jmp    2ca9 <DEBUG_PRINT_TOKENS+0x207>
    2c69:	48 8d 05 e7 96 00 00 	lea    rax,[rip+0x96e7]        # c357 <_IO_stdin_used+0x357>
    2c70:	48 89 45 f0          	mov    QWORD PTR [rbp-0x10],rax
    2c74:	eb 33                	jmp    2ca9 <DEBUG_PRINT_TOKENS+0x207>
    2c76:	48 8d 05 e2 96 00 00 	lea    rax,[rip+0x96e2]        # c35f <_IO_stdin_used+0x35f>
    2c7d:	48 89 45 f0          	mov    QWORD PTR [rbp-0x10],rax
    2c81:	eb 26                	jmp    2ca9 <DEBUG_PRINT_TOKENS+0x207>
    2c83:	48 8d 05 dc 96 00 00 	lea    rax,[rip+0x96dc]        # c366 <_IO_stdin_used+0x366>
    2c8a:	48 89 45 f0          	mov    QWORD PTR [rbp-0x10],rax
    2c8e:	eb 19                	jmp    2ca9 <DEBUG_PRINT_TOKENS+0x207>
    2c90:	48 8d 05 d6 96 00 00 	lea    rax,[rip+0x96d6]        # c36d <_IO_stdin_used+0x36d>
    2c97:	48 89 45 f0          	mov    QWORD PTR [rbp-0x10],rax
    2c9b:	eb 0c                	jmp    2ca9 <DEBUG_PRINT_TOKENS+0x207>
    2c9d:	48 8d 05 d0 96 00 00 	lea    rax,[rip+0x96d0]        # c374 <_IO_stdin_used+0x374>
    2ca4:	48 89 45 f0          	mov    QWORD PTR [rbp-0x10],rax
    2ca8:	90                   	nop
    2ca9:	8b 45 fc             	mov    eax,DWORD PTR [rbp-0x4]
    2cac:	48 63 d0             	movsxd rdx,eax
    2caf:	48 89 d0             	mov    rax,rdx
    2cb2:	48 01 c0             	add    rax,rax
    2cb5:	48 01 d0             	add    rax,rdx
    2cb8:	48 c1 e0 03          	shl    rax,0x3
    2cbc:	48 89 c2             	mov    rdx,rax
    2cbf:	48 8d 05 ea c9 00 00 	lea    rax,[rip+0xc9ea]        # f6b0 <toks+0x10>
    2cc6:	8b 0c 02             	mov    ecx,DWORD PTR [rdx+rax*1]
    2cc9:	8b 45 fc             	mov    eax,DWORD PTR [rbp-0x4]
    2ccc:	48 63 d0             	movsxd rdx,eax
    2ccf:	48 89 d0             	mov    rax,rdx
    2cd2:	48 01 c0             	add    rax,rax
    2cd5:	48 01 d0             	add    rax,rdx
    2cd8:	48 c1 e0 03          	shl    rax,0x3
    2cdc:	48 89 c2             	mov    rdx,rax
    2cdf:	48 8d 05 c2 c9 00 00 	lea    rax,[rip+0xc9c2]        # f6a8 <toks+0x8>
    2ce6:	48 8b 04 02          	mov    rax,QWORD PTR [rdx+rax*1]
    2cea:	48 85 c0             	test   rax,rax
    2ced:	74 23                	je     2d12 <DEBUG_PRINT_TOKENS+0x270>
    2cef:	8b 45 fc             	mov    eax,DWORD PTR [rbp-0x4]
    2cf2:	48 63 d0             	movsxd rdx,eax
    2cf5:	48 89 d0             	mov    rax,rdx
    2cf8:	48 01 c0             	add    rax,rax
    2cfb:	48 01 d0             	add    rax,rdx
    2cfe:	48 c1 e0 03          	shl    rax,0x3
    2d02:	48 89 c2             	mov    rdx,rax
    2d05:	48 8d 05 9c c9 00 00 	lea    rax,[rip+0xc99c]        # f6a8 <toks+0x8>
    2d0c:	48 8b 04 02          	mov    rax,QWORD PTR [rdx+rax*1]
    2d10:	eb 07                	jmp    2d19 <DEBUG_PRINT_TOKENS+0x277>
    2d12:	48 8d 05 62 96 00 00 	lea    rax,[rip+0x9662]        # c37b <_IO_stdin_used+0x37b>
    2d19:	48 8b 55 f0          	mov    rdx,QWORD PTR [rbp-0x10]
    2d1d:	8b 75 fc             	mov    esi,DWORD PTR [rbp-0x4]
    2d20:	41 89 c8             	mov    r8d,ecx
    2d23:	48 89 c1             	mov    rcx,rax
    2d26:	48 8d 05 5b 96 00 00 	lea    rax,[rip+0x965b]        # c388 <_IO_stdin_used+0x388>
    2d2d:	48 89 c7             	mov    rdi,rax
    2d30:	b8 00 00 00 00       	mov    eax,0x0
    2d35:	e8 66 f3 ff ff       	call   20a0 <printf@plt>
    2d3a:	83 45 fc 01          	add    DWORD PTR [rbp-0x4],0x1
    2d3e:	8b 05 5c 29 01 00    	mov    eax,DWORD PTR [rip+0x1295c]        # 156a0 <toks_count>
    2d44:	39 45 fc             	cmp    DWORD PTR [rbp-0x4],eax
    2d47:	0f 8c 85 fd ff ff    	jl     2ad2 <DEBUG_PRINT_TOKENS+0x30>
    2d4d:	48 8d 05 5e 96 00 00 	lea    rax,[rip+0x965e]        # c3b2 <_IO_stdin_used+0x3b2>
    2d54:	48 89 c7             	mov    rdi,rax
    2d57:	e8 24 f3 ff ff       	call   2080 <puts@plt>
    2d5c:	90                   	nop
    2d5d:	c9                   	leave
    2d5e:	c3                   	ret

0000000000002d5f <is_reg>:
is_reg():
    2d5f:	55                   	push   rbp
    2d60:	48 89 e5             	mov    rbp,rsp
    2d63:	48 83 ec 30          	sub    rsp,0x30
    2d67:	48 89 7d d8          	mov    QWORD PTR [rbp-0x28],rdi
    2d6b:	eb 05                	jmp    2d72 <is_reg+0x13>
    2d6d:	48 83 45 d8 01       	add    QWORD PTR [rbp-0x28],0x1
    2d72:	e8 19 f4 ff ff       	call   2190 <__ctype_b_loc@plt>
    2d77:	48 8b 10             	mov    rdx,QWORD PTR [rax]
    2d7a:	48 8b 45 d8          	mov    rax,QWORD PTR [rbp-0x28]
    2d7e:	0f b6 00             	movzx  eax,BYTE PTR [rax]
    2d81:	48 0f be c0          	movsx  rax,al
    2d85:	48 01 c0             	add    rax,rax
    2d88:	48 01 d0             	add    rax,rdx
    2d8b:	0f b7 00             	movzx  eax,WORD PTR [rax]
    2d8e:	0f b7 c0             	movzx  eax,ax
    2d91:	25 00 20 00 00       	and    eax,0x2000
    2d96:	85 c0                	test   eax,eax
    2d98:	75 d3                	jne    2d6d <is_reg+0xe>
    2d9a:	c7 45 fc 00 00 00 00 	mov    DWORD PTR [rbp-0x4],0x0
    2da1:	eb 3b                	jmp    2dde <is_reg+0x7f>
    2da3:	8b 45 fc             	mov    eax,DWORD PTR [rbp-0x4]
    2da6:	48 98                	cdqe
    2da8:	48 8d 14 c5 00 00 00 	lea    rdx,[rax*8+0x0]
    2daf:	00 
    2db0:	48 8d 05 89 c5 00 00 	lea    rax,[rip+0xc589]        # f340 <regs8>
    2db7:	48 01 d0             	add    rax,rdx
    2dba:	48 8b 10             	mov    rdx,QWORD PTR [rax]
    2dbd:	48 8b 45 d8          	mov    rax,QWORD PTR [rbp-0x28]
    2dc1:	48 89 d6             	mov    rsi,rdx
    2dc4:	48 89 c7             	mov    rdi,rax
    2dc7:	e8 84 f2 ff ff       	call   2050 <strcasecmp@plt>
    2dcc:	85 c0                	test   eax,eax
    2dce:	75 0a                	jne    2dda <is_reg+0x7b>
    2dd0:	b8 01 00 00 00       	mov    eax,0x1
    2dd5:	e9 a7 01 00 00       	jmp    2f81 <is_reg+0x222>
    2dda:	83 45 fc 01          	add    DWORD PTR [rbp-0x4],0x1
    2dde:	8b 45 fc             	mov    eax,DWORD PTR [rbp-0x4]
    2de1:	48 98                	cdqe
    2de3:	48 8d 14 c5 00 00 00 	lea    rdx,[rax*8+0x0]
    2dea:	00 
    2deb:	48 8d 05 4e c5 00 00 	lea    rax,[rip+0xc54e]        # f340 <regs8>
    2df2:	48 8b 04 02          	mov    rax,QWORD PTR [rdx+rax*1]
    2df6:	48 85 c0             	test   rax,rax
    2df9:	75 a8                	jne    2da3 <is_reg+0x44>
    2dfb:	c7 45 f8 00 00 00 00 	mov    DWORD PTR [rbp-0x8],0x0
    2e02:	eb 3b                	jmp    2e3f <is_reg+0xe0>
    2e04:	8b 45 f8             	mov    eax,DWORD PTR [rbp-0x8]
    2e07:	48 98                	cdqe
    2e09:	48 8d 14 c5 00 00 00 	lea    rdx,[rax*8+0x0]
    2e10:	00 
    2e11:	48 8d 05 e8 c5 00 00 	lea    rax,[rip+0xc5e8]        # f400 <regs16>
    2e18:	48 01 d0             	add    rax,rdx
    2e1b:	48 8b 10             	mov    rdx,QWORD PTR [rax]
    2e1e:	48 8b 45 d8          	mov    rax,QWORD PTR [rbp-0x28]
    2e22:	48 89 d6             	mov    rsi,rdx
    2e25:	48 89 c7             	mov    rdi,rax
    2e28:	e8 23 f2 ff ff       	call   2050 <strcasecmp@plt>
    2e2d:	85 c0                	test   eax,eax
    2e2f:	75 0a                	jne    2e3b <is_reg+0xdc>
    2e31:	b8 02 00 00 00       	mov    eax,0x2
    2e36:	e9 46 01 00 00       	jmp    2f81 <is_reg+0x222>
    2e3b:	83 45 f8 01          	add    DWORD PTR [rbp-0x8],0x1
    2e3f:	8b 45 f8             	mov    eax,DWORD PTR [rbp-0x8]
    2e42:	48 98                	cdqe
    2e44:	48 8d 14 c5 00 00 00 	lea    rdx,[rax*8+0x0]
    2e4b:	00 
    2e4c:	48 8d 05 ad c5 00 00 	lea    rax,[rip+0xc5ad]        # f400 <regs16>
    2e53:	48 8b 04 02          	mov    rax,QWORD PTR [rdx+rax*1]
    2e57:	48 85 c0             	test   rax,rax
    2e5a:	75 a8                	jne    2e04 <is_reg+0xa5>
    2e5c:	c7 45 f4 00 00 00 00 	mov    DWORD PTR [rbp-0xc],0x0
    2e63:	eb 3b                	jmp    2ea0 <is_reg+0x141>
    2e65:	8b 45 f4             	mov    eax,DWORD PTR [rbp-0xc]
    2e68:	48 98                	cdqe
    2e6a:	48 8d 14 c5 00 00 00 	lea    rdx,[rax*8+0x0]
    2e71:	00 
    2e72:	48 8d 05 47 c6 00 00 	lea    rax,[rip+0xc647]        # f4c0 <regs32>
    2e79:	48 01 d0             	add    rax,rdx
    2e7c:	48 8b 10             	mov    rdx,QWORD PTR [rax]
    2e7f:	48 8b 45 d8          	mov    rax,QWORD PTR [rbp-0x28]
    2e83:	48 89 d6             	mov    rsi,rdx
    2e86:	48 89 c7             	mov    rdi,rax
    2e89:	e8 c2 f1 ff ff       	call   2050 <strcasecmp@plt>
    2e8e:	85 c0                	test   eax,eax
    2e90:	75 0a                	jne    2e9c <is_reg+0x13d>
    2e92:	b8 03 00 00 00       	mov    eax,0x3
    2e97:	e9 e5 00 00 00       	jmp    2f81 <is_reg+0x222>
    2e9c:	83 45 f4 01          	add    DWORD PTR [rbp-0xc],0x1
    2ea0:	8b 45 f4             	mov    eax,DWORD PTR [rbp-0xc]
    2ea3:	48 98                	cdqe
    2ea5:	48 8d 14 c5 00 00 00 	lea    rdx,[rax*8+0x0]
    2eac:	00 
    2ead:	48 8d 05 0c c6 00 00 	lea    rax,[rip+0xc60c]        # f4c0 <regs32>
    2eb4:	48 8b 04 02          	mov    rax,QWORD PTR [rdx+rax*1]
    2eb8:	48 85 c0             	test   rax,rax
    2ebb:	75 a8                	jne    2e65 <is_reg+0x106>
    2ebd:	c7 45 f0 00 00 00 00 	mov    DWORD PTR [rbp-0x10],0x0
    2ec4:	eb 3b                	jmp    2f01 <is_reg+0x1a2>
    2ec6:	8b 45 f0             	mov    eax,DWORD PTR [rbp-0x10]
    2ec9:	48 98                	cdqe
    2ecb:	48 8d 14 c5 00 00 00 	lea    rdx,[rax*8+0x0]
    2ed2:	00 
    2ed3:	48 8d 05 a6 c6 00 00 	lea    rax,[rip+0xc6a6]        # f580 <regs64>
    2eda:	48 01 d0             	add    rax,rdx
    2edd:	48 8b 10             	mov    rdx,QWORD PTR [rax]
    2ee0:	48 8b 45 d8          	mov    rax,QWORD PTR [rbp-0x28]
    2ee4:	48 89 d6             	mov    rsi,rdx
    2ee7:	48 89 c7             	mov    rdi,rax
    2eea:	e8 61 f1 ff ff       	call   2050 <strcasecmp@plt>
    2eef:	85 c0                	test   eax,eax
    2ef1:	75 0a                	jne    2efd <is_reg+0x19e>
    2ef3:	b8 04 00 00 00       	mov    eax,0x4
    2ef8:	e9 84 00 00 00       	jmp    2f81 <is_reg+0x222>
    2efd:	83 45 f0 01          	add    DWORD PTR [rbp-0x10],0x1
    2f01:	8b 45 f0             	mov    eax,DWORD PTR [rbp-0x10]
    2f04:	48 98                	cdqe
    2f06:	48 8d 14 c5 00 00 00 	lea    rdx,[rax*8+0x0]
    2f0d:	00 
    2f0e:	48 8d 05 6b c6 00 00 	lea    rax,[rip+0xc66b]        # f580 <regs64>
    2f15:	48 8b 04 02          	mov    rax,QWORD PTR [rdx+rax*1]
    2f19:	48 85 c0             	test   rax,rax
    2f1c:	75 a8                	jne    2ec6 <is_reg+0x167>
    2f1e:	c7 45 ec 00 00 00 00 	mov    DWORD PTR [rbp-0x14],0x0
    2f25:	eb 38                	jmp    2f5f <is_reg+0x200>
    2f27:	8b 45 ec             	mov    eax,DWORD PTR [rbp-0x14]
    2f2a:	48 98                	cdqe
    2f2c:	48 8d 14 c5 00 00 00 	lea    rdx,[rax*8+0x0]
    2f33:	00 
    2f34:	48 8d 05 a5 c6 00 00 	lea    rax,[rip+0xc6a5]        # f5e0 <regs64GP>
    2f3b:	48 01 d0             	add    rax,rdx
    2f3e:	48 8b 10             	mov    rdx,QWORD PTR [rax]
    2f41:	48 8b 45 d8          	mov    rax,QWORD PTR [rbp-0x28]
    2f45:	48 89 d6             	mov    rsi,rdx
    2f48:	48 89 c7             	mov    rdi,rax
    2f4b:	e8 00 f1 ff ff       	call   2050 <strcasecmp@plt>
    2f50:	85 c0                	test   eax,eax
    2f52:	75 07                	jne    2f5b <is_reg+0x1fc>
    2f54:	b8 05 00 00 00       	mov    eax,0x5
    2f59:	eb 26                	jmp    2f81 <is_reg+0x222>
    2f5b:	83 45 ec 01          	add    DWORD PTR [rbp-0x14],0x1
    2f5f:	8b 45 ec             	mov    eax,DWORD PTR [rbp-0x14]
    2f62:	48 98                	cdqe
    2f64:	48 8d 14 c5 00 00 00 	lea    rdx,[rax*8+0x0]
    2f6b:	00 
    2f6c:	48 8d 05 6d c6 00 00 	lea    rax,[rip+0xc66d]        # f5e0 <regs64GP>
    2f73:	48 8b 04 02          	mov    rax,QWORD PTR [rdx+rax*1]
    2f77:	48 85 c0             	test   rax,rax
    2f7a:	75 ab                	jne    2f27 <is_reg+0x1c8>
    2f7c:	b8 00 00 00 00       	mov    eax,0x0
    2f81:	c9                   	leave
    2f82:	c3                   	ret

0000000000002f83 <is_literal>:
is_literal():
    2f83:	55                   	push   rbp
    2f84:	48 89 e5             	mov    rbp,rsp
    2f87:	48 89 7d f8          	mov    QWORD PTR [rbp-0x8],rdi
    2f8b:	48 8b 45 f8          	mov    rax,QWORD PTR [rbp-0x8]
    2f8f:	0f b6 00             	movzx  eax,BYTE PTR [rax]
    2f92:	3c 2f                	cmp    al,0x2f
    2f94:	7e 0b                	jle    2fa1 <is_literal+0x1e>
    2f96:	48 8b 45 f8          	mov    rax,QWORD PTR [rbp-0x8]
    2f9a:	0f b6 00             	movzx  eax,BYTE PTR [rax]
    2f9d:	3c 39                	cmp    al,0x39
    2f9f:	7e 0b                	jle    2fac <is_literal+0x29>
    2fa1:	48 8b 45 f8          	mov    rax,QWORD PTR [rbp-0x8]
    2fa5:	0f b6 00             	movzx  eax,BYTE PTR [rax]
    2fa8:	3c 2d                	cmp    al,0x2d
    2faa:	75 07                	jne    2fb3 <is_literal+0x30>
    2fac:	b8 01 00 00 00       	mov    eax,0x1
    2fb1:	eb 05                	jmp    2fb8 <is_literal+0x35>
    2fb3:	b8 00 00 00 00       	mov    eax,0x0
    2fb8:	5d                   	pop    rbp
    2fb9:	c3                   	ret

0000000000002fba <read_string>:
read_string():
    2fba:	55                   	push   rbp
    2fbb:	48 89 e5             	mov    rbp,rsp
    2fbe:	48 83 ec 20          	sub    rsp,0x20
    2fc2:	48 89 7d f8          	mov    QWORD PTR [rbp-0x8],rdi
    2fc6:	48 89 75 f0          	mov    QWORD PTR [rbp-0x10],rsi
    2fca:	89 55 ec             	mov    DWORD PTR [rbp-0x14],edx
    2fcd:	e9 6c 01 00 00       	jmp    313e <read_string+0x184>
    2fd2:	48 8b 45 f8          	mov    rax,QWORD PTR [rbp-0x8]
    2fd6:	0f b6 00             	movzx  eax,BYTE PTR [rax]
    2fd9:	3c 5c                	cmp    al,0x5c
    2fdb:	0f 85 40 01 00 00    	jne    3121 <read_string+0x167>
    2fe1:	48 8b 45 f8          	mov    rax,QWORD PTR [rbp-0x8]
    2fe5:	48 83 c0 01          	add    rax,0x1
    2fe9:	0f b6 00             	movzx  eax,BYTE PTR [rax]
    2fec:	0f be c0             	movsx  eax,al
    2fef:	83 f8 74             	cmp    eax,0x74
    2ff2:	0f 84 a7 00 00 00    	je     309f <read_string+0xe5>
    2ff8:	83 f8 74             	cmp    eax,0x74
    2ffb:	0f 8f f5 00 00 00    	jg     30f6 <read_string+0x13c>
    3001:	83 f8 6e             	cmp    eax,0x6e
    3004:	74 4e                	je     3054 <read_string+0x9a>
    3006:	83 f8 6e             	cmp    eax,0x6e
    3009:	0f 8f e7 00 00 00    	jg     30f6 <read_string+0x13c>
    300f:	83 f8 62             	cmp    eax,0x62
    3012:	0f 84 a0 00 00 00    	je     30b8 <read_string+0xfe>
    3018:	83 f8 62             	cmp    eax,0x62
    301b:	0f 8f d5 00 00 00    	jg     30f6 <read_string+0x13c>
    3021:	83 f8 5c             	cmp    eax,0x5c
    3024:	0f 84 a4 00 00 00    	je     30ce <read_string+0x114>
    302a:	83 f8 5c             	cmp    eax,0x5c
    302d:	0f 8f c3 00 00 00    	jg     30f6 <read_string+0x13c>
    3033:	83 f8 30             	cmp    eax,0x30
    3036:	0f 84 a8 00 00 00    	je     30e4 <read_string+0x12a>
    303c:	83 f8 30             	cmp    eax,0x30
    303f:	0f 8f b1 00 00 00    	jg     30f6 <read_string+0x13c>
    3045:	83 f8 22             	cmp    eax,0x22
    3048:	74 23                	je     306d <read_string+0xb3>
    304a:	83 f8 2f             	cmp    eax,0x2f
    304d:	74 37                	je     3086 <read_string+0xcc>
    304f:	e9 a2 00 00 00       	jmp    30f6 <read_string+0x13c>
    3054:	48 8b 45 f0          	mov    rax,QWORD PTR [rbp-0x10]
    3058:	48 8d 50 01          	lea    rdx,[rax+0x1]
    305c:	48 89 55 f0          	mov    QWORD PTR [rbp-0x10],rdx
    3060:	c6 00 0a             	mov    BYTE PTR [rax],0xa
    3063:	48 83 45 f8 02       	add    QWORD PTR [rbp-0x8],0x2
    3068:	e9 d1 00 00 00       	jmp    313e <read_string+0x184>
    306d:	48 8b 45 f0          	mov    rax,QWORD PTR [rbp-0x10]
    3071:	48 8d 50 01          	lea    rdx,[rax+0x1]
    3075:	48 89 55 f0          	mov    QWORD PTR [rbp-0x10],rdx
    3079:	c6 00 22             	mov    BYTE PTR [rax],0x22
    307c:	48 83 45 f8 02       	add    QWORD PTR [rbp-0x8],0x2
    3081:	e9 b8 00 00 00       	jmp    313e <read_string+0x184>
    3086:	48 8b 45 f0          	mov    rax,QWORD PTR [rbp-0x10]
    308a:	48 8d 50 01          	lea    rdx,[rax+0x1]
    308e:	48 89 55 f0          	mov    QWORD PTR [rbp-0x10],rdx
    3092:	c6 00 2f             	mov    BYTE PTR [rax],0x2f
    3095:	48 83 45 f8 02       	add    QWORD PTR [rbp-0x8],0x2
    309a:	e9 9f 00 00 00       	jmp    313e <read_string+0x184>
    309f:	48 8b 45 f0          	mov    rax,QWORD PTR [rbp-0x10]
    30a3:	48 8d 50 01          	lea    rdx,[rax+0x1]
    30a7:	48 89 55 f0          	mov    QWORD PTR [rbp-0x10],rdx
    30ab:	c6 00 09             	mov    BYTE PTR [rax],0x9
    30ae:	48 83 45 f8 02       	add    QWORD PTR [rbp-0x8],0x2
    30b3:	e9 86 00 00 00       	jmp    313e <read_string+0x184>
    30b8:	48 8b 45 f0          	mov    rax,QWORD PTR [rbp-0x10]
    30bc:	48 8d 50 01          	lea    rdx,[rax+0x1]
    30c0:	48 89 55 f0          	mov    QWORD PTR [rbp-0x10],rdx
    30c4:	c6 00 08             	mov    BYTE PTR [rax],0x8
    30c7:	48 83 45 f8 02       	add    QWORD PTR [rbp-0x8],0x2
    30cc:	eb 70                	jmp    313e <read_string+0x184>
    30ce:	48 8b 45 f0          	mov    rax,QWORD PTR [rbp-0x10]
    30d2:	48 8d 50 01          	lea    rdx,[rax+0x1]
    30d6:	48 89 55 f0          	mov    QWORD PTR [rbp-0x10],rdx
    30da:	c6 00 5c             	mov    BYTE PTR [rax],0x5c
    30dd:	48 83 45 f8 02       	add    QWORD PTR [rbp-0x8],0x2
    30e2:	eb 5a                	jmp    313e <read_string+0x184>
    30e4:	48 8b 45 f0          	mov    rax,QWORD PTR [rbp-0x10]
    30e8:	c6 00 00             	mov    BYTE PTR [rax],0x0
    30eb:	48 83 45 f8 02       	add    QWORD PTR [rbp-0x8],0x2
    30f0:	48 8b 45 f8          	mov    rax,QWORD PTR [rbp-0x8]
    30f4:	eb 66                	jmp    315c <read_string+0x1a2>
    30f6:	48 8b 05 63 c5 00 00 	mov    rax,QWORD PTR [rip+0xc563]        # f660 <stderr@GLIBC_2.2.5>
    30fd:	8b 55 ec             	mov    edx,DWORD PTR [rbp-0x14]
    3100:	48 8d 0d 39 93 00 00 	lea    rcx,[rip+0x9339]        # c440 <_IO_stdin_used+0x440>
    3107:	48 89 ce             	mov    rsi,rcx
    310a:	48 89 c7             	mov    rdi,rax
    310d:	b8 00 00 00 00       	mov    eax,0x0
    3112:	e8 e9 ef ff ff       	call   2100 <fprintf@plt>
    3117:	bf 01 00 00 00       	mov    edi,0x1
    311c:	e8 3f f0 ff ff       	call   2160 <exit@plt>
    3121:	48 8b 55 f8          	mov    rdx,QWORD PTR [rbp-0x8]
    3125:	48 8d 42 01          	lea    rax,[rdx+0x1]
    3129:	48 89 45 f8          	mov    QWORD PTR [rbp-0x8],rax
    312d:	48 8b 45 f0          	mov    rax,QWORD PTR [rbp-0x10]
    3131:	48 8d 48 01          	lea    rcx,[rax+0x1]
    3135:	48 89 4d f0          	mov    QWORD PTR [rbp-0x10],rcx
    3139:	0f b6 12             	movzx  edx,BYTE PTR [rdx]
    313c:	88 10                	mov    BYTE PTR [rax],dl
    313e:	48 8b 45 f8          	mov    rax,QWORD PTR [rbp-0x8]
    3142:	0f b6 00             	movzx  eax,BYTE PTR [rax]
    3145:	84 c0                	test   al,al
    3147:	74 0f                	je     3158 <read_string+0x19e>
    3149:	48 8b 45 f8          	mov    rax,QWORD PTR [rbp-0x8]
    314d:	0f b6 00             	movzx  eax,BYTE PTR [rax]
    3150:	3c 22                	cmp    al,0x22
    3152:	0f 85 7a fe ff ff    	jne    2fd2 <read_string+0x18>
    3158:	48 8b 45 f8          	mov    rax,QWORD PTR [rbp-0x8]
    315c:	c9                   	leave
    315d:	c3                   	ret

000000000000315e <As16>:
As16():
    315e:	55                   	push   rbp
    315f:	48 89 e5             	mov    rbp,rsp
    3162:	89 f8                	mov    eax,edi
    3164:	48 89 75 f0          	mov    QWORD PTR [rbp-0x10],rsi
    3168:	66 89 45 fc          	mov    WORD PTR [rbp-0x4],ax
    316c:	0f b7 45 fc          	movzx  eax,WORD PTR [rbp-0x4]
    3170:	89 c2                	mov    edx,eax
    3172:	48 8b 45 f0          	mov    rax,QWORD PTR [rbp-0x10]
    3176:	88 10                	mov    BYTE PTR [rax],dl
    3178:	0f b7 45 fc          	movzx  eax,WORD PTR [rbp-0x4]
    317c:	66 c1 e8 08          	shr    ax,0x8
    3180:	89 c2                	mov    edx,eax
    3182:	48 8b 45 f0          	mov    rax,QWORD PTR [rbp-0x10]
    3186:	48 83 c0 01          	add    rax,0x1
    318a:	88 10                	mov    BYTE PTR [rax],dl
    318c:	90                   	nop
    318d:	5d                   	pop    rbp
    318e:	c3                   	ret

000000000000318f <As32>:
As32():
    318f:	55                   	push   rbp
    3190:	48 89 e5             	mov    rbp,rsp
    3193:	89 7d fc             	mov    DWORD PTR [rbp-0x4],edi
    3196:	48 89 75 f0          	mov    QWORD PTR [rbp-0x10],rsi
    319a:	8b 45 fc             	mov    eax,DWORD PTR [rbp-0x4]
    319d:	89 c2                	mov    edx,eax
    319f:	48 8b 45 f0          	mov    rax,QWORD PTR [rbp-0x10]
    31a3:	88 10                	mov    BYTE PTR [rax],dl
    31a5:	8b 45 fc             	mov    eax,DWORD PTR [rbp-0x4]
    31a8:	c1 e8 08             	shr    eax,0x8
    31ab:	89 c2                	mov    edx,eax
    31ad:	48 8b 45 f0          	mov    rax,QWORD PTR [rbp-0x10]
    31b1:	48 83 c0 01          	add    rax,0x1
    31b5:	88 10                	mov    BYTE PTR [rax],dl
    31b7:	8b 45 fc             	mov    eax,DWORD PTR [rbp-0x4]
    31ba:	c1 e8 10             	shr    eax,0x10
    31bd:	89 c2                	mov    edx,eax
    31bf:	48 8b 45 f0          	mov    rax,QWORD PTR [rbp-0x10]
    31c3:	48 83 c0 02          	add    rax,0x2
    31c7:	88 10                	mov    BYTE PTR [rax],dl
    31c9:	8b 45 fc             	mov    eax,DWORD PTR [rbp-0x4]
    31cc:	c1 e8 18             	shr    eax,0x18
    31cf:	89 c2                	mov    edx,eax
    31d1:	48 8b 45 f0          	mov    rax,QWORD PTR [rbp-0x10]
    31d5:	48 83 c0 03          	add    rax,0x3
    31d9:	88 10                	mov    BYTE PTR [rax],dl
    31db:	90                   	nop
    31dc:	5d                   	pop    rbp
    31dd:	c3                   	ret

00000000000031de <As64>:
As64():
    31de:	55                   	push   rbp
    31df:	48 89 e5             	mov    rbp,rsp
    31e2:	48 89 7d f8          	mov    QWORD PTR [rbp-0x8],rdi
    31e6:	48 89 75 f0          	mov    QWORD PTR [rbp-0x10],rsi
    31ea:	48 8b 45 f8          	mov    rax,QWORD PTR [rbp-0x8]
    31ee:	89 c2                	mov    edx,eax
    31f0:	48 8b 45 f0          	mov    rax,QWORD PTR [rbp-0x10]
    31f4:	88 10                	mov    BYTE PTR [rax],dl
    31f6:	48 8b 45 f8          	mov    rax,QWORD PTR [rbp-0x8]
    31fa:	48 c1 e8 08          	shr    rax,0x8
    31fe:	48 89 c2             	mov    rdx,rax
    3201:	48 8b 45 f0          	mov    rax,QWORD PTR [rbp-0x10]
    3205:	48 83 c0 01          	add    rax,0x1
    3209:	88 10                	mov    BYTE PTR [rax],dl
    320b:	48 8b 45 f8          	mov    rax,QWORD PTR [rbp-0x8]
    320f:	48 c1 e8 10          	shr    rax,0x10
    3213:	48 89 c2             	mov    rdx,rax
    3216:	48 8b 45 f0          	mov    rax,QWORD PTR [rbp-0x10]
    321a:	48 83 c0 02          	add    rax,0x2
    321e:	88 10                	mov    BYTE PTR [rax],dl
    3220:	48 8b 45 f8          	mov    rax,QWORD PTR [rbp-0x8]
    3224:	48 c1 e8 18          	shr    rax,0x18
    3228:	48 89 c2             	mov    rdx,rax
    322b:	48 8b 45 f0          	mov    rax,QWORD PTR [rbp-0x10]
    322f:	48 83 c0 03          	add    rax,0x3
    3233:	88 10                	mov    BYTE PTR [rax],dl
    3235:	48 8b 45 f8          	mov    rax,QWORD PTR [rbp-0x8]
    3239:	48 c1 e8 20          	shr    rax,0x20
    323d:	48 89 c2             	mov    rdx,rax
    3240:	48 8b 45 f0          	mov    rax,QWORD PTR [rbp-0x10]
    3244:	48 83 c0 04          	add    rax,0x4
    3248:	88 10                	mov    BYTE PTR [rax],dl
    324a:	48 8b 45 f8          	mov    rax,QWORD PTR [rbp-0x8]
    324e:	48 c1 e8 28          	shr    rax,0x28
    3252:	48 89 c2             	mov    rdx,rax
    3255:	48 8b 45 f0          	mov    rax,QWORD PTR [rbp-0x10]
    3259:	48 83 c0 05          	add    rax,0x5
    325d:	88 10                	mov    BYTE PTR [rax],dl
    325f:	48 8b 45 f8          	mov    rax,QWORD PTR [rbp-0x8]
    3263:	48 c1 e8 30          	shr    rax,0x30
    3267:	48 89 c2             	mov    rdx,rax
    326a:	48 8b 45 f0          	mov    rax,QWORD PTR [rbp-0x10]
    326e:	48 83 c0 06          	add    rax,0x6
    3272:	88 10                	mov    BYTE PTR [rax],dl
    3274:	48 8b 45 f8          	mov    rax,QWORD PTR [rbp-0x8]
    3278:	48 c1 e8 38          	shr    rax,0x38
    327c:	48 89 c2             	mov    rdx,rax
    327f:	48 8b 45 f0          	mov    rax,QWORD PTR [rbp-0x10]
    3283:	48 83 c0 07          	add    rax,0x7
    3287:	88 10                	mov    BYTE PTR [rax],dl
    3289:	90                   	nop
    328a:	5d                   	pop    rbp
    328b:	c3                   	ret

000000000000328c <LEXER>:
LEXER():
    328c:	55                   	push   rbp
    328d:	48 89 e5             	mov    rbp,rsp
    3290:	48 81 ec 90 05 00 00 	sub    rsp,0x590
    3297:	48 89 bd 78 fa ff ff 	mov    QWORD PTR [rbp-0x588],rdi
    329e:	48 83 bd 78 fa ff ff 	cmp    QWORD PTR [rbp-0x588],0x0
    32a5:	00 
    32a6:	75 2d                	jne    32d5 <LEXER+0x49>
    32a8:	48 8b 05 b1 c3 00 00 	mov    rax,QWORD PTR [rip+0xc3b1]        # f660 <stderr@GLIBC_2.2.5>
    32af:	48 89 c1             	mov    rcx,rax
    32b2:	ba 2d 00 00 00       	mov    edx,0x2d
    32b7:	be 01 00 00 00       	mov    esi,0x1
    32bc:	48 8d 05 ad 91 00 00 	lea    rax,[rip+0x91ad]        # c470 <_IO_stdin_used+0x470>
    32c3:	48 89 c7             	mov    rdi,rax
    32c6:	e8 a5 ee ff ff       	call   2170 <fwrite@plt>
    32cb:	bf 01 00 00 00       	mov    edi,0x1
    32d0:	e8 8b ee ff ff       	call   2160 <exit@plt>
    32d5:	48 8d 95 b0 fd ff ff 	lea    rdx,[rbp-0x250]
    32dc:	b8 00 00 00 00       	mov    eax,0x0
    32e1:	b9 42 00 00 00       	mov    ecx,0x42
    32e6:	48 89 d7             	mov    rdi,rdx
    32e9:	f3 48 ab             	rep stos QWORD PTR es:[rdi],rax
    32ec:	c7 45 fc 00 00 00 00 	mov    DWORD PTR [rbp-0x4],0x0
    32f3:	e9 bd 17 00 00       	jmp    4ab5 <LEXER+0x1829>
    32f8:	48 8d 85 b0 fd ff ff 	lea    rax,[rbp-0x250]
    32ff:	48 83 c0 08          	add    rax,0x8
    3303:	48 89 45 f0          	mov    QWORD PTR [rbp-0x10],rax
    3307:	8b 05 7b c3 00 00    	mov    eax,DWORD PTR [rip+0xc37b]        # f688 <line>
    330d:	83 c0 01             	add    eax,0x1
    3310:	89 05 72 c3 00 00    	mov    DWORD PTR [rip+0xc372],eax        # f688 <line>
    3316:	8b 05 6c c3 00 00    	mov    eax,DWORD PTR [rip+0xc36c]        # f688 <line>
    331c:	48 8d 95 b0 fd ff ff 	lea    rdx,[rbp-0x250]
    3323:	48 83 c2 08          	add    rdx,0x8
    3327:	89 c6                	mov    esi,eax
    3329:	48 8d 05 6e 91 00 00 	lea    rax,[rip+0x916e]        # c49e <_IO_stdin_used+0x49e>
    3330:	48 89 c7             	mov    rdi,rax
    3333:	b8 00 00 00 00       	mov    eax,0x0
    3338:	e8 63 ed ff ff       	call   20a0 <printf@plt>
    333d:	48 8b 05 fc c2 00 00 	mov    rax,QWORD PTR [rip+0xc2fc]        # f640 <stdout@GLIBC_2.2.5>
    3344:	48 89 c7             	mov    rdi,rax
    3347:	e8 e4 ed ff ff       	call   2130 <fflush@plt>
    334c:	e9 39 17 00 00       	jmp    4a8a <LEXER+0x17fe>
    3351:	48 8b 45 f0          	mov    rax,QWORD PTR [rbp-0x10]
    3355:	0f b6 00             	movzx  eax,BYTE PTR [rax]
    3358:	0f be d0             	movsx  edx,al
    335b:	48 8b 45 f0          	mov    rax,QWORD PTR [rbp-0x10]
    335f:	0f b6 00             	movzx  eax,BYTE PTR [rax]
    3362:	0f be c0             	movsx  eax,al
    3365:	89 c6                	mov    esi,eax
    3367:	48 8d 05 47 91 00 00 	lea    rax,[rip+0x9147]        # c4b5 <_IO_stdin_used+0x4b5>
    336e:	48 89 c7             	mov    rdi,rax
    3371:	b8 00 00 00 00       	mov    eax,0x0
    3376:	e8 25 ed ff ff       	call   20a0 <printf@plt>
    337b:	48 8b 05 be c2 00 00 	mov    rax,QWORD PTR [rip+0xc2be]        # f640 <stdout@GLIBC_2.2.5>
    3382:	48 89 c7             	mov    rdi,rax
    3385:	e8 a6 ed ff ff       	call   2130 <fflush@plt>
    338a:	eb 05                	jmp    3391 <LEXER+0x105>
    338c:	48 83 45 f0 01       	add    QWORD PTR [rbp-0x10],0x1
    3391:	e8 fa ed ff ff       	call   2190 <__ctype_b_loc@plt>
    3396:	48 8b 10             	mov    rdx,QWORD PTR [rax]
    3399:	48 8b 45 f0          	mov    rax,QWORD PTR [rbp-0x10]
    339d:	0f b6 00             	movzx  eax,BYTE PTR [rax]
    33a0:	48 0f be c0          	movsx  rax,al
    33a4:	48 01 c0             	add    rax,rax
    33a7:	48 01 d0             	add    rax,rdx
    33aa:	0f b7 00             	movzx  eax,WORD PTR [rax]
    33ad:	0f b7 c0             	movzx  eax,ax
    33b0:	25 00 20 00 00       	and    eax,0x2000
    33b5:	85 c0                	test   eax,eax
    33b7:	75 d3                	jne    338c <LEXER+0x100>
    33b9:	48 8b 45 f0          	mov    rax,QWORD PTR [rbp-0x10]
    33bd:	0f b6 00             	movzx  eax,BYTE PTR [rax]
    33c0:	84 c0                	test   al,al
    33c2:	0f 84 d1 16 00 00    	je     4a99 <LEXER+0x180d>
    33c8:	48 8b 45 f0          	mov    rax,QWORD PTR [rbp-0x10]
    33cc:	0f b6 00             	movzx  eax,BYTE PTR [rax]
    33cf:	3c 0a                	cmp    al,0xa
    33d1:	0f 84 c2 16 00 00    	je     4a99 <LEXER+0x180d>
    33d7:	48 8b 45 f0          	mov    rax,QWORD PTR [rbp-0x10]
    33db:	0f b6 00             	movzx  eax,BYTE PTR [rax]
    33de:	3c 2f                	cmp    al,0x2f
    33e0:	75 13                	jne    33f5 <LEXER+0x169>
    33e2:	48 8b 45 f0          	mov    rax,QWORD PTR [rbp-0x10]
    33e6:	48 83 c0 01          	add    rax,0x1
    33ea:	0f b6 00             	movzx  eax,BYTE PTR [rax]
    33ed:	3c 2f                	cmp    al,0x2f
    33ef:	0f 84 a4 16 00 00    	je     4a99 <LEXER+0x180d>
    33f5:	48 8b 45 f0          	mov    rax,QWORD PTR [rbp-0x10]
    33f9:	0f b6 00             	movzx  eax,BYTE PTR [rax]
    33fc:	3c 3b                	cmp    al,0x3b
    33fe:	0f 84 95 16 00 00    	je     4a99 <LEXER+0x180d>
    3404:	83 7d fc 00          	cmp    DWORD PTR [rbp-0x4],0x0
    3408:	75 2b                	jne    3435 <LEXER+0x1a9>
    340a:	48 8b 45 f0          	mov    rax,QWORD PTR [rbp-0x10]
    340e:	0f b6 00             	movzx  eax,BYTE PTR [rax]
    3411:	3c 2f                	cmp    al,0x2f
    3413:	75 20                	jne    3435 <LEXER+0x1a9>
    3415:	48 8b 45 f0          	mov    rax,QWORD PTR [rbp-0x10]
    3419:	48 83 c0 01          	add    rax,0x1
    341d:	0f b6 00             	movzx  eax,BYTE PTR [rax]
    3420:	3c 2a                	cmp    al,0x2a
    3422:	75 11                	jne    3435 <LEXER+0x1a9>
    3424:	c7 45 fc 01 00 00 00 	mov    DWORD PTR [rbp-0x4],0x1
    342b:	48 83 45 f0 02       	add    QWORD PTR [rbp-0x10],0x2
    3430:	e9 55 16 00 00       	jmp    4a8a <LEXER+0x17fe>
    3435:	83 7d fc 00          	cmp    DWORD PTR [rbp-0x4],0x0
    3439:	74 32                	je     346d <LEXER+0x1e1>
    343b:	48 8b 45 f0          	mov    rax,QWORD PTR [rbp-0x10]
    343f:	0f b6 00             	movzx  eax,BYTE PTR [rax]
    3442:	3c 2a                	cmp    al,0x2a
    3444:	75 1d                	jne    3463 <LEXER+0x1d7>
    3446:	48 8b 45 f0          	mov    rax,QWORD PTR [rbp-0x10]
    344a:	48 83 c0 01          	add    rax,0x1
    344e:	0f b6 00             	movzx  eax,BYTE PTR [rax]
    3451:	3c 2f                	cmp    al,0x2f
    3453:	75 0e                	jne    3463 <LEXER+0x1d7>
    3455:	c7 45 fc 00 00 00 00 	mov    DWORD PTR [rbp-0x4],0x0
    345c:	48 83 45 f0 02       	add    QWORD PTR [rbp-0x10],0x2
    3461:	eb 05                	jmp    3468 <LEXER+0x1dc>
    3463:	48 83 45 f0 01       	add    QWORD PTR [rbp-0x10],0x1
    3468:	e9 1d 16 00 00       	jmp    4a8a <LEXER+0x17fe>
    346d:	48 8b 45 f0          	mov    rax,QWORD PTR [rbp-0x10]
    3471:	0f b6 00             	movzx  eax,BYTE PTR [rax]
    3474:	3c 75                	cmp    al,0x75
    3476:	74 0f                	je     3487 <LEXER+0x1fb>
    3478:	48 8b 45 f0          	mov    rax,QWORD PTR [rbp-0x10]
    347c:	0f b6 00             	movzx  eax,BYTE PTR [rax]
    347f:	3c 55                	cmp    al,0x55
    3481:	0f 85 b6 02 00 00    	jne    373d <LEXER+0x4b1>
    3487:	e8 04 ed ff ff       	call   2190 <__ctype_b_loc@plt>
    348c:	48 8b 00             	mov    rax,QWORD PTR [rax]
    348f:	48 8b 55 f0          	mov    rdx,QWORD PTR [rbp-0x10]
    3493:	48 83 c2 01          	add    rdx,0x1
    3497:	0f b6 12             	movzx  edx,BYTE PTR [rdx]
    349a:	48 0f be d2          	movsx  rdx,dl
    349e:	48 01 d2             	add    rdx,rdx
    34a1:	48 01 d0             	add    rax,rdx
    34a4:	0f b7 00             	movzx  eax,WORD PTR [rax]
    34a7:	0f b7 c0             	movzx  eax,ax
    34aa:	25 00 08 00 00       	and    eax,0x800
    34af:	85 c0                	test   eax,eax
    34b1:	0f 84 86 02 00 00    	je     373d <LEXER+0x4b1>
    34b7:	48 c7 85 a6 fd ff ff 	mov    QWORD PTR [rbp-0x25a],0x0
    34be:	00 00 00 00 
    34c2:	66 c7 85 ae fd ff ff 	mov    WORD PTR [rbp-0x252],0x0
    34c9:	00 00 
    34cb:	c7 45 ec 00 00 00 00 	mov    DWORD PTR [rbp-0x14],0x0
    34d2:	eb 22                	jmp    34f6 <LEXER+0x26a>
    34d4:	48 8b 45 f0          	mov    rax,QWORD PTR [rbp-0x10]
    34d8:	48 8d 50 01          	lea    rdx,[rax+0x1]
    34dc:	48 89 55 f0          	mov    QWORD PTR [rbp-0x10],rdx
    34e0:	8b 55 ec             	mov    edx,DWORD PTR [rbp-0x14]
    34e3:	8d 4a 01             	lea    ecx,[rdx+0x1]
    34e6:	89 4d ec             	mov    DWORD PTR [rbp-0x14],ecx
    34e9:	0f b6 08             	movzx  ecx,BYTE PTR [rax]
    34ec:	48 63 c2             	movsxd rax,edx
    34ef:	88 8c 05 a6 fd ff ff 	mov    BYTE PTR [rbp+rax*1-0x25a],cl
    34f6:	48 8b 45 f0          	mov    rax,QWORD PTR [rbp-0x10]
    34fa:	0f b6 00             	movzx  eax,BYTE PTR [rax]
    34fd:	84 c0                	test   al,al
    34ff:	74 2e                	je     352f <LEXER+0x2a3>
    3501:	e8 8a ec ff ff       	call   2190 <__ctype_b_loc@plt>
    3506:	48 8b 10             	mov    rdx,QWORD PTR [rax]
    3509:	48 8b 45 f0          	mov    rax,QWORD PTR [rbp-0x10]
    350d:	0f b6 00             	movzx  eax,BYTE PTR [rax]
    3510:	48 0f be c0          	movsx  rax,al
    3514:	48 01 c0             	add    rax,rax
    3517:	48 01 d0             	add    rax,rdx
    351a:	0f b7 00             	movzx  eax,WORD PTR [rax]
    351d:	0f b7 c0             	movzx  eax,ax
    3520:	25 00 20 00 00       	and    eax,0x2000
    3525:	85 c0                	test   eax,eax
    3527:	75 06                	jne    352f <LEXER+0x2a3>
    3529:	83 7d ec 08          	cmp    DWORD PTR [rbp-0x14],0x8
    352d:	7e a5                	jle    34d4 <LEXER+0x248>
    352f:	48 8b 15 2a bd 00 00 	mov    rdx,QWORD PTR [rip+0xbd2a]        # f260 <HUMAN_AST>
    3536:	48 8d 85 a6 fd ff ff 	lea    rax,[rbp-0x25a]
    353d:	48 89 d6             	mov    rsi,rdx
    3540:	48 89 c7             	mov    rdi,rax
    3543:	e8 08 eb ff ff       	call   2050 <strcasecmp@plt>
    3548:	85 c0                	test   eax,eax
    354a:	75 1f                	jne    356b <LEXER+0x2df>
    354c:	8b 15 36 c1 00 00    	mov    edx,DWORD PTR [rip+0xc136]        # f688 <line>
    3552:	48 8d 85 a6 fd ff ff 	lea    rax,[rbp-0x25a]
    3559:	48 89 c6             	mov    rsi,rax
    355c:	bf 0f 00 00 00       	mov    edi,0xf
    3561:	e8 a3 f3 ff ff       	call   2909 <add_token>
    3566:	e9 1f 15 00 00       	jmp    4a8a <LEXER+0x17fe>
    356b:	48 8b 15 f6 bc 00 00 	mov    rdx,QWORD PTR [rip+0xbcf6]        # f268 <HUMAN_AST+0x8>
    3572:	48 8d 85 a6 fd ff ff 	lea    rax,[rbp-0x25a]
    3579:	48 89 d6             	mov    rsi,rdx
    357c:	48 89 c7             	mov    rdi,rax
    357f:	e8 cc ea ff ff       	call   2050 <strcasecmp@plt>
    3584:	85 c0                	test   eax,eax
    3586:	75 1f                	jne    35a7 <LEXER+0x31b>
    3588:	8b 15 fa c0 00 00    	mov    edx,DWORD PTR [rip+0xc0fa]        # f688 <line>
    358e:	48 8d 85 a6 fd ff ff 	lea    rax,[rbp-0x25a]
    3595:	48 89 c6             	mov    rsi,rax
    3598:	bf 10 00 00 00       	mov    edi,0x10
    359d:	e8 67 f3 ff ff       	call   2909 <add_token>
    35a2:	e9 e3 14 00 00       	jmp    4a8a <LEXER+0x17fe>
    35a7:	48 8b 15 c2 bc 00 00 	mov    rdx,QWORD PTR [rip+0xbcc2]        # f270 <HUMAN_AST+0x10>
    35ae:	48 8d 85 a6 fd ff ff 	lea    rax,[rbp-0x25a]
    35b5:	48 89 d6             	mov    rsi,rdx
    35b8:	48 89 c7             	mov    rdi,rax
    35bb:	e8 90 ea ff ff       	call   2050 <strcasecmp@plt>
    35c0:	85 c0                	test   eax,eax
    35c2:	75 1f                	jne    35e3 <LEXER+0x357>
    35c4:	8b 15 be c0 00 00    	mov    edx,DWORD PTR [rip+0xc0be]        # f688 <line>
    35ca:	48 8d 85 a6 fd ff ff 	lea    rax,[rbp-0x25a]
    35d1:	48 89 c6             	mov    rsi,rax
    35d4:	bf 11 00 00 00       	mov    edi,0x11
    35d9:	e8 2b f3 ff ff       	call   2909 <add_token>
    35de:	e9 a7 14 00 00       	jmp    4a8a <LEXER+0x17fe>
    35e3:	48 8b 15 8e bc 00 00 	mov    rdx,QWORD PTR [rip+0xbc8e]        # f278 <HUMAN_AST+0x18>
    35ea:	48 8d 85 a6 fd ff ff 	lea    rax,[rbp-0x25a]
    35f1:	48 89 d6             	mov    rsi,rdx
    35f4:	48 89 c7             	mov    rdi,rax
    35f7:	e8 54 ea ff ff       	call   2050 <strcasecmp@plt>
    35fc:	85 c0                	test   eax,eax
    35fe:	75 1f                	jne    361f <LEXER+0x393>
    3600:	8b 15 82 c0 00 00    	mov    edx,DWORD PTR [rip+0xc082]        # f688 <line>
    3606:	48 8d 85 a6 fd ff ff 	lea    rax,[rbp-0x25a]
    360d:	48 89 c6             	mov    rsi,rax
    3610:	bf 12 00 00 00       	mov    edi,0x12
    3615:	e8 ef f2 ff ff       	call   2909 <add_token>
    361a:	e9 6b 14 00 00       	jmp    4a8a <LEXER+0x17fe>
    361f:	48 8b 15 5a bc 00 00 	mov    rdx,QWORD PTR [rip+0xbc5a]        # f280 <HUMAN_AST+0x20>
    3626:	48 8d 85 a6 fd ff ff 	lea    rax,[rbp-0x25a]
    362d:	48 89 d6             	mov    rsi,rdx
    3630:	48 89 c7             	mov    rdi,rax
    3633:	e8 18 ea ff ff       	call   2050 <strcasecmp@plt>
    3638:	85 c0                	test   eax,eax
    363a:	75 1f                	jne    365b <LEXER+0x3cf>
    363c:	8b 15 46 c0 00 00    	mov    edx,DWORD PTR [rip+0xc046]        # f688 <line>
    3642:	48 8d 85 a6 fd ff ff 	lea    rax,[rbp-0x25a]
    3649:	48 89 c6             	mov    rsi,rax
    364c:	bf 13 00 00 00       	mov    edi,0x13
    3651:	e8 b3 f2 ff ff       	call   2909 <add_token>
    3656:	e9 2f 14 00 00       	jmp    4a8a <LEXER+0x17fe>
    365b:	48 8b 15 26 bc 00 00 	mov    rdx,QWORD PTR [rip+0xbc26]        # f288 <HUMAN_AST+0x28>
    3662:	48 8d 85 a6 fd ff ff 	lea    rax,[rbp-0x25a]
    3669:	48 89 d6             	mov    rsi,rdx
    366c:	48 89 c7             	mov    rdi,rax
    366f:	e8 dc e9 ff ff       	call   2050 <strcasecmp@plt>
    3674:	85 c0                	test   eax,eax
    3676:	75 1f                	jne    3697 <LEXER+0x40b>
    3678:	8b 15 0a c0 00 00    	mov    edx,DWORD PTR [rip+0xc00a]        # f688 <line>
    367e:	48 8d 85 a6 fd ff ff 	lea    rax,[rbp-0x25a]
    3685:	48 89 c6             	mov    rsi,rax
    3688:	bf 14 00 00 00       	mov    edi,0x14
    368d:	e8 77 f2 ff ff       	call   2909 <add_token>
    3692:	e9 f3 13 00 00       	jmp    4a8a <LEXER+0x17fe>
    3697:	48 8b 15 f2 bb 00 00 	mov    rdx,QWORD PTR [rip+0xbbf2]        # f290 <HUMAN_AST+0x30>
    369e:	48 8d 85 a6 fd ff ff 	lea    rax,[rbp-0x25a]
    36a5:	48 89 d6             	mov    rsi,rdx
    36a8:	48 89 c7             	mov    rdi,rax
    36ab:	e8 a0 e9 ff ff       	call   2050 <strcasecmp@plt>
    36b0:	85 c0                	test   eax,eax
    36b2:	75 1f                	jne    36d3 <LEXER+0x447>
    36b4:	8b 15 ce bf 00 00    	mov    edx,DWORD PTR [rip+0xbfce]        # f688 <line>
    36ba:	48 8d 85 a6 fd ff ff 	lea    rax,[rbp-0x25a]
    36c1:	48 89 c6             	mov    rsi,rax
    36c4:	bf 15 00 00 00       	mov    edi,0x15
    36c9:	e8 3b f2 ff ff       	call   2909 <add_token>
    36ce:	e9 b7 13 00 00       	jmp    4a8a <LEXER+0x17fe>
    36d3:	48 8b 15 be bb 00 00 	mov    rdx,QWORD PTR [rip+0xbbbe]        # f298 <HUMAN_AST+0x38>
    36da:	48 8d 85 a6 fd ff ff 	lea    rax,[rbp-0x25a]
    36e1:	48 89 d6             	mov    rsi,rdx
    36e4:	48 89 c7             	mov    rdi,rax
    36e7:	e8 64 e9 ff ff       	call   2050 <strcasecmp@plt>
    36ec:	85 c0                	test   eax,eax
    36ee:	75 1f                	jne    370f <LEXER+0x483>
    36f0:	8b 15 92 bf 00 00    	mov    edx,DWORD PTR [rip+0xbf92]        # f688 <line>
    36f6:	48 8d 85 a6 fd ff ff 	lea    rax,[rbp-0x25a]
    36fd:	48 89 c6             	mov    rsi,rax
    3700:	bf 16 00 00 00       	mov    edi,0x16
    3705:	e8 ff f1 ff ff       	call   2909 <add_token>
    370a:	e9 7b 13 00 00       	jmp    4a8a <LEXER+0x17fe>
    370f:	8b 15 73 bf 00 00    	mov    edx,DWORD PTR [rip+0xbf73]        # f688 <line>
    3715:	48 8b 05 44 bf 00 00 	mov    rax,QWORD PTR [rip+0xbf44]        # f660 <stderr@GLIBC_2.2.5>
    371c:	48 8d 0d b5 8d 00 00 	lea    rcx,[rip+0x8db5]        # c4d8 <_IO_stdin_used+0x4d8>
    3723:	48 89 ce             	mov    rsi,rcx
    3726:	48 89 c7             	mov    rdi,rax
    3729:	b8 00 00 00 00       	mov    eax,0x0
    372e:	e8 cd e9 ff ff       	call   2100 <fprintf@plt>
    3733:	bf 01 00 00 00       	mov    edi,0x1
    3738:	e8 23 ea ff ff       	call   2160 <exit@plt>
    373d:	48 8b 45 f0          	mov    rax,QWORD PTR [rbp-0x10]
    3741:	0f b6 00             	movzx  eax,BYTE PTR [rax]
    3744:	0f be d0             	movsx  edx,al
    3747:	48 8b 05 b2 bb 00 00 	mov    rax,QWORD PTR [rip+0xbbb2]        # f300 <LETEXT>
    374e:	89 d6                	mov    esi,edx
    3750:	48 89 c7             	mov    rdi,rax
    3753:	e8 41 eb ff ff       	call   2299 <isin>
    3758:	85 c0                	test   eax,eax
    375a:	0f 84 a0 02 00 00    	je     3a00 <LEXER+0x774>
    3760:	48 c7 85 80 fb ff ff 	mov    QWORD PTR [rbp-0x480],0x0
    3767:	00 00 00 00 
    376b:	48 c7 85 88 fb ff ff 	mov    QWORD PTR [rbp-0x478],0x0
    3772:	00 00 00 00 
    3776:	48 c7 85 90 fb ff ff 	mov    QWORD PTR [rbp-0x470],0x0
    377d:	00 00 00 00 
    3781:	48 c7 85 98 fb ff ff 	mov    QWORD PTR [rbp-0x468],0x0
    3788:	00 00 00 00 
    378c:	48 c7 85 a0 fb ff ff 	mov    QWORD PTR [rbp-0x460],0x0
    3793:	00 00 00 00 
    3797:	48 c7 85 a8 fb ff ff 	mov    QWORD PTR [rbp-0x458],0x0
    379e:	00 00 00 00 
    37a2:	48 c7 85 b0 fb ff ff 	mov    QWORD PTR [rbp-0x450],0x0
    37a9:	00 00 00 00 
    37ad:	48 c7 85 b8 fb ff ff 	mov    QWORD PTR [rbp-0x448],0x0
    37b4:	00 00 00 00 
    37b8:	48 c7 85 c0 fb ff ff 	mov    QWORD PTR [rbp-0x440],0x0
    37bf:	00 00 00 00 
    37c3:	48 c7 85 c8 fb ff ff 	mov    QWORD PTR [rbp-0x438],0x0
    37ca:	00 00 00 00 
    37ce:	48 c7 85 d0 fb ff ff 	mov    QWORD PTR [rbp-0x430],0x0
    37d5:	00 00 00 00 
    37d9:	48 c7 85 d8 fb ff ff 	mov    QWORD PTR [rbp-0x428],0x0
    37e0:	00 00 00 00 
    37e4:	48 c7 85 e0 fb ff ff 	mov    QWORD PTR [rbp-0x420],0x0
    37eb:	00 00 00 00 
    37ef:	48 c7 85 e8 fb ff ff 	mov    QWORD PTR [rbp-0x418],0x0
    37f6:	00 00 00 00 
    37fa:	48 c7 85 f0 fb ff ff 	mov    QWORD PTR [rbp-0x410],0x0
    3801:	00 00 00 00 
    3805:	48 c7 85 f8 fb ff ff 	mov    QWORD PTR [rbp-0x408],0x0
    380c:	00 00 00 00 
    3810:	48 c7 85 00 fc ff ff 	mov    QWORD PTR [rbp-0x400],0x0
    3817:	00 00 00 00 
    381b:	48 c7 85 08 fc ff ff 	mov    QWORD PTR [rbp-0x3f8],0x0
    3822:	00 00 00 00 
    3826:	48 c7 85 10 fc ff ff 	mov    QWORD PTR [rbp-0x3f0],0x0
    382d:	00 00 00 00 
    3831:	48 c7 85 18 fc ff ff 	mov    QWORD PTR [rbp-0x3e8],0x0
    3838:	00 00 00 00 
    383c:	48 c7 85 20 fc ff ff 	mov    QWORD PTR [rbp-0x3e0],0x0
    3843:	00 00 00 00 
    3847:	48 c7 85 28 fc ff ff 	mov    QWORD PTR [rbp-0x3d8],0x0
    384e:	00 00 00 00 
    3852:	48 c7 85 30 fc ff ff 	mov    QWORD PTR [rbp-0x3d0],0x0
    3859:	00 00 00 00 
    385d:	48 c7 85 38 fc ff ff 	mov    QWORD PTR [rbp-0x3c8],0x0
    3864:	00 00 00 00 
    3868:	48 c7 85 40 fc ff ff 	mov    QWORD PTR [rbp-0x3c0],0x0
    386f:	00 00 00 00 
    3873:	48 c7 85 48 fc ff ff 	mov    QWORD PTR [rbp-0x3b8],0x0
    387a:	00 00 00 00 
    387e:	48 c7 85 50 fc ff ff 	mov    QWORD PTR [rbp-0x3b0],0x0
    3885:	00 00 00 00 
    3889:	48 c7 85 58 fc ff ff 	mov    QWORD PTR [rbp-0x3a8],0x0
    3890:	00 00 00 00 
    3894:	48 c7 85 60 fc ff ff 	mov    QWORD PTR [rbp-0x3a0],0x0
    389b:	00 00 00 00 
    389f:	48 c7 85 68 fc ff ff 	mov    QWORD PTR [rbp-0x398],0x0
    38a6:	00 00 00 00 
    38aa:	48 c7 85 70 fc ff ff 	mov    QWORD PTR [rbp-0x390],0x0
    38b1:	00 00 00 00 
    38b5:	48 c7 85 78 fc ff ff 	mov    QWORD PTR [rbp-0x388],0x0
    38bc:	00 00 00 00 
    38c0:	c7 45 e8 00 00 00 00 	mov    DWORD PTR [rbp-0x18],0x0
    38c7:	eb 22                	jmp    38eb <LEXER+0x65f>
    38c9:	48 8b 45 f0          	mov    rax,QWORD PTR [rbp-0x10]
    38cd:	48 8d 50 01          	lea    rdx,[rax+0x1]
    38d1:	48 89 55 f0          	mov    QWORD PTR [rbp-0x10],rdx
    38d5:	8b 55 e8             	mov    edx,DWORD PTR [rbp-0x18]
    38d8:	8d 4a 01             	lea    ecx,[rdx+0x1]
    38db:	89 4d e8             	mov    DWORD PTR [rbp-0x18],ecx
    38de:	0f b6 08             	movzx  ecx,BYTE PTR [rax]
    38e1:	48 63 c2             	movsxd rax,edx
    38e4:	88 8c 05 80 fb ff ff 	mov    BYTE PTR [rbp+rax*1-0x480],cl
    38eb:	48 8b 45 f0          	mov    rax,QWORD PTR [rbp-0x10]
    38ef:	0f b6 00             	movzx  eax,BYTE PTR [rax]
    38f2:	0f be d0             	movsx  edx,al
    38f5:	48 8b 05 04 ba 00 00 	mov    rax,QWORD PTR [rip+0xba04]        # f300 <LETEXT>
    38fc:	89 d6                	mov    esi,edx
    38fe:	48 89 c7             	mov    rdi,rax
    3901:	e8 93 e9 ff ff       	call   2299 <isin>
    3906:	85 c0                	test   eax,eax
    3908:	74 09                	je     3913 <LEXER+0x687>
    390a:	81 7d e8 00 01 00 00 	cmp    DWORD PTR [rbp-0x18],0x100
    3911:	7e b6                	jle    38c9 <LEXER+0x63d>
    3913:	8b 45 e8             	mov    eax,DWORD PTR [rbp-0x18]
    3916:	48 98                	cdqe
    3918:	c6 84 05 80 fb ff ff 	mov    BYTE PTR [rbp+rax*1-0x480],0x0
    391f:	00 
    3920:	eb 05                	jmp    3927 <LEXER+0x69b>
    3922:	48 83 45 f0 01       	add    QWORD PTR [rbp-0x10],0x1
    3927:	48 8b 45 f0          	mov    rax,QWORD PTR [rbp-0x10]
    392b:	0f b6 00             	movzx  eax,BYTE PTR [rax]
    392e:	3c 20                	cmp    al,0x20
    3930:	74 f0                	je     3922 <LEXER+0x696>
    3932:	48 8b 45 f0          	mov    rax,QWORD PTR [rbp-0x10]
    3936:	0f b6 00             	movzx  eax,BYTE PTR [rax]
    3939:	3c 09                	cmp    al,0x9
    393b:	74 e5                	je     3922 <LEXER+0x696>
    393d:	48 8b 45 f0          	mov    rax,QWORD PTR [rbp-0x10]
    3941:	0f b6 00             	movzx  eax,BYTE PTR [rax]
    3944:	3c 3a                	cmp    al,0x3a
    3946:	75 49                	jne    3991 <LEXER+0x705>
    3948:	48 83 45 f0 01       	add    QWORD PTR [rbp-0x10],0x1
    394d:	48 8d 85 80 fb ff ff 	lea    rax,[rbp-0x480]
    3954:	48 8d 95 b0 fd ff ff 	lea    rdx,[rbp-0x250]
    395b:	48 8d 8a 10 01 00 00 	lea    rcx,[rdx+0x110]
    3962:	ba 00 01 00 00       	mov    edx,0x100
    3967:	48 89 c6             	mov    rsi,rax
    396a:	48 89 cf             	mov    rdi,rcx
    396d:	e8 ee e6 ff ff       	call   2060 <strncpy@plt>
    3972:	8b 15 10 bd 00 00    	mov    edx,DWORD PTR [rip+0xbd10]        # f688 <line>
    3978:	48 8d 85 80 fb ff ff 	lea    rax,[rbp-0x480]
    397f:	48 89 c6             	mov    rsi,rax
    3982:	bf 02 00 00 00       	mov    edi,0x2
    3987:	e8 7d ef ff ff       	call   2909 <add_token>
    398c:	e9 f9 10 00 00       	jmp    4a8a <LEXER+0x17fe>
    3991:	48 8d 85 80 fb ff ff 	lea    rax,[rbp-0x480]
    3998:	48 89 c6             	mov    rsi,rax
    399b:	48 8d 05 3e b7 00 00 	lea    rax,[rip+0xb73e]        # f0e0 <CMDS>
    39a2:	48 89 c7             	mov    rdi,rax
    39a5:	e8 40 e9 ff ff       	call   22ea <is2arrin>
    39aa:	85 c0                	test   eax,eax
    39ac:	74 1f                	je     39cd <LEXER+0x741>
    39ae:	8b 15 d4 bc 00 00    	mov    edx,DWORD PTR [rip+0xbcd4]        # f688 <line>
    39b4:	48 8d 85 80 fb ff ff 	lea    rax,[rbp-0x480]
    39bb:	48 89 c6             	mov    rsi,rax
    39be:	bf 00 00 00 00       	mov    edi,0x0
    39c3:	e8 41 ef ff ff       	call   2909 <add_token>
    39c8:	e9 bd 10 00 00       	jmp    4a8a <LEXER+0x17fe>
    39cd:	e8 d0 f0 ff ff       	call   2aa2 <DEBUG_PRINT_TOKENS>
    39d2:	8b 15 b0 bc 00 00    	mov    edx,DWORD PTR [rip+0xbcb0]        # f688 <line>
    39d8:	48 8b 05 81 bc 00 00 	mov    rax,QWORD PTR [rip+0xbc81]        # f660 <stderr@GLIBC_2.2.5>
    39df:	48 8d 0d 2a 8b 00 00 	lea    rcx,[rip+0x8b2a]        # c510 <_IO_stdin_used+0x510>
    39e6:	48 89 ce             	mov    rsi,rcx
    39e9:	48 89 c7             	mov    rdi,rax
    39ec:	b8 00 00 00 00       	mov    eax,0x0
    39f1:	e8 0a e7 ff ff       	call   2100 <fprintf@plt>
    39f6:	bf 01 00 00 00       	mov    edi,0x1
    39fb:	e8 60 e7 ff ff       	call   2160 <exit@plt>
    3a00:	48 8b 45 f0          	mov    rax,QWORD PTR [rbp-0x10]
    3a04:	0f b6 00             	movzx  eax,BYTE PTR [rax]
    3a07:	3c 2e                	cmp    al,0x2e
    3a09:	0f 85 ae 02 00 00    	jne    3cbd <LEXER+0xa31>
    3a0f:	48 83 45 f0 01       	add    QWORD PTR [rbp-0x10],0x1
    3a14:	48 c7 85 80 fa ff ff 	mov    QWORD PTR [rbp-0x580],0x0
    3a1b:	00 00 00 00 
    3a1f:	48 c7 85 88 fa ff ff 	mov    QWORD PTR [rbp-0x578],0x0
    3a26:	00 00 00 00 
    3a2a:	48 c7 85 90 fa ff ff 	mov    QWORD PTR [rbp-0x570],0x0
    3a31:	00 00 00 00 
    3a35:	48 c7 85 98 fa ff ff 	mov    QWORD PTR [rbp-0x568],0x0
    3a3c:	00 00 00 00 
    3a40:	48 c7 85 a0 fa ff ff 	mov    QWORD PTR [rbp-0x560],0x0
    3a47:	00 00 00 00 
    3a4b:	48 c7 85 a8 fa ff ff 	mov    QWORD PTR [rbp-0x558],0x0
    3a52:	00 00 00 00 
    3a56:	48 c7 85 b0 fa ff ff 	mov    QWORD PTR [rbp-0x550],0x0
    3a5d:	00 00 00 00 
    3a61:	48 c7 85 b8 fa ff ff 	mov    QWORD PTR [rbp-0x548],0x0
    3a68:	00 00 00 00 
    3a6c:	48 c7 85 c0 fa ff ff 	mov    QWORD PTR [rbp-0x540],0x0
    3a73:	00 00 00 00 
    3a77:	48 c7 85 c8 fa ff ff 	mov    QWORD PTR [rbp-0x538],0x0
    3a7e:	00 00 00 00 
    3a82:	48 c7 85 d0 fa ff ff 	mov    QWORD PTR [rbp-0x530],0x0
    3a89:	00 00 00 00 
    3a8d:	48 c7 85 d8 fa ff ff 	mov    QWORD PTR [rbp-0x528],0x0
    3a94:	00 00 00 00 
    3a98:	48 c7 85 e0 fa ff ff 	mov    QWORD PTR [rbp-0x520],0x0
    3a9f:	00 00 00 00 
    3aa3:	48 c7 85 e8 fa ff ff 	mov    QWORD PTR [rbp-0x518],0x0
    3aaa:	00 00 00 00 
    3aae:	48 c7 85 f0 fa ff ff 	mov    QWORD PTR [rbp-0x510],0x0
    3ab5:	00 00 00 00 
    3ab9:	48 c7 85 f8 fa ff ff 	mov    QWORD PTR [rbp-0x508],0x0
    3ac0:	00 00 00 00 
    3ac4:	48 c7 85 00 fb ff ff 	mov    QWORD PTR [rbp-0x500],0x0
    3acb:	00 00 00 00 
    3acf:	48 c7 85 08 fb ff ff 	mov    QWORD PTR [rbp-0x4f8],0x0
    3ad6:	00 00 00 00 
    3ada:	48 c7 85 10 fb ff ff 	mov    QWORD PTR [rbp-0x4f0],0x0
    3ae1:	00 00 00 00 
    3ae5:	48 c7 85 18 fb ff ff 	mov    QWORD PTR [rbp-0x4e8],0x0
    3aec:	00 00 00 00 
    3af0:	48 c7 85 20 fb ff ff 	mov    QWORD PTR [rbp-0x4e0],0x0
    3af7:	00 00 00 00 
    3afb:	48 c7 85 28 fb ff ff 	mov    QWORD PTR [rbp-0x4d8],0x0
    3b02:	00 00 00 00 
    3b06:	48 c7 85 30 fb ff ff 	mov    QWORD PTR [rbp-0x4d0],0x0
    3b0d:	00 00 00 00 
    3b11:	48 c7 85 38 fb ff ff 	mov    QWORD PTR [rbp-0x4c8],0x0
    3b18:	00 00 00 00 
    3b1c:	48 c7 85 40 fb ff ff 	mov    QWORD PTR [rbp-0x4c0],0x0
    3b23:	00 00 00 00 
    3b27:	48 c7 85 48 fb ff ff 	mov    QWORD PTR [rbp-0x4b8],0x0
    3b2e:	00 00 00 00 
    3b32:	48 c7 85 50 fb ff ff 	mov    QWORD PTR [rbp-0x4b0],0x0
    3b39:	00 00 00 00 
    3b3d:	48 c7 85 58 fb ff ff 	mov    QWORD PTR [rbp-0x4a8],0x0
    3b44:	00 00 00 00 
    3b48:	48 c7 85 60 fb ff ff 	mov    QWORD PTR [rbp-0x4a0],0x0
    3b4f:	00 00 00 00 
    3b53:	48 c7 85 68 fb ff ff 	mov    QWORD PTR [rbp-0x498],0x0
    3b5a:	00 00 00 00 
    3b5e:	48 c7 85 70 fb ff ff 	mov    QWORD PTR [rbp-0x490],0x0
    3b65:	00 00 00 00 
    3b69:	48 c7 85 78 fb ff ff 	mov    QWORD PTR [rbp-0x488],0x0
    3b70:	00 00 00 00 
    3b74:	c7 45 e4 00 00 00 00 	mov    DWORD PTR [rbp-0x1c],0x0
    3b7b:	eb 22                	jmp    3b9f <LEXER+0x913>
    3b7d:	48 8b 45 f0          	mov    rax,QWORD PTR [rbp-0x10]
    3b81:	48 8d 50 01          	lea    rdx,[rax+0x1]
    3b85:	48 89 55 f0          	mov    QWORD PTR [rbp-0x10],rdx
    3b89:	8b 55 e4             	mov    edx,DWORD PTR [rbp-0x1c]
    3b8c:	8d 4a 01             	lea    ecx,[rdx+0x1]
    3b8f:	89 4d e4             	mov    DWORD PTR [rbp-0x1c],ecx
    3b92:	0f b6 08             	movzx  ecx,BYTE PTR [rax]
    3b95:	48 63 c2             	movsxd rax,edx
    3b98:	88 8c 05 80 fa ff ff 	mov    BYTE PTR [rbp+rax*1-0x580],cl
    3b9f:	48 8b 45 f0          	mov    rax,QWORD PTR [rbp-0x10]
    3ba3:	0f b6 00             	movzx  eax,BYTE PTR [rax]
    3ba6:	0f be d0             	movsx  edx,al
    3ba9:	48 8b 05 50 b7 00 00 	mov    rax,QWORD PTR [rip+0xb750]        # f300 <LETEXT>
    3bb0:	89 d6                	mov    esi,edx
    3bb2:	48 89 c7             	mov    rdi,rax
    3bb5:	e8 df e6 ff ff       	call   2299 <isin>
    3bba:	85 c0                	test   eax,eax
    3bbc:	75 bf                	jne    3b7d <LEXER+0x8f1>
    3bbe:	48 c7 85 80 fb ff ff 	mov    QWORD PTR [rbp-0x480],0x0
    3bc5:	00 00 00 00 
    3bc9:	48 c7 85 88 fb ff ff 	mov    QWORD PTR [rbp-0x478],0x0
    3bd0:	00 00 00 00 
    3bd4:	48 8d 95 90 fb ff ff 	lea    rdx,[rbp-0x470]
    3bdb:	b8 00 00 00 00       	mov    eax,0x0
    3be0:	b9 3e 00 00 00       	mov    ecx,0x3e
    3be5:	48 89 d7             	mov    rdi,rdx
    3be8:	f3 48 ab             	rep stos QWORD PTR es:[rdi],rax
    3beb:	0f b6 85 c0 fe ff ff 	movzx  eax,BYTE PTR [rbp-0x140]
    3bf2:	84 c0                	test   al,al
    3bf4:	75 2e                	jne    3c24 <LEXER+0x998>
    3bf6:	8b 15 8c ba 00 00    	mov    edx,DWORD PTR [rip+0xba8c]        # f688 <line>
    3bfc:	48 8b 05 5d ba 00 00 	mov    rax,QWORD PTR [rip+0xba5d]        # f660 <stderr@GLIBC_2.2.5>
    3c03:	48 8d 0d 36 89 00 00 	lea    rcx,[rip+0x8936]        # c540 <_IO_stdin_used+0x540>
    3c0a:	48 89 ce             	mov    rsi,rcx
    3c0d:	48 89 c7             	mov    rdi,rax
    3c10:	b8 00 00 00 00       	mov    eax,0x0
    3c15:	e8 e6 e4 ff ff       	call   2100 <fprintf@plt>
    3c1a:	bf 01 00 00 00       	mov    edi,0x1
    3c1f:	e8 3c e5 ff ff       	call   2160 <exit@plt>
    3c24:	48 8d 8d 80 fa ff ff 	lea    rcx,[rbp-0x580]
    3c2b:	48 8d 85 b0 fd ff ff 	lea    rax,[rbp-0x250]
    3c32:	48 8d 90 10 01 00 00 	lea    rdx,[rax+0x110]
    3c39:	48 8d 85 80 fb ff ff 	lea    rax,[rbp-0x480]
    3c40:	49 89 c8             	mov    r8,rcx
    3c43:	48 89 d1             	mov    rcx,rdx
    3c46:	48 8d 15 2f 89 00 00 	lea    rdx,[rip+0x892f]        # c57c <_IO_stdin_used+0x57c>
    3c4d:	be 00 02 00 00       	mov    esi,0x200
    3c52:	48 89 c7             	mov    rdi,rax
    3c55:	b8 00 00 00 00       	mov    eax,0x0
    3c5a:	e8 51 e4 ff ff       	call   20b0 <snprintf@plt>
    3c5f:	48 8b 45 f0          	mov    rax,QWORD PTR [rbp-0x10]
    3c63:	0f b6 00             	movzx  eax,BYTE PTR [rax]
    3c66:	3c 3a                	cmp    al,0x3a
    3c68:	75 25                	jne    3c8f <LEXER+0xa03>
    3c6a:	48 83 45 f0 01       	add    QWORD PTR [rbp-0x10],0x1
    3c6f:	8b 15 13 ba 00 00    	mov    edx,DWORD PTR [rip+0xba13]        # f688 <line>
    3c75:	48 8d 85 80 fb ff ff 	lea    rax,[rbp-0x480]
    3c7c:	48 89 c6             	mov    rsi,rax
    3c7f:	bf 02 00 00 00       	mov    edi,0x2
    3c84:	e8 80 ec ff ff       	call   2909 <add_token>
    3c89:	90                   	nop
    3c8a:	e9 fb 0d 00 00       	jmp    4a8a <LEXER+0x17fe>
    3c8f:	8b 15 f3 b9 00 00    	mov    edx,DWORD PTR [rip+0xb9f3]        # f688 <line>
    3c95:	48 8b 05 c4 b9 00 00 	mov    rax,QWORD PTR [rip+0xb9c4]        # f660 <stderr@GLIBC_2.2.5>
    3c9c:	48 8d 0d e5 88 00 00 	lea    rcx,[rip+0x88e5]        # c588 <_IO_stdin_used+0x588>
    3ca3:	48 89 ce             	mov    rsi,rcx
    3ca6:	48 89 c7             	mov    rdi,rax
    3ca9:	b8 00 00 00 00       	mov    eax,0x0
    3cae:	e8 4d e4 ff ff       	call   2100 <fprintf@plt>
    3cb3:	bf 01 00 00 00       	mov    edi,0x1
    3cb8:	e8 a3 e4 ff ff       	call   2160 <exit@plt>
    3cbd:	48 8b 45 f0          	mov    rax,QWORD PTR [rbp-0x10]
    3cc1:	0f b6 00             	movzx  eax,BYTE PTR [rax]
    3cc4:	3c 25                	cmp    al,0x25
    3cc6:	0f 85 14 02 00 00    	jne    3ee0 <LEXER+0xc54>
    3ccc:	48 83 45 f0 01       	add    QWORD PTR [rbp-0x10],0x1
    3cd1:	c7 45 e0 00 00 00 00 	mov    DWORD PTR [rbp-0x20],0x0
    3cd8:	eb 22                	jmp    3cfc <LEXER+0xa70>
    3cda:	48 8b 45 f0          	mov    rax,QWORD PTR [rbp-0x10]
    3cde:	48 8d 50 01          	lea    rdx,[rax+0x1]
    3ce2:	48 89 55 f0          	mov    QWORD PTR [rbp-0x10],rdx
    3ce6:	8b 55 e0             	mov    edx,DWORD PTR [rbp-0x20]
    3ce9:	8d 4a 01             	lea    ecx,[rdx+0x1]
    3cec:	89 4d e0             	mov    DWORD PTR [rbp-0x20],ecx
    3cef:	0f b6 08             	movzx  ecx,BYTE PTR [rax]
    3cf2:	48 63 c2             	movsxd rax,edx
    3cf5:	88 8c 05 9a fd ff ff 	mov    BYTE PTR [rbp+rax*1-0x266],cl
    3cfc:	e8 8f e4 ff ff       	call   2190 <__ctype_b_loc@plt>
    3d01:	48 8b 10             	mov    rdx,QWORD PTR [rax]
    3d04:	48 8b 45 f0          	mov    rax,QWORD PTR [rbp-0x10]
    3d08:	0f b6 00             	movzx  eax,BYTE PTR [rax]
    3d0b:	48 0f be c0          	movsx  rax,al
    3d0f:	48 01 c0             	add    rax,rax
    3d12:	48 01 d0             	add    rax,rdx
    3d15:	0f b7 00             	movzx  eax,WORD PTR [rax]
    3d18:	0f b7 c0             	movzx  eax,ax
    3d1b:	25 00 20 00 00       	and    eax,0x2000
    3d20:	85 c0                	test   eax,eax
    3d22:	75 16                	jne    3d3a <LEXER+0xaae>
    3d24:	48 8b 45 f0          	mov    rax,QWORD PTR [rbp-0x10]
    3d28:	0f b6 00             	movzx  eax,BYTE PTR [rax]
    3d2b:	84 c0                	test   al,al
    3d2d:	74 0b                	je     3d3a <LEXER+0xaae>
    3d2f:	48 8b 45 f0          	mov    rax,QWORD PTR [rbp-0x10]
    3d33:	0f b6 00             	movzx  eax,BYTE PTR [rax]
    3d36:	3c 2c                	cmp    al,0x2c
    3d38:	75 a0                	jne    3cda <LEXER+0xa4e>
    3d3a:	8b 45 e0             	mov    eax,DWORD PTR [rbp-0x20]
    3d3d:	48 98                	cdqe
    3d3f:	c6 84 05 9a fd ff ff 	mov    BYTE PTR [rbp+rax*1-0x266],0x0
    3d46:	00 
    3d47:	48 8d 85 9a fd ff ff 	lea    rax,[rbp-0x266]
    3d4e:	48 89 c6             	mov    rsi,rax
    3d51:	48 8d 05 e8 b5 00 00 	lea    rax,[rip+0xb5e8]        # f340 <regs8>
    3d58:	48 89 c7             	mov    rdi,rax
    3d5b:	e8 8a e5 ff ff       	call   22ea <is2arrin>
    3d60:	85 c0                	test   eax,eax
    3d62:	75 1d                	jne    3d81 <LEXER+0xaf5>
    3d64:	48 8d 85 9a fd ff ff 	lea    rax,[rbp-0x266]
    3d6b:	48 89 c6             	mov    rsi,rax
    3d6e:	48 8d 05 2b b6 00 00 	lea    rax,[rip+0xb62b]        # f3a0 <regs8GP>
    3d75:	48 89 c7             	mov    rdi,rax
    3d78:	e8 6d e5 ff ff       	call   22ea <is2arrin>
    3d7d:	85 c0                	test   eax,eax
    3d7f:	74 1f                	je     3da0 <LEXER+0xb14>
    3d81:	8b 15 01 b9 00 00    	mov    edx,DWORD PTR [rip+0xb901]        # f688 <line>
    3d87:	48 8d 85 9a fd ff ff 	lea    rax,[rbp-0x266]
    3d8e:	48 89 c6             	mov    rsi,rax
    3d91:	bf 03 00 00 00       	mov    edi,0x3
    3d96:	e8 6e eb ff ff       	call   2909 <add_token>
    3d9b:	e9 3a 01 00 00       	jmp    3eda <LEXER+0xc4e>
    3da0:	48 8d 85 9a fd ff ff 	lea    rax,[rbp-0x266]
    3da7:	48 89 c6             	mov    rsi,rax
    3daa:	48 8d 05 4f b6 00 00 	lea    rax,[rip+0xb64f]        # f400 <regs16>
    3db1:	48 89 c7             	mov    rdi,rax
    3db4:	e8 31 e5 ff ff       	call   22ea <is2arrin>
    3db9:	85 c0                	test   eax,eax
    3dbb:	75 1d                	jne    3dda <LEXER+0xb4e>
    3dbd:	48 8d 85 9a fd ff ff 	lea    rax,[rbp-0x266]
    3dc4:	48 89 c6             	mov    rsi,rax
    3dc7:	48 8d 05 92 b6 00 00 	lea    rax,[rip+0xb692]        # f460 <regs16GP>
    3dce:	48 89 c7             	mov    rdi,rax
    3dd1:	e8 14 e5 ff ff       	call   22ea <is2arrin>
    3dd6:	85 c0                	test   eax,eax
    3dd8:	74 1f                	je     3df9 <LEXER+0xb6d>
    3dda:	8b 15 a8 b8 00 00    	mov    edx,DWORD PTR [rip+0xb8a8]        # f688 <line>
    3de0:	48 8d 85 9a fd ff ff 	lea    rax,[rbp-0x266]
    3de7:	48 89 c6             	mov    rsi,rax
    3dea:	bf 04 00 00 00       	mov    edi,0x4
    3def:	e8 15 eb ff ff       	call   2909 <add_token>
    3df4:	e9 e1 00 00 00       	jmp    3eda <LEXER+0xc4e>
    3df9:	48 8d 85 9a fd ff ff 	lea    rax,[rbp-0x266]
    3e00:	48 89 c6             	mov    rsi,rax
    3e03:	48 8d 05 b6 b6 00 00 	lea    rax,[rip+0xb6b6]        # f4c0 <regs32>
    3e0a:	48 89 c7             	mov    rdi,rax
    3e0d:	e8 d8 e4 ff ff       	call   22ea <is2arrin>
    3e12:	85 c0                	test   eax,eax
    3e14:	75 1d                	jne    3e33 <LEXER+0xba7>
    3e16:	48 8d 85 9a fd ff ff 	lea    rax,[rbp-0x266]
    3e1d:	48 89 c6             	mov    rsi,rax
    3e20:	48 8d 05 f9 b6 00 00 	lea    rax,[rip+0xb6f9]        # f520 <regs32GP>
    3e27:	48 89 c7             	mov    rdi,rax
    3e2a:	e8 bb e4 ff ff       	call   22ea <is2arrin>
    3e2f:	85 c0                	test   eax,eax
    3e31:	74 1f                	je     3e52 <LEXER+0xbc6>
    3e33:	8b 15 4f b8 00 00    	mov    edx,DWORD PTR [rip+0xb84f]        # f688 <line>
    3e39:	48 8d 85 9a fd ff ff 	lea    rax,[rbp-0x266]
    3e40:	48 89 c6             	mov    rsi,rax
    3e43:	bf 05 00 00 00       	mov    edi,0x5
    3e48:	e8 bc ea ff ff       	call   2909 <add_token>
    3e4d:	e9 88 00 00 00       	jmp    3eda <LEXER+0xc4e>
    3e52:	48 8d 85 9a fd ff ff 	lea    rax,[rbp-0x266]
    3e59:	48 89 c6             	mov    rsi,rax
    3e5c:	48 8d 05 1d b7 00 00 	lea    rax,[rip+0xb71d]        # f580 <regs64>
    3e63:	48 89 c7             	mov    rdi,rax
    3e66:	e8 7f e4 ff ff       	call   22ea <is2arrin>
    3e6b:	85 c0                	test   eax,eax
    3e6d:	75 1d                	jne    3e8c <LEXER+0xc00>
    3e6f:	48 8d 85 9a fd ff ff 	lea    rax,[rbp-0x266]
    3e76:	48 89 c6             	mov    rsi,rax
    3e79:	48 8d 05 60 b7 00 00 	lea    rax,[rip+0xb760]        # f5e0 <regs64GP>
    3e80:	48 89 c7             	mov    rdi,rax
    3e83:	e8 62 e4 ff ff       	call   22ea <is2arrin>
    3e88:	85 c0                	test   eax,eax
    3e8a:	74 1c                	je     3ea8 <LEXER+0xc1c>
    3e8c:	8b 15 f6 b7 00 00    	mov    edx,DWORD PTR [rip+0xb7f6]        # f688 <line>
    3e92:	48 8d 85 9a fd ff ff 	lea    rax,[rbp-0x266]
    3e99:	48 89 c6             	mov    rsi,rax
    3e9c:	bf 06 00 00 00       	mov    edi,0x6
    3ea1:	e8 63 ea ff ff       	call   2909 <add_token>
    3ea6:	eb 32                	jmp    3eda <LEXER+0xc4e>
    3ea8:	8b 0d da b7 00 00    	mov    ecx,DWORD PTR [rip+0xb7da]        # f688 <line>
    3eae:	48 8b 05 ab b7 00 00 	mov    rax,QWORD PTR [rip+0xb7ab]        # f660 <stderr@GLIBC_2.2.5>
    3eb5:	48 8d 95 9a fd ff ff 	lea    rdx,[rbp-0x266]
    3ebc:	48 8d 35 f5 86 00 00 	lea    rsi,[rip+0x86f5]        # c5b8 <_IO_stdin_used+0x5b8>
    3ec3:	48 89 c7             	mov    rdi,rax
    3ec6:	b8 00 00 00 00       	mov    eax,0x0
    3ecb:	e8 30 e2 ff ff       	call   2100 <fprintf@plt>
    3ed0:	bf 01 00 00 00       	mov    edi,0x1
    3ed5:	e8 86 e2 ff ff       	call   2160 <exit@plt>
    3eda:	90                   	nop
    3edb:	e9 aa 0b 00 00       	jmp    4a8a <LEXER+0x17fe>
    3ee0:	e8 ab e2 ff ff       	call   2190 <__ctype_b_loc@plt>
    3ee5:	48 8b 10             	mov    rdx,QWORD PTR [rax]
    3ee8:	48 8b 45 f0          	mov    rax,QWORD PTR [rbp-0x10]
    3eec:	0f b6 00             	movzx  eax,BYTE PTR [rax]
    3eef:	48 0f be c0          	movsx  rax,al
    3ef3:	48 01 c0             	add    rax,rax
    3ef6:	48 01 d0             	add    rax,rdx
    3ef9:	0f b7 00             	movzx  eax,WORD PTR [rax]
    3efc:	0f b7 c0             	movzx  eax,ax
    3eff:	25 00 08 00 00       	and    eax,0x800
    3f04:	85 c0                	test   eax,eax
    3f06:	75 0f                	jne    3f17 <LEXER+0xc8b>
    3f08:	48 8b 45 f0          	mov    rax,QWORD PTR [rbp-0x10]
    3f0c:	0f b6 00             	movzx  eax,BYTE PTR [rax]
    3f0f:	3c 2d                	cmp    al,0x2d
    3f11:	0f 85 69 02 00 00    	jne    4180 <LEXER+0xef4>
    3f17:	48 c7 85 80 fb ff ff 	mov    QWORD PTR [rbp-0x480],0x0
    3f1e:	00 00 00 00 
    3f22:	48 c7 85 88 fb ff ff 	mov    QWORD PTR [rbp-0x478],0x0
    3f29:	00 00 00 00 
    3f2d:	48 c7 85 90 fb ff ff 	mov    QWORD PTR [rbp-0x470],0x0
    3f34:	00 00 00 00 
    3f38:	48 c7 85 98 fb ff ff 	mov    QWORD PTR [rbp-0x468],0x0
    3f3f:	00 00 00 00 
    3f43:	48 c7 85 a0 fb ff ff 	mov    QWORD PTR [rbp-0x460],0x0
    3f4a:	00 00 00 00 
    3f4e:	48 c7 85 a8 fb ff ff 	mov    QWORD PTR [rbp-0x458],0x0
    3f55:	00 00 00 00 
    3f59:	48 c7 85 b0 fb ff ff 	mov    QWORD PTR [rbp-0x450],0x0
    3f60:	00 00 00 00 
    3f64:	48 c7 85 b8 fb ff ff 	mov    QWORD PTR [rbp-0x448],0x0
    3f6b:	00 00 00 00 
    3f6f:	48 c7 85 c0 fb ff ff 	mov    QWORD PTR [rbp-0x440],0x0
    3f76:	00 00 00 00 
    3f7a:	48 c7 85 c8 fb ff ff 	mov    QWORD PTR [rbp-0x438],0x0
    3f81:	00 00 00 00 
    3f85:	48 c7 85 d0 fb ff ff 	mov    QWORD PTR [rbp-0x430],0x0
    3f8c:	00 00 00 00 
    3f90:	48 c7 85 d8 fb ff ff 	mov    QWORD PTR [rbp-0x428],0x0
    3f97:	00 00 00 00 
    3f9b:	48 c7 85 e0 fb ff ff 	mov    QWORD PTR [rbp-0x420],0x0
    3fa2:	00 00 00 00 
    3fa6:	48 c7 85 e8 fb ff ff 	mov    QWORD PTR [rbp-0x418],0x0
    3fad:	00 00 00 00 
    3fb1:	48 c7 85 f0 fb ff ff 	mov    QWORD PTR [rbp-0x410],0x0
    3fb8:	00 00 00 00 
    3fbc:	48 c7 85 f8 fb ff ff 	mov    QWORD PTR [rbp-0x408],0x0
    3fc3:	00 00 00 00 
    3fc7:	c7 45 dc 00 00 00 00 	mov    DWORD PTR [rbp-0x24],0x0
    3fce:	eb 24                	jmp    3ff4 <LEXER+0xd68>
    3fd0:	83 7d dc 7e          	cmp    DWORD PTR [rbp-0x24],0x7e
    3fd4:	7f 19                	jg     3fef <LEXER+0xd63>
    3fd6:	8b 45 dc             	mov    eax,DWORD PTR [rbp-0x24]
    3fd9:	8d 50 01             	lea    edx,[rax+0x1]
    3fdc:	89 55 dc             	mov    DWORD PTR [rbp-0x24],edx
    3fdf:	48 8b 55 f0          	mov    rdx,QWORD PTR [rbp-0x10]
    3fe3:	0f b6 12             	movzx  edx,BYTE PTR [rdx]
    3fe6:	48 98                	cdqe
    3fe8:	88 94 05 80 fb ff ff 	mov    BYTE PTR [rbp+rax*1-0x480],dl
    3fef:	48 83 45 f0 01       	add    QWORD PTR [rbp-0x10],0x1
    3ff4:	48 8b 45 f0          	mov    rax,QWORD PTR [rbp-0x10]
    3ff8:	0f b6 00             	movzx  eax,BYTE PTR [rax]
    3ffb:	84 c0                	test   al,al
    3ffd:	0f 84 16 01 00 00    	je     4119 <LEXER+0xe8d>
    4003:	e8 88 e1 ff ff       	call   2190 <__ctype_b_loc@plt>
    4008:	48 8b 10             	mov    rdx,QWORD PTR [rax]
    400b:	48 8b 45 f0          	mov    rax,QWORD PTR [rbp-0x10]
    400f:	0f b6 00             	movzx  eax,BYTE PTR [rax]
    4012:	48 0f be c0          	movsx  rax,al
    4016:	48 01 c0             	add    rax,rax
    4019:	48 01 d0             	add    rax,rdx
    401c:	0f b7 00             	movzx  eax,WORD PTR [rax]
    401f:	0f b7 c0             	movzx  eax,ax
    4022:	25 00 08 00 00       	and    eax,0x800
    4027:	85 c0                	test   eax,eax
    4029:	75 a5                	jne    3fd0 <LEXER+0xd44>
    402b:	e8 60 e1 ff ff       	call   2190 <__ctype_b_loc@plt>
    4030:	48 8b 10             	mov    rdx,QWORD PTR [rax]
    4033:	48 8b 45 f0          	mov    rax,QWORD PTR [rbp-0x10]
    4037:	0f b6 00             	movzx  eax,BYTE PTR [rax]
    403a:	48 0f be c0          	movsx  rax,al
    403e:	48 01 c0             	add    rax,rax
    4041:	48 01 d0             	add    rax,rdx
    4044:	0f b7 00             	movzx  eax,WORD PTR [rax]
    4047:	0f b7 c0             	movzx  eax,ax
    404a:	25 00 10 00 00       	and    eax,0x1000
    404f:	85 c0                	test   eax,eax
    4051:	0f 85 79 ff ff ff    	jne    3fd0 <LEXER+0xd44>
    4057:	48 8b 45 f0          	mov    rax,QWORD PTR [rbp-0x10]
    405b:	0f b6 00             	movzx  eax,BYTE PTR [rax]
    405e:	3c 2b                	cmp    al,0x2b
    4060:	0f 84 6a ff ff ff    	je     3fd0 <LEXER+0xd44>
    4066:	48 8b 45 f0          	mov    rax,QWORD PTR [rbp-0x10]
    406a:	0f b6 00             	movzx  eax,BYTE PTR [rax]
    406d:	3c 2d                	cmp    al,0x2d
    406f:	0f 84 5b ff ff ff    	je     3fd0 <LEXER+0xd44>
    4075:	48 8b 45 f0          	mov    rax,QWORD PTR [rbp-0x10]
    4079:	0f b6 00             	movzx  eax,BYTE PTR [rax]
    407c:	3c 2a                	cmp    al,0x2a
    407e:	0f 84 4c ff ff ff    	je     3fd0 <LEXER+0xd44>
    4084:	48 8b 45 f0          	mov    rax,QWORD PTR [rbp-0x10]
    4088:	0f b6 00             	movzx  eax,BYTE PTR [rax]
    408b:	3c 2f                	cmp    al,0x2f
    408d:	0f 84 3d ff ff ff    	je     3fd0 <LEXER+0xd44>
    4093:	48 8b 45 f0          	mov    rax,QWORD PTR [rbp-0x10]
    4097:	0f b6 00             	movzx  eax,BYTE PTR [rax]
    409a:	3c 78                	cmp    al,0x78
    409c:	0f 84 2e ff ff ff    	je     3fd0 <LEXER+0xd44>
    40a2:	48 8b 45 f0          	mov    rax,QWORD PTR [rbp-0x10]
    40a6:	0f b6 00             	movzx  eax,BYTE PTR [rax]
    40a9:	3c 58                	cmp    al,0x58
    40ab:	0f 84 1f ff ff ff    	je     3fd0 <LEXER+0xd44>
    40b1:	48 8b 45 f0          	mov    rax,QWORD PTR [rbp-0x10]
    40b5:	0f b6 00             	movzx  eax,BYTE PTR [rax]
    40b8:	3c 6f                	cmp    al,0x6f
    40ba:	0f 84 10 ff ff ff    	je     3fd0 <LEXER+0xd44>
    40c0:	48 8b 45 f0          	mov    rax,QWORD PTR [rbp-0x10]
    40c4:	0f b6 00             	movzx  eax,BYTE PTR [rax]
    40c7:	3c 4f                	cmp    al,0x4f
    40c9:	0f 84 01 ff ff ff    	je     3fd0 <LEXER+0xd44>
    40cf:	48 8b 45 f0          	mov    rax,QWORD PTR [rbp-0x10]
    40d3:	0f b6 00             	movzx  eax,BYTE PTR [rax]
    40d6:	3c 62                	cmp    al,0x62
    40d8:	0f 84 f2 fe ff ff    	je     3fd0 <LEXER+0xd44>
    40de:	48 8b 45 f0          	mov    rax,QWORD PTR [rbp-0x10]
    40e2:	0f b6 00             	movzx  eax,BYTE PTR [rax]
    40e5:	3c 42                	cmp    al,0x42
    40e7:	0f 84 e3 fe ff ff    	je     3fd0 <LEXER+0xd44>
    40ed:	e8 9e e0 ff ff       	call   2190 <__ctype_b_loc@plt>
    40f2:	48 8b 10             	mov    rdx,QWORD PTR [rax]
    40f5:	48 8b 45 f0          	mov    rax,QWORD PTR [rbp-0x10]
    40f9:	0f b6 00             	movzx  eax,BYTE PTR [rax]
    40fc:	48 0f be c0          	movsx  rax,al
    4100:	48 01 c0             	add    rax,rax
    4103:	48 01 d0             	add    rax,rdx
    4106:	0f b7 00             	movzx  eax,WORD PTR [rax]
    4109:	0f b7 c0             	movzx  eax,ax
    410c:	25 00 20 00 00       	and    eax,0x2000
    4111:	85 c0                	test   eax,eax
    4113:	0f 85 b7 fe ff ff    	jne    3fd0 <LEXER+0xd44>
    4119:	8b 45 dc             	mov    eax,DWORD PTR [rbp-0x24]
    411c:	48 98                	cdqe
    411e:	c6 84 05 80 fb ff ff 	mov    BYTE PTR [rbp+rax*1-0x480],0x0
    4125:	00 
    4126:	48 8d 85 80 fb ff ff 	lea    rax,[rbp-0x480]
    412d:	48 89 c7             	mov    rdi,rax
    4130:	e8 b6 e7 ff ff       	call   28eb <eval_expr>
    4135:	48 89 45 c0          	mov    QWORD PTR [rbp-0x40],rax
    4139:	48 8b 55 c0          	mov    rdx,QWORD PTR [rbp-0x40]
    413d:	48 8d 85 80 fa ff ff 	lea    rax,[rbp-0x580]
    4144:	48 89 d1             	mov    rcx,rdx
    4147:	48 8d 15 92 84 00 00 	lea    rdx,[rip+0x8492]        # c5e0 <_IO_stdin_used+0x5e0>
    414e:	be 20 00 00 00       	mov    esi,0x20
    4153:	48 89 c7             	mov    rdi,rax
    4156:	b8 00 00 00 00       	mov    eax,0x0
    415b:	e8 50 df ff ff       	call   20b0 <snprintf@plt>
    4160:	8b 15 22 b5 00 00    	mov    edx,DWORD PTR [rip+0xb522]        # f688 <line>
    4166:	48 8d 85 80 fa ff ff 	lea    rax,[rbp-0x580]
    416d:	48 89 c6             	mov    rsi,rax
    4170:	bf 01 00 00 00       	mov    edi,0x1
    4175:	e8 8f e7 ff ff       	call   2909 <add_token>
    417a:	90                   	nop
    417b:	e9 0a 09 00 00       	jmp    4a8a <LEXER+0x17fe>
    4180:	48 8b 45 f0          	mov    rax,QWORD PTR [rbp-0x10]
    4184:	0f b6 00             	movzx  eax,BYTE PTR [rax]
    4187:	3c 22                	cmp    al,0x22
    4189:	0f 85 e3 01 00 00    	jne    4372 <LEXER+0x10e6>
    418f:	48 83 45 f0 01       	add    QWORD PTR [rbp-0x10],0x1
    4194:	48 c7 85 80 fb ff ff 	mov    QWORD PTR [rbp-0x480],0x0
    419b:	00 00 00 00 
    419f:	48 c7 85 88 fb ff ff 	mov    QWORD PTR [rbp-0x478],0x0
    41a6:	00 00 00 00 
    41aa:	48 c7 85 90 fb ff ff 	mov    QWORD PTR [rbp-0x470],0x0
    41b1:	00 00 00 00 
    41b5:	48 c7 85 98 fb ff ff 	mov    QWORD PTR [rbp-0x468],0x0
    41bc:	00 00 00 00 
    41c0:	48 c7 85 a0 fb ff ff 	mov    QWORD PTR [rbp-0x460],0x0
    41c7:	00 00 00 00 
    41cb:	48 c7 85 a8 fb ff ff 	mov    QWORD PTR [rbp-0x458],0x0
    41d2:	00 00 00 00 
    41d6:	48 c7 85 b0 fb ff ff 	mov    QWORD PTR [rbp-0x450],0x0
    41dd:	00 00 00 00 
    41e1:	48 c7 85 b8 fb ff ff 	mov    QWORD PTR [rbp-0x448],0x0
    41e8:	00 00 00 00 
    41ec:	48 c7 85 c0 fb ff ff 	mov    QWORD PTR [rbp-0x440],0x0
    41f3:	00 00 00 00 
    41f7:	48 c7 85 c8 fb ff ff 	mov    QWORD PTR [rbp-0x438],0x0
    41fe:	00 00 00 00 
    4202:	48 c7 85 d0 fb ff ff 	mov    QWORD PTR [rbp-0x430],0x0
    4209:	00 00 00 00 
    420d:	48 c7 85 d8 fb ff ff 	mov    QWORD PTR [rbp-0x428],0x0
    4214:	00 00 00 00 
    4218:	48 c7 85 e0 fb ff ff 	mov    QWORD PTR [rbp-0x420],0x0
    421f:	00 00 00 00 
    4223:	48 c7 85 e8 fb ff ff 	mov    QWORD PTR [rbp-0x418],0x0
    422a:	00 00 00 00 
    422e:	48 c7 85 f0 fb ff ff 	mov    QWORD PTR [rbp-0x410],0x0
    4235:	00 00 00 00 
    4239:	48 c7 85 f8 fb ff ff 	mov    QWORD PTR [rbp-0x408],0x0
    4240:	00 00 00 00 
    4244:	48 c7 85 00 fc ff ff 	mov    QWORD PTR [rbp-0x400],0x0
    424b:	00 00 00 00 
    424f:	48 c7 85 08 fc ff ff 	mov    QWORD PTR [rbp-0x3f8],0x0
    4256:	00 00 00 00 
    425a:	48 c7 85 10 fc ff ff 	mov    QWORD PTR [rbp-0x3f0],0x0
    4261:	00 00 00 00 
    4265:	48 c7 85 18 fc ff ff 	mov    QWORD PTR [rbp-0x3e8],0x0
    426c:	00 00 00 00 
    4270:	48 c7 85 20 fc ff ff 	mov    QWORD PTR [rbp-0x3e0],0x0
    4277:	00 00 00 00 
    427b:	48 c7 85 28 fc ff ff 	mov    QWORD PTR [rbp-0x3d8],0x0
    4282:	00 00 00 00 
    4286:	48 c7 85 30 fc ff ff 	mov    QWORD PTR [rbp-0x3d0],0x0
    428d:	00 00 00 00 
    4291:	48 c7 85 38 fc ff ff 	mov    QWORD PTR [rbp-0x3c8],0x0
    4298:	00 00 00 00 
    429c:	48 c7 85 40 fc ff ff 	mov    QWORD PTR [rbp-0x3c0],0x0
    42a3:	00 00 00 00 
    42a7:	48 c7 85 48 fc ff ff 	mov    QWORD PTR [rbp-0x3b8],0x0
    42ae:	00 00 00 00 
    42b2:	48 c7 85 50 fc ff ff 	mov    QWORD PTR [rbp-0x3b0],0x0
    42b9:	00 00 00 00 
    42bd:	48 c7 85 58 fc ff ff 	mov    QWORD PTR [rbp-0x3a8],0x0
    42c4:	00 00 00 00 
    42c8:	48 c7 85 60 fc ff ff 	mov    QWORD PTR [rbp-0x3a0],0x0
    42cf:	00 00 00 00 
    42d3:	48 c7 85 68 fc ff ff 	mov    QWORD PTR [rbp-0x398],0x0
    42da:	00 00 00 00 
    42de:	48 c7 85 70 fc ff ff 	mov    QWORD PTR [rbp-0x390],0x0
    42e5:	00 00 00 00 
    42e9:	48 c7 85 78 fc ff ff 	mov    QWORD PTR [rbp-0x388],0x0
    42f0:	00 00 00 00 
    42f4:	8b 15 8e b3 00 00    	mov    edx,DWORD PTR [rip+0xb38e]        # f688 <line>
    42fa:	48 8d 8d 80 fb ff ff 	lea    rcx,[rbp-0x480]
    4301:	48 8b 45 f0          	mov    rax,QWORD PTR [rbp-0x10]
    4305:	48 89 ce             	mov    rsi,rcx
    4308:	48 89 c7             	mov    rdi,rax
    430b:	e8 aa ec ff ff       	call   2fba <read_string>
    4310:	48 89 45 f0          	mov    QWORD PTR [rbp-0x10],rax
    4314:	48 8b 45 f0          	mov    rax,QWORD PTR [rbp-0x10]
    4318:	0f b6 00             	movzx  eax,BYTE PTR [rax]
    431b:	3c 22                	cmp    al,0x22
    431d:	74 2e                	je     434d <LEXER+0x10c1>
    431f:	8b 15 63 b3 00 00    	mov    edx,DWORD PTR [rip+0xb363]        # f688 <line>
    4325:	48 8b 05 34 b3 00 00 	mov    rax,QWORD PTR [rip+0xb334]        # f660 <stderr@GLIBC_2.2.5>
    432c:	48 8d 0d b5 82 00 00 	lea    rcx,[rip+0x82b5]        # c5e8 <_IO_stdin_used+0x5e8>
    4333:	48 89 ce             	mov    rsi,rcx
    4336:	48 89 c7             	mov    rdi,rax
    4339:	b8 00 00 00 00       	mov    eax,0x0
    433e:	e8 bd dd ff ff       	call   2100 <fprintf@plt>
    4343:	bf 01 00 00 00       	mov    edi,0x1
    4348:	e8 13 de ff ff       	call   2160 <exit@plt>
    434d:	48 83 45 f0 01       	add    QWORD PTR [rbp-0x10],0x1
    4352:	8b 15 30 b3 00 00    	mov    edx,DWORD PTR [rip+0xb330]        # f688 <line>
    4358:	48 8d 85 80 fb ff ff 	lea    rax,[rbp-0x480]
    435f:	48 89 c6             	mov    rsi,rax
    4362:	bf 0b 00 00 00       	mov    edi,0xb
    4367:	e8 9d e5 ff ff       	call   2909 <add_token>
    436c:	90                   	nop
    436d:	e9 18 07 00 00       	jmp    4a8a <LEXER+0x17fe>
    4372:	48 8b 45 f0          	mov    rax,QWORD PTR [rbp-0x10]
    4376:	0f b6 00             	movzx  eax,BYTE PTR [rax]
    4379:	3c 27                	cmp    al,0x27
    437b:	0f 85 41 01 00 00    	jne    44c2 <LEXER+0x1236>
    4381:	48 83 45 f0 01       	add    QWORD PTR [rbp-0x10],0x1
    4386:	48 8b 45 f0          	mov    rax,QWORD PTR [rbp-0x10]
    438a:	0f b6 00             	movzx  eax,BYTE PTR [rax]
    438d:	3c 5c                	cmp    al,0x5c
    438f:	0f 85 ac 00 00 00    	jne    4441 <LEXER+0x11b5>
    4395:	48 83 45 f0 01       	add    QWORD PTR [rbp-0x10],0x1
    439a:	48 8b 45 f0          	mov    rax,QWORD PTR [rbp-0x10]
    439e:	0f b6 00             	movzx  eax,BYTE PTR [rax]
    43a1:	0f be c0             	movsx  eax,al
    43a4:	83 f8 74             	cmp    eax,0x74
    43a7:	74 45                	je     43ee <LEXER+0x1162>
    43a9:	83 f8 74             	cmp    eax,0x74
    43ac:	7f 5e                	jg     440c <LEXER+0x1180>
    43ae:	83 f8 72             	cmp    eax,0x72
    43b1:	74 35                	je     43e8 <LEXER+0x115c>
    43b3:	83 f8 72             	cmp    eax,0x72
    43b6:	7f 54                	jg     440c <LEXER+0x1180>
    43b8:	83 f8 6e             	cmp    eax,0x6e
    43bb:	74 25                	je     43e2 <LEXER+0x1156>
    43bd:	83 f8 6e             	cmp    eax,0x6e
    43c0:	7f 4a                	jg     440c <LEXER+0x1180>
    43c2:	83 f8 5c             	cmp    eax,0x5c
    43c5:	74 33                	je     43fa <LEXER+0x116e>
    43c7:	83 f8 5c             	cmp    eax,0x5c
    43ca:	7f 40                	jg     440c <LEXER+0x1180>
    43cc:	83 f8 30             	cmp    eax,0x30
    43cf:	74 23                	je     43f4 <LEXER+0x1168>
    43d1:	83 f8 30             	cmp    eax,0x30
    43d4:	7f 36                	jg     440c <LEXER+0x1180>
    43d6:	83 f8 22             	cmp    eax,0x22
    43d9:	74 25                	je     4400 <LEXER+0x1174>
    43db:	83 f8 27             	cmp    eax,0x27
    43de:	74 26                	je     4406 <LEXER+0x117a>
    43e0:	eb 2a                	jmp    440c <LEXER+0x1180>
    43e2:	c6 45 db 0a          	mov    BYTE PTR [rbp-0x25],0xa
    43e6:	eb 52                	jmp    443a <LEXER+0x11ae>
    43e8:	c6 45 db 0d          	mov    BYTE PTR [rbp-0x25],0xd
    43ec:	eb 4c                	jmp    443a <LEXER+0x11ae>
    43ee:	c6 45 db 09          	mov    BYTE PTR [rbp-0x25],0x9
    43f2:	eb 46                	jmp    443a <LEXER+0x11ae>
    43f4:	c6 45 db 00          	mov    BYTE PTR [rbp-0x25],0x0
    43f8:	eb 40                	jmp    443a <LEXER+0x11ae>
    43fa:	c6 45 db 5c          	mov    BYTE PTR [rbp-0x25],0x5c
    43fe:	eb 3a                	jmp    443a <LEXER+0x11ae>
    4400:	c6 45 db 22          	mov    BYTE PTR [rbp-0x25],0x22
    4404:	eb 34                	jmp    443a <LEXER+0x11ae>
    4406:	c6 45 db 27          	mov    BYTE PTR [rbp-0x25],0x27
    440a:	eb 2e                	jmp    443a <LEXER+0x11ae>
    440c:	8b 15 76 b2 00 00    	mov    edx,DWORD PTR [rip+0xb276]        # f688 <line>
    4412:	48 8b 05 47 b2 00 00 	mov    rax,QWORD PTR [rip+0xb247]        # f660 <stderr@GLIBC_2.2.5>
    4419:	48 8d 0d f8 81 00 00 	lea    rcx,[rip+0x81f8]        # c618 <_IO_stdin_used+0x618>
    4420:	48 89 ce             	mov    rsi,rcx
    4423:	48 89 c7             	mov    rdi,rax
    4426:	b8 00 00 00 00       	mov    eax,0x0
    442b:	e8 d0 dc ff ff       	call   2100 <fprintf@plt>
    4430:	bf 01 00 00 00       	mov    edi,0x1
    4435:	e8 26 dd ff ff       	call   2160 <exit@plt>
    443a:	48 83 45 f0 01       	add    QWORD PTR [rbp-0x10],0x1
    443f:	eb 12                	jmp    4453 <LEXER+0x11c7>
    4441:	48 8b 45 f0          	mov    rax,QWORD PTR [rbp-0x10]
    4445:	48 8d 50 01          	lea    rdx,[rax+0x1]
    4449:	48 89 55 f0          	mov    QWORD PTR [rbp-0x10],rdx
    444d:	0f b6 00             	movzx  eax,BYTE PTR [rax]
    4450:	88 45 db             	mov    BYTE PTR [rbp-0x25],al
    4453:	48 8b 45 f0          	mov    rax,QWORD PTR [rbp-0x10]
    4457:	0f b6 00             	movzx  eax,BYTE PTR [rax]
    445a:	3c 27                	cmp    al,0x27
    445c:	74 2e                	je     448c <LEXER+0x1200>
    445e:	8b 15 24 b2 00 00    	mov    edx,DWORD PTR [rip+0xb224]        # f688 <line>
    4464:	48 8b 05 f5 b1 00 00 	mov    rax,QWORD PTR [rip+0xb1f5]        # f660 <stderr@GLIBC_2.2.5>
    446b:	48 8d 0d d6 81 00 00 	lea    rcx,[rip+0x81d6]        # c648 <_IO_stdin_used+0x648>
    4472:	48 89 ce             	mov    rsi,rcx
    4475:	48 89 c7             	mov    rdi,rax
    4478:	b8 00 00 00 00       	mov    eax,0x0
    447d:	e8 7e dc ff ff       	call   2100 <fprintf@plt>
    4482:	bf 01 00 00 00       	mov    edi,0x1
    4487:	e8 d4 dc ff ff       	call   2160 <exit@plt>
    448c:	48 83 45 f0 01       	add    QWORD PTR [rbp-0x10],0x1
    4491:	0f b6 45 db          	movzx  eax,BYTE PTR [rbp-0x25]
    4495:	88 85 98 fd ff ff    	mov    BYTE PTR [rbp-0x268],al
    449b:	c6 85 99 fd ff ff 00 	mov    BYTE PTR [rbp-0x267],0x0
    44a2:	8b 15 e0 b1 00 00    	mov    edx,DWORD PTR [rip+0xb1e0]        # f688 <line>
    44a8:	48 8d 85 98 fd ff ff 	lea    rax,[rbp-0x268]
    44af:	48 89 c6             	mov    rsi,rax
    44b2:	bf 17 00 00 00       	mov    edi,0x17
    44b7:	e8 4d e4 ff ff       	call   2909 <add_token>
    44bc:	90                   	nop
    44bd:	e9 c8 05 00 00       	jmp    4a8a <LEXER+0x17fe>
    44c2:	48 8b 45 f0          	mov    rax,QWORD PTR [rbp-0x10]
    44c6:	0f b6 00             	movzx  eax,BYTE PTR [rax]
    44c9:	3c 5b                	cmp    al,0x5b
    44cb:	0f 85 9e 02 00 00    	jne    476f <LEXER+0x14e3>
    44d1:	48 83 45 f0 01       	add    QWORD PTR [rbp-0x10],0x1
    44d6:	48 c7 85 80 fa ff ff 	mov    QWORD PTR [rbp-0x580],0x0
    44dd:	00 00 00 00 
    44e1:	48 c7 85 88 fa ff ff 	mov    QWORD PTR [rbp-0x578],0x0
    44e8:	00 00 00 00 
    44ec:	48 c7 85 90 fa ff ff 	mov    QWORD PTR [rbp-0x570],0x0
    44f3:	00 00 00 00 
    44f7:	48 c7 85 98 fa ff ff 	mov    QWORD PTR [rbp-0x568],0x0
    44fe:	00 00 00 00 
    4502:	48 c7 85 a0 fa ff ff 	mov    QWORD PTR [rbp-0x560],0x0
    4509:	00 00 00 00 
    450d:	48 c7 85 a8 fa ff ff 	mov    QWORD PTR [rbp-0x558],0x0
    4514:	00 00 00 00 
    4518:	48 c7 85 b0 fa ff ff 	mov    QWORD PTR [rbp-0x550],0x0
    451f:	00 00 00 00 
    4523:	48 c7 85 b8 fa ff ff 	mov    QWORD PTR [rbp-0x548],0x0
    452a:	00 00 00 00 
    452e:	48 c7 85 c0 fa ff ff 	mov    QWORD PTR [rbp-0x540],0x0
    4535:	00 00 00 00 
    4539:	48 c7 85 c8 fa ff ff 	mov    QWORD PTR [rbp-0x538],0x0
    4540:	00 00 00 00 
    4544:	48 c7 85 d0 fa ff ff 	mov    QWORD PTR [rbp-0x530],0x0
    454b:	00 00 00 00 
    454f:	48 c7 85 d8 fa ff ff 	mov    QWORD PTR [rbp-0x528],0x0
    4556:	00 00 00 00 
    455a:	48 c7 85 e0 fa ff ff 	mov    QWORD PTR [rbp-0x520],0x0
    4561:	00 00 00 00 
    4565:	48 c7 85 e8 fa ff ff 	mov    QWORD PTR [rbp-0x518],0x0
    456c:	00 00 00 00 
    4570:	48 c7 85 f0 fa ff ff 	mov    QWORD PTR [rbp-0x510],0x0
    4577:	00 00 00 00 
    457b:	48 c7 85 f8 fa ff ff 	mov    QWORD PTR [rbp-0x508],0x0
    4582:	00 00 00 00 
    4586:	c7 45 d4 00 00 00 00 	mov    DWORD PTR [rbp-0x2c],0x0
    458d:	eb 28                	jmp    45b7 <LEXER+0x132b>
    458f:	83 7d d4 7e          	cmp    DWORD PTR [rbp-0x2c],0x7e
    4593:	7f 22                	jg     45b7 <LEXER+0x132b>
    4595:	48 8b 45 f0          	mov    rax,QWORD PTR [rbp-0x10]
    4599:	48 8d 50 01          	lea    rdx,[rax+0x1]
    459d:	48 89 55 f0          	mov    QWORD PTR [rbp-0x10],rdx
    45a1:	8b 55 d4             	mov    edx,DWORD PTR [rbp-0x2c]
    45a4:	8d 4a 01             	lea    ecx,[rdx+0x1]
    45a7:	89 4d d4             	mov    DWORD PTR [rbp-0x2c],ecx
    45aa:	0f b6 08             	movzx  ecx,BYTE PTR [rax]
    45ad:	48 63 c2             	movsxd rax,edx
    45b0:	88 8c 05 80 fa ff ff 	mov    BYTE PTR [rbp+rax*1-0x580],cl
    45b7:	48 8b 45 f0          	mov    rax,QWORD PTR [rbp-0x10]
    45bb:	0f b6 00             	movzx  eax,BYTE PTR [rax]
    45be:	84 c0                	test   al,al
    45c0:	74 0b                	je     45cd <LEXER+0x1341>
    45c2:	48 8b 45 f0          	mov    rax,QWORD PTR [rbp-0x10]
    45c6:	0f b6 00             	movzx  eax,BYTE PTR [rax]
    45c9:	3c 5d                	cmp    al,0x5d
    45cb:	75 c2                	jne    458f <LEXER+0x1303>
    45cd:	48 8b 45 f0          	mov    rax,QWORD PTR [rbp-0x10]
    45d1:	0f b6 00             	movzx  eax,BYTE PTR [rax]
    45d4:	3c 5d                	cmp    al,0x5d
    45d6:	0f 85 d5 00 00 00    	jne    46b1 <LEXER+0x1425>
    45dc:	48 83 45 f0 01       	add    QWORD PTR [rbp-0x10],0x1
    45e1:	8b 45 d4             	mov    eax,DWORD PTR [rbp-0x2c]
    45e4:	48 98                	cdqe
    45e6:	c6 84 05 80 fa ff ff 	mov    BYTE PTR [rbp+rax*1-0x580],0x0
    45ed:	00 
    45ee:	48 c7 85 80 fb ff ff 	mov    QWORD PTR [rbp-0x480],0x0
    45f5:	00 00 00 00 
    45f9:	48 c7 85 88 fb ff ff 	mov    QWORD PTR [rbp-0x478],0x0
    4600:	00 00 00 00 
    4604:	48 c7 85 90 fb ff ff 	mov    QWORD PTR [rbp-0x470],0x0
    460b:	00 00 00 00 
    460f:	48 c7 85 98 fb ff ff 	mov    QWORD PTR [rbp-0x468],0x0
    4616:	00 00 00 00 
    461a:	48 c7 85 a0 fb ff ff 	mov    QWORD PTR [rbp-0x460],0x0
    4621:	00 00 00 00 
    4625:	48 c7 85 a8 fb ff ff 	mov    QWORD PTR [rbp-0x458],0x0
    462c:	00 00 00 00 
    4630:	48 c7 85 b0 fb ff ff 	mov    QWORD PTR [rbp-0x450],0x0
    4637:	00 00 00 00 
    463b:	48 c7 85 b8 fb ff ff 	mov    QWORD PTR [rbp-0x448],0x0
    4642:	00 00 00 00 
    4646:	48 c7 85 c0 fb ff ff 	mov    QWORD PTR [rbp-0x440],0x0
    464d:	00 00 00 00 
    4651:	48 c7 85 c8 fb ff ff 	mov    QWORD PTR [rbp-0x438],0x0
    4658:	00 00 00 00 
    465c:	48 c7 85 d0 fb ff ff 	mov    QWORD PTR [rbp-0x430],0x0
    4663:	00 00 00 00 
    4667:	48 c7 85 d8 fb ff ff 	mov    QWORD PTR [rbp-0x428],0x0
    466e:	00 00 00 00 
    4672:	48 c7 85 e0 fb ff ff 	mov    QWORD PTR [rbp-0x420],0x0
    4679:	00 00 00 00 
    467d:	48 c7 85 e8 fb ff ff 	mov    QWORD PTR [rbp-0x418],0x0
    4684:	00 00 00 00 
    4688:	48 c7 85 f0 fb ff ff 	mov    QWORD PTR [rbp-0x410],0x0
    468f:	00 00 00 00 
    4693:	48 c7 85 f8 fb ff ff 	mov    QWORD PTR [rbp-0x408],0x0
    469a:	00 00 00 00 
    469e:	c7 45 d0 00 00 00 00 	mov    DWORD PTR [rbp-0x30],0x0
    46a5:	c7 45 cc 00 00 00 00 	mov    DWORD PTR [rbp-0x34],0x0
    46ac:	e9 80 00 00 00       	jmp    4731 <LEXER+0x14a5>
    46b1:	8b 15 d1 af 00 00    	mov    edx,DWORD PTR [rip+0xafd1]        # f688 <line>
    46b7:	48 8b 05 a2 af 00 00 	mov    rax,QWORD PTR [rip+0xafa2]        # f660 <stderr@GLIBC_2.2.5>
    46be:	48 8d 0d bb 7f 00 00 	lea    rcx,[rip+0x7fbb]        # c680 <_IO_stdin_used+0x680>
    46c5:	48 89 ce             	mov    rsi,rcx
    46c8:	48 89 c7             	mov    rdi,rax
    46cb:	b8 00 00 00 00       	mov    eax,0x0
    46d0:	e8 2b da ff ff       	call   2100 <fprintf@plt>
    46d5:	bf 01 00 00 00       	mov    edi,0x1
    46da:	e8 81 da ff ff       	call   2160 <exit@plt>
    46df:	e8 ac da ff ff       	call   2190 <__ctype_b_loc@plt>
    46e4:	48 8b 10             	mov    rdx,QWORD PTR [rax]
    46e7:	8b 45 cc             	mov    eax,DWORD PTR [rbp-0x34]
    46ea:	48 98                	cdqe
    46ec:	0f b6 84 05 80 fa ff 	movzx  eax,BYTE PTR [rbp+rax*1-0x580]
    46f3:	ff 
    46f4:	48 0f be c0          	movsx  rax,al
    46f8:	48 01 c0             	add    rax,rax
    46fb:	48 01 d0             	add    rax,rdx
    46fe:	0f b7 00             	movzx  eax,WORD PTR [rax]
    4701:	0f b7 c0             	movzx  eax,ax
    4704:	25 00 20 00 00       	and    eax,0x2000
    4709:	85 c0                	test   eax,eax
    470b:	75 20                	jne    472d <LEXER+0x14a1>
    470d:	8b 45 d0             	mov    eax,DWORD PTR [rbp-0x30]
    4710:	8d 50 01             	lea    edx,[rax+0x1]
    4713:	89 55 d0             	mov    DWORD PTR [rbp-0x30],edx
    4716:	8b 55 cc             	mov    edx,DWORD PTR [rbp-0x34]
    4719:	48 63 d2             	movsxd rdx,edx
    471c:	0f b6 94 15 80 fa ff 	movzx  edx,BYTE PTR [rbp+rdx*1-0x580]
    4723:	ff 
    4724:	48 98                	cdqe
    4726:	88 94 05 80 fb ff ff 	mov    BYTE PTR [rbp+rax*1-0x480],dl
    472d:	83 45 cc 01          	add    DWORD PTR [rbp-0x34],0x1
    4731:	8b 45 cc             	mov    eax,DWORD PTR [rbp-0x34]
    4734:	48 98                	cdqe
    4736:	0f b6 84 05 80 fa ff 	movzx  eax,BYTE PTR [rbp+rax*1-0x580]
    473d:	ff 
    473e:	84 c0                	test   al,al
    4740:	75 9d                	jne    46df <LEXER+0x1453>
    4742:	8b 45 d0             	mov    eax,DWORD PTR [rbp-0x30]
    4745:	48 98                	cdqe
    4747:	c6 84 05 80 fb ff ff 	mov    BYTE PTR [rbp+rax*1-0x480],0x0
    474e:	00 
    474f:	8b 15 33 af 00 00    	mov    edx,DWORD PTR [rip+0xaf33]        # f688 <line>
    4755:	48 8d 85 80 fb ff ff 	lea    rax,[rbp-0x480]
    475c:	48 89 c6             	mov    rsi,rax
    475f:	bf 09 00 00 00       	mov    edi,0x9
    4764:	e8 a0 e1 ff ff       	call   2909 <add_token>
    4769:	90                   	nop
    476a:	e9 1b 03 00 00       	jmp    4a8a <LEXER+0x17fe>
    476f:	48 8b 45 f0          	mov    rax,QWORD PTR [rbp-0x10]
    4773:	0f b6 00             	movzx  eax,BYTE PTR [rax]
    4776:	3c 21                	cmp    al,0x21
    4778:	0f 85 c5 00 00 00    	jne    4843 <LEXER+0x15b7>
    477e:	48 83 45 f0 01       	add    QWORD PTR [rbp-0x10],0x1
    4783:	48 8b 45 f0          	mov    rax,QWORD PTR [rbp-0x10]
    4787:	ba 07 00 00 00       	mov    edx,0x7
    478c:	48 8d 0d 17 7f 00 00 	lea    rcx,[rip+0x7f17]        # c6aa <_IO_stdin_used+0x6aa>
    4793:	48 89 ce             	mov    rsi,rcx
    4796:	48 89 c7             	mov    rdi,rax
    4799:	e8 82 d9 ff ff       	call   2120 <strncasecmp@plt>
    479e:	85 c0                	test   eax,eax
    47a0:	0f 85 e4 02 00 00    	jne    4a8a <LEXER+0x17fe>
    47a6:	48 83 45 f0 07       	add    QWORD PTR [rbp-0x10],0x7
    47ab:	eb 05                	jmp    47b2 <LEXER+0x1526>
    47ad:	48 83 45 f0 01       	add    QWORD PTR [rbp-0x10],0x1
    47b2:	48 8b 45 f0          	mov    rax,QWORD PTR [rbp-0x10]
    47b6:	0f b6 00             	movzx  eax,BYTE PTR [rax]
    47b9:	3c 20                	cmp    al,0x20
    47bb:	74 f0                	je     47ad <LEXER+0x1521>
    47bd:	48 8b 45 f0          	mov    rax,QWORD PTR [rbp-0x10]
    47c1:	0f b6 00             	movzx  eax,BYTE PTR [rax]
    47c4:	3c 09                	cmp    al,0x9
    47c6:	74 e5                	je     47ad <LEXER+0x1521>
    47c8:	48 c7 85 8c fd ff ff 	mov    QWORD PTR [rbp-0x274],0x0
    47cf:	00 00 00 00 
    47d3:	c7 85 94 fd ff ff 00 	mov    DWORD PTR [rbp-0x26c],0x0
    47da:	00 00 00 
    47dd:	c7 45 c8 00 00 00 00 	mov    DWORD PTR [rbp-0x38],0x0
    47e4:	eb 22                	jmp    4808 <LEXER+0x157c>
    47e6:	48 8b 45 f0          	mov    rax,QWORD PTR [rbp-0x10]
    47ea:	48 8d 50 01          	lea    rdx,[rax+0x1]
    47ee:	48 89 55 f0          	mov    QWORD PTR [rbp-0x10],rdx
    47f2:	8b 55 c8             	mov    edx,DWORD PTR [rbp-0x38]
    47f5:	8d 4a 01             	lea    ecx,[rdx+0x1]
    47f8:	89 4d c8             	mov    DWORD PTR [rbp-0x38],ecx
    47fb:	0f b6 08             	movzx  ecx,BYTE PTR [rax]
    47fe:	48 63 c2             	movsxd rax,edx
    4801:	88 8c 05 8c fd ff ff 	mov    BYTE PTR [rbp+rax*1-0x274],cl
    4808:	48 8b 45 f0          	mov    rax,QWORD PTR [rbp-0x10]
    480c:	0f b6 00             	movzx  eax,BYTE PTR [rax]
    480f:	84 c0                	test   al,al
    4811:	74 11                	je     4824 <LEXER+0x1598>
    4813:	48 8b 45 f0          	mov    rax,QWORD PTR [rbp-0x10]
    4817:	0f b6 00             	movzx  eax,BYTE PTR [rax]
    481a:	3c 0a                	cmp    al,0xa
    481c:	74 06                	je     4824 <LEXER+0x1598>
    481e:	83 7d c8 0a          	cmp    DWORD PTR [rbp-0x38],0xa
    4822:	7e c2                	jle    47e6 <LEXER+0x155a>
    4824:	8b 15 5e ae 00 00    	mov    edx,DWORD PTR [rip+0xae5e]        # f688 <line>
    482a:	48 8d 85 8c fd ff ff 	lea    rax,[rbp-0x274]
    4831:	48 89 c6             	mov    rsi,rax
    4834:	bf 0e 00 00 00       	mov    edi,0xe
    4839:	e8 cb e0 ff ff       	call   2909 <add_token>
    483e:	e9 47 02 00 00       	jmp    4a8a <LEXER+0x17fe>
    4843:	48 8b 45 f0          	mov    rax,QWORD PTR [rbp-0x10]
    4847:	0f b6 00             	movzx  eax,BYTE PTR [rax]
    484a:	3c 2c                	cmp    al,0x2c
    484c:	75 55                	jne    48a3 <LEXER+0x1617>
    484e:	48 83 45 f0 01       	add    QWORD PTR [rbp-0x10],0x1
    4853:	eb 05                	jmp    485a <LEXER+0x15ce>
    4855:	48 83 45 f0 01       	add    QWORD PTR [rbp-0x10],0x1
    485a:	e8 31 d9 ff ff       	call   2190 <__ctype_b_loc@plt>
    485f:	48 8b 10             	mov    rdx,QWORD PTR [rax]
    4862:	48 8b 45 f0          	mov    rax,QWORD PTR [rbp-0x10]
    4866:	0f b6 00             	movzx  eax,BYTE PTR [rax]
    4869:	48 0f be c0          	movsx  rax,al
    486d:	48 01 c0             	add    rax,rax
    4870:	48 01 d0             	add    rax,rdx
    4873:	0f b7 00             	movzx  eax,WORD PTR [rax]
    4876:	0f b7 c0             	movzx  eax,ax
    4879:	25 00 20 00 00       	and    eax,0x2000
    487e:	85 c0                	test   eax,eax
    4880:	75 d3                	jne    4855 <LEXER+0x15c9>
    4882:	8b 05 00 ae 00 00    	mov    eax,DWORD PTR [rip+0xae00]        # f688 <line>
    4888:	89 c2                	mov    edx,eax
    488a:	48 8d 05 21 7e 00 00 	lea    rax,[rip+0x7e21]        # c6b2 <_IO_stdin_used+0x6b2>
    4891:	48 89 c6             	mov    rsi,rax
    4894:	bf 18 00 00 00       	mov    edi,0x18
    4899:	e8 6b e0 ff ff       	call   2909 <add_token>
    489e:	e9 e7 01 00 00       	jmp    4a8a <LEXER+0x17fe>
    48a3:	48 8b 45 f0          	mov    rax,QWORD PTR [rbp-0x10]
    48a7:	ba 04 00 00 00       	mov    edx,0x4
    48ac:	48 8d 0d 01 7e 00 00 	lea    rcx,[rip+0x7e01]        # c6b4 <_IO_stdin_used+0x6b4>
    48b3:	48 89 ce             	mov    rsi,rcx
    48b6:	48 89 c7             	mov    rdi,rax
    48b9:	e8 62 d8 ff ff       	call   2120 <strncasecmp@plt>
    48be:	85 c0                	test   eax,eax
    48c0:	75 50                	jne    4912 <LEXER+0x1686>
    48c2:	8b 15 c0 ad 00 00    	mov    edx,DWORD PTR [rip+0xadc0]        # f688 <line>
    48c8:	48 8b 45 f0          	mov    rax,QWORD PTR [rbp-0x10]
    48cc:	48 89 c6             	mov    rsi,rax
    48cf:	bf 19 00 00 00       	mov    edi,0x19
    48d4:	e8 30 e0 ff ff       	call   2909 <add_token>
    48d9:	48 83 45 f0 04       	add    QWORD PTR [rbp-0x10],0x4
    48de:	eb 05                	jmp    48e5 <LEXER+0x1659>
    48e0:	48 83 45 f0 01       	add    QWORD PTR [rbp-0x10],0x1
    48e5:	e8 a6 d8 ff ff       	call   2190 <__ctype_b_loc@plt>
    48ea:	48 8b 10             	mov    rdx,QWORD PTR [rax]
    48ed:	48 8b 45 f0          	mov    rax,QWORD PTR [rbp-0x10]
    48f1:	0f b6 00             	movzx  eax,BYTE PTR [rax]
    48f4:	48 0f be c0          	movsx  rax,al
    48f8:	48 01 c0             	add    rax,rax
    48fb:	48 01 d0             	add    rax,rdx
    48fe:	0f b7 00             	movzx  eax,WORD PTR [rax]
    4901:	0f b7 c0             	movzx  eax,ax
    4904:	25 00 20 00 00       	and    eax,0x2000
    4909:	85 c0                	test   eax,eax
    490b:	75 d3                	jne    48e0 <LEXER+0x1654>
    490d:	e9 78 01 00 00       	jmp    4a8a <LEXER+0x17fe>
    4912:	48 8b 45 f0          	mov    rax,QWORD PTR [rbp-0x10]
    4916:	ba 04 00 00 00       	mov    edx,0x4
    491b:	48 8d 0d 97 7d 00 00 	lea    rcx,[rip+0x7d97]        # c6b9 <_IO_stdin_used+0x6b9>
    4922:	48 89 ce             	mov    rsi,rcx
    4925:	48 89 c7             	mov    rdi,rax
    4928:	e8 f3 d7 ff ff       	call   2120 <strncasecmp@plt>
    492d:	85 c0                	test   eax,eax
    492f:	75 50                	jne    4981 <LEXER+0x16f5>
    4931:	8b 15 51 ad 00 00    	mov    edx,DWORD PTR [rip+0xad51]        # f688 <line>
    4937:	48 8b 45 f0          	mov    rax,QWORD PTR [rbp-0x10]
    493b:	48 89 c6             	mov    rsi,rax
    493e:	bf 1a 00 00 00       	mov    edi,0x1a
    4943:	e8 c1 df ff ff       	call   2909 <add_token>
    4948:	48 83 45 f0 04       	add    QWORD PTR [rbp-0x10],0x4
    494d:	eb 05                	jmp    4954 <LEXER+0x16c8>
    494f:	48 83 45 f0 01       	add    QWORD PTR [rbp-0x10],0x1
    4954:	e8 37 d8 ff ff       	call   2190 <__ctype_b_loc@plt>
    4959:	48 8b 10             	mov    rdx,QWORD PTR [rax]
    495c:	48 8b 45 f0          	mov    rax,QWORD PTR [rbp-0x10]
    4960:	0f b6 00             	movzx  eax,BYTE PTR [rax]
    4963:	48 0f be c0          	movsx  rax,al
    4967:	48 01 c0             	add    rax,rax
    496a:	48 01 d0             	add    rax,rdx
    496d:	0f b7 00             	movzx  eax,WORD PTR [rax]
    4970:	0f b7 c0             	movzx  eax,ax
    4973:	25 00 20 00 00       	and    eax,0x2000
    4978:	85 c0                	test   eax,eax
    497a:	75 d3                	jne    494f <LEXER+0x16c3>
    497c:	e9 09 01 00 00       	jmp    4a8a <LEXER+0x17fe>
    4981:	48 8b 45 f0          	mov    rax,QWORD PTR [rbp-0x10]
    4985:	ba 04 00 00 00       	mov    edx,0x4
    498a:	48 8d 0d 2d 7d 00 00 	lea    rcx,[rip+0x7d2d]        # c6be <_IO_stdin_used+0x6be>
    4991:	48 89 ce             	mov    rsi,rcx
    4994:	48 89 c7             	mov    rdi,rax
    4997:	e8 84 d7 ff ff       	call   2120 <strncasecmp@plt>
    499c:	85 c0                	test   eax,eax
    499e:	75 50                	jne    49f0 <LEXER+0x1764>
    49a0:	8b 15 e2 ac 00 00    	mov    edx,DWORD PTR [rip+0xace2]        # f688 <line>
    49a6:	48 8b 45 f0          	mov    rax,QWORD PTR [rbp-0x10]
    49aa:	48 89 c6             	mov    rsi,rax
    49ad:	bf 1b 00 00 00       	mov    edi,0x1b
    49b2:	e8 52 df ff ff       	call   2909 <add_token>
    49b7:	48 83 45 f0 04       	add    QWORD PTR [rbp-0x10],0x4
    49bc:	eb 05                	jmp    49c3 <LEXER+0x1737>
    49be:	48 83 45 f0 01       	add    QWORD PTR [rbp-0x10],0x1
    49c3:	e8 c8 d7 ff ff       	call   2190 <__ctype_b_loc@plt>
    49c8:	48 8b 10             	mov    rdx,QWORD PTR [rax]
    49cb:	48 8b 45 f0          	mov    rax,QWORD PTR [rbp-0x10]
    49cf:	0f b6 00             	movzx  eax,BYTE PTR [rax]
    49d2:	48 0f be c0          	movsx  rax,al
    49d6:	48 01 c0             	add    rax,rax
    49d9:	48 01 d0             	add    rax,rdx
    49dc:	0f b7 00             	movzx  eax,WORD PTR [rax]
    49df:	0f b7 c0             	movzx  eax,ax
    49e2:	25 00 20 00 00       	and    eax,0x2000
    49e7:	85 c0                	test   eax,eax
    49e9:	75 d3                	jne    49be <LEXER+0x1732>
    49eb:	e9 9a 00 00 00       	jmp    4a8a <LEXER+0x17fe>
    49f0:	48 8b 45 f0          	mov    rax,QWORD PTR [rbp-0x10]
    49f4:	ba 04 00 00 00       	mov    edx,0x4
    49f9:	48 8d 0d c3 7c 00 00 	lea    rcx,[rip+0x7cc3]        # c6c3 <_IO_stdin_used+0x6c3>
    4a00:	48 89 ce             	mov    rsi,rcx
    4a03:	48 89 c7             	mov    rdi,rax
    4a06:	e8 15 d7 ff ff       	call   2120 <strncasecmp@plt>
    4a0b:	85 c0                	test   eax,eax
    4a0d:	75 4d                	jne    4a5c <LEXER+0x17d0>
    4a0f:	8b 15 73 ac 00 00    	mov    edx,DWORD PTR [rip+0xac73]        # f688 <line>
    4a15:	48 8b 45 f0          	mov    rax,QWORD PTR [rbp-0x10]
    4a19:	48 89 c6             	mov    rsi,rax
    4a1c:	bf 1c 00 00 00       	mov    edi,0x1c
    4a21:	e8 e3 de ff ff       	call   2909 <add_token>
    4a26:	48 83 45 f0 04       	add    QWORD PTR [rbp-0x10],0x4
    4a2b:	eb 05                	jmp    4a32 <LEXER+0x17a6>
    4a2d:	48 83 45 f0 01       	add    QWORD PTR [rbp-0x10],0x1
    4a32:	e8 59 d7 ff ff       	call   2190 <__ctype_b_loc@plt>
    4a37:	48 8b 10             	mov    rdx,QWORD PTR [rax]
    4a3a:	48 8b 45 f0          	mov    rax,QWORD PTR [rbp-0x10]
    4a3e:	0f b6 00             	movzx  eax,BYTE PTR [rax]
    4a41:	48 0f be c0          	movsx  rax,al
    4a45:	48 01 c0             	add    rax,rax
    4a48:	48 01 d0             	add    rax,rdx
    4a4b:	0f b7 00             	movzx  eax,WORD PTR [rax]
    4a4e:	0f b7 c0             	movzx  eax,ax
    4a51:	25 00 20 00 00       	and    eax,0x2000
    4a56:	85 c0                	test   eax,eax
    4a58:	75 d3                	jne    4a2d <LEXER+0x17a1>
    4a5a:	eb 2e                	jmp    4a8a <LEXER+0x17fe>
    4a5c:	8b 15 26 ac 00 00    	mov    edx,DWORD PTR [rip+0xac26]        # f688 <line>
    4a62:	48 8b 05 f7 ab 00 00 	mov    rax,QWORD PTR [rip+0xabf7]        # f660 <stderr@GLIBC_2.2.5>
    4a69:	48 8d 0d 58 7c 00 00 	lea    rcx,[rip+0x7c58]        # c6c8 <_IO_stdin_used+0x6c8>
    4a70:	48 89 ce             	mov    rsi,rcx
    4a73:	48 89 c7             	mov    rdi,rax
    4a76:	b8 00 00 00 00       	mov    eax,0x0
    4a7b:	e8 80 d6 ff ff       	call   2100 <fprintf@plt>
    4a80:	bf 01 00 00 00       	mov    edi,0x1
    4a85:	e8 d6 d6 ff ff       	call   2160 <exit@plt>
    4a8a:	48 8b 45 f0          	mov    rax,QWORD PTR [rbp-0x10]
    4a8e:	0f b6 00             	movzx  eax,BYTE PTR [rax]
    4a91:	84 c0                	test   al,al
    4a93:	0f 85 b8 e8 ff ff    	jne    3351 <LEXER+0xc5>
    4a99:	8b 05 e9 ab 00 00    	mov    eax,DWORD PTR [rip+0xabe9]        # f688 <line>
    4a9f:	89 c2                	mov    edx,eax
    4aa1:	48 8d 05 4d 7c 00 00 	lea    rax,[rip+0x7c4d]        # c6f5 <_IO_stdin_used+0x6f5>
    4aa8:	48 89 c6             	mov    rsi,rax
    4aab:	bf 0c 00 00 00       	mov    edi,0xc
    4ab0:	e8 54 de ff ff       	call   2909 <add_token>
    4ab5:	48 8b 85 78 fa ff ff 	mov    rax,QWORD PTR [rbp-0x588]
    4abc:	48 8d 95 b0 fd ff ff 	lea    rdx,[rbp-0x250]
    4ac3:	48 8d 4a 08          	lea    rcx,[rdx+0x8]
    4ac7:	48 89 c2             	mov    rdx,rax
    4aca:	be 00 01 00 00       	mov    esi,0x100
    4acf:	48 89 cf             	mov    rdi,rcx
    4ad2:	e8 f9 d5 ff ff       	call   20d0 <fgets@plt>
    4ad7:	48 85 c0             	test   rax,rax
    4ada:	0f 85 18 e8 ff ff    	jne    32f8 <LEXER+0x6c>
    4ae0:	8b 05 a2 ab 00 00    	mov    eax,DWORD PTR [rip+0xaba2]        # f688 <line>
    4ae6:	89 c2                	mov    edx,eax
    4ae8:	48 8d 05 07 7c 00 00 	lea    rax,[rip+0x7c07]        # c6f6 <_IO_stdin_used+0x6f6>
    4aef:	48 89 c6             	mov    rsi,rax
    4af2:	bf 0d 00 00 00       	mov    edi,0xd
    4af7:	e8 0d de ff ff       	call   2909 <add_token>
    4afc:	8b 05 86 ab 00 00    	mov    eax,DWORD PTR [rip+0xab86]        # f688 <line>
    4b02:	c9                   	leave
    4b03:	c3                   	ret

0000000000004b04 <DEBUG_PRINT_AST>:
DEBUG_PRINT_AST():
    4b04:	55                   	push   rbp
    4b05:	48 89 e5             	mov    rbp,rsp
    4b08:	48 83 ec 40          	sub    rsp,0x40
    4b0c:	8b 05 ae 6b 26 00    	mov    eax,DWORD PTR [rip+0x266bae]        # 26b6c0 <ast_count>
    4b12:	89 c6                	mov    esi,eax
    4b14:	48 8d 05 df 7b 00 00 	lea    rax,[rip+0x7bdf]        # c6fa <_IO_stdin_used+0x6fa>
    4b1b:	48 89 c7             	mov    rdi,rax
    4b1e:	b8 00 00 00 00       	mov    eax,0x0
    4b23:	e8 78 d5 ff ff       	call   20a0 <printf@plt>
    4b28:	c7 45 fc 00 00 00 00 	mov    DWORD PTR [rbp-0x4],0x0
    4b2f:	e9 3e 07 00 00       	jmp    5272 <DEBUG_PRINT_AST+0x76e>
    4b34:	8b 45 fc             	mov    eax,DWORD PTR [rbp-0x4]
    4b37:	48 98                	cdqe
    4b39:	48 69 c0 58 09 00 00 	imul   rax,rax,0x958
    4b40:	48 8d 15 79 0b 01 00 	lea    rdx,[rip+0x10b79]        # 156c0 <ast>
    4b47:	48 01 d0             	add    rax,rdx
    4b4a:	48 89 45 c0          	mov    QWORD PTR [rbp-0x40],rax
    4b4e:	48 8d 05 64 77 00 00 	lea    rax,[rip+0x7764]        # c2b9 <_IO_stdin_used+0x2b9>
    4b55:	48 89 45 f0          	mov    QWORD PTR [rbp-0x10],rax
    4b59:	48 8b 45 c0          	mov    rax,QWORD PTR [rbp-0x40]
    4b5d:	8b 00                	mov    eax,DWORD PTR [rax]
    4b5f:	83 f8 13             	cmp    eax,0x13
    4b62:	0f 87 23 01 00 00    	ja     4c8b <DEBUG_PRINT_AST+0x187>
    4b68:	89 c0                	mov    eax,eax
    4b6a:	48 8d 14 85 00 00 00 	lea    rdx,[rax*4+0x0]
    4b71:	00 
    4b72:	48 8d 05 83 7d 00 00 	lea    rax,[rip+0x7d83]        # c8fc <_IO_stdin_used+0x8fc>
    4b79:	8b 04 02             	mov    eax,DWORD PTR [rdx+rax*1]
    4b7c:	48 98                	cdqe
    4b7e:	48 8d 15 77 7d 00 00 	lea    rdx,[rip+0x7d77]        # c8fc <_IO_stdin_used+0x8fc>
    4b85:	48 01 d0             	add    rax,rdx
    4b88:	ff e0                	jmp    rax
    4b8a:	48 8d 05 86 7b 00 00 	lea    rax,[rip+0x7b86]        # c717 <_IO_stdin_used+0x717>
    4b91:	48 89 45 f0          	mov    QWORD PTR [rbp-0x10],rax
    4b95:	e9 f1 00 00 00       	jmp    4c8b <DEBUG_PRINT_AST+0x187>
    4b9a:	48 8d 05 7e 7b 00 00 	lea    rax,[rip+0x7b7e]        # c71f <_IO_stdin_used+0x71f>
    4ba1:	48 89 45 f0          	mov    QWORD PTR [rbp-0x10],rax
    4ba5:	e9 e1 00 00 00       	jmp    4c8b <DEBUG_PRINT_AST+0x187>
    4baa:	48 8d 05 75 7b 00 00 	lea    rax,[rip+0x7b75]        # c726 <_IO_stdin_used+0x726>
    4bb1:	48 89 45 f0          	mov    QWORD PTR [rbp-0x10],rax
    4bb5:	e9 d1 00 00 00       	jmp    4c8b <DEBUG_PRINT_AST+0x187>
    4bba:	48 8d 05 6f 7b 00 00 	lea    rax,[rip+0x7b6f]        # c730 <_IO_stdin_used+0x730>
    4bc1:	48 89 45 f0          	mov    QWORD PTR [rbp-0x10],rax
    4bc5:	e9 c1 00 00 00       	jmp    4c8b <DEBUG_PRINT_AST+0x187>
    4bca:	48 8d 05 67 7b 00 00 	lea    rax,[rip+0x7b67]        # c738 <_IO_stdin_used+0x738>
    4bd1:	48 89 45 f0          	mov    QWORD PTR [rbp-0x10],rax
    4bd5:	e9 b1 00 00 00       	jmp    4c8b <DEBUG_PRINT_AST+0x187>
    4bda:	48 8d 05 62 7b 00 00 	lea    rax,[rip+0x7b62]        # c743 <_IO_stdin_used+0x743>
    4be1:	48 89 45 f0          	mov    QWORD PTR [rbp-0x10],rax
    4be5:	e9 a1 00 00 00       	jmp    4c8b <DEBUG_PRINT_AST+0x187>
    4bea:	48 8d 05 5a 7b 00 00 	lea    rax,[rip+0x7b5a]        # c74b <_IO_stdin_used+0x74b>
    4bf1:	48 89 45 f0          	mov    QWORD PTR [rbp-0x10],rax
    4bf5:	e9 91 00 00 00       	jmp    4c8b <DEBUG_PRINT_AST+0x187>
    4bfa:	48 8d 05 55 7b 00 00 	lea    rax,[rip+0x7b55]        # c756 <_IO_stdin_used+0x756>
    4c01:	48 89 45 f0          	mov    QWORD PTR [rbp-0x10],rax
    4c05:	e9 81 00 00 00       	jmp    4c8b <DEBUG_PRINT_AST+0x187>
    4c0a:	48 8d 05 4d 7b 00 00 	lea    rax,[rip+0x7b4d]        # c75e <_IO_stdin_used+0x75e>
    4c11:	48 89 45 f0          	mov    QWORD PTR [rbp-0x10],rax
    4c15:	eb 74                	jmp    4c8b <DEBUG_PRINT_AST+0x187>
    4c17:	48 8d 05 4b 7b 00 00 	lea    rax,[rip+0x7b4b]        # c769 <_IO_stdin_used+0x769>
    4c1e:	48 89 45 f0          	mov    QWORD PTR [rbp-0x10],rax
    4c22:	eb 67                	jmp    4c8b <DEBUG_PRINT_AST+0x187>
    4c24:	48 8d 05 47 7b 00 00 	lea    rax,[rip+0x7b47]        # c772 <_IO_stdin_used+0x772>
    4c2b:	48 89 45 f0          	mov    QWORD PTR [rbp-0x10],rax
    4c2f:	eb 5a                	jmp    4c8b <DEBUG_PRINT_AST+0x187>
    4c31:	48 8d 05 43 7b 00 00 	lea    rax,[rip+0x7b43]        # c77b <_IO_stdin_used+0x77b>
    4c38:	48 89 45 f0          	mov    QWORD PTR [rbp-0x10],rax
    4c3c:	eb 4d                	jmp    4c8b <DEBUG_PRINT_AST+0x187>
    4c3e:	48 8d 05 3f 7b 00 00 	lea    rax,[rip+0x7b3f]        # c784 <_IO_stdin_used+0x784>
    4c45:	48 89 45 f0          	mov    QWORD PTR [rbp-0x10],rax
    4c49:	eb 40                	jmp    4c8b <DEBUG_PRINT_AST+0x187>
    4c4b:	48 8d 05 3b 7b 00 00 	lea    rax,[rip+0x7b3b]        # c78d <_IO_stdin_used+0x78d>
    4c52:	48 89 45 f0          	mov    QWORD PTR [rbp-0x10],rax
    4c56:	eb 33                	jmp    4c8b <DEBUG_PRINT_AST+0x187>
    4c58:	48 8d 05 38 7b 00 00 	lea    rax,[rip+0x7b38]        # c797 <_IO_stdin_used+0x797>
    4c5f:	48 89 45 f0          	mov    QWORD PTR [rbp-0x10],rax
    4c63:	eb 26                	jmp    4c8b <DEBUG_PRINT_AST+0x187>
    4c65:	48 8d 05 37 7b 00 00 	lea    rax,[rip+0x7b37]        # c7a3 <_IO_stdin_used+0x7a3>
    4c6c:	48 89 45 f0          	mov    QWORD PTR [rbp-0x10],rax
    4c70:	eb 19                	jmp    4c8b <DEBUG_PRINT_AST+0x187>
    4c72:	48 8d 05 38 7b 00 00 	lea    rax,[rip+0x7b38]        # c7b1 <_IO_stdin_used+0x7b1>
    4c79:	48 89 45 f0          	mov    QWORD PTR [rbp-0x10],rax
    4c7d:	eb 0c                	jmp    4c8b <DEBUG_PRINT_AST+0x187>
    4c7f:	48 8d 05 34 7b 00 00 	lea    rax,[rip+0x7b34]        # c7ba <_IO_stdin_used+0x7ba>
    4c86:	48 89 45 f0          	mov    QWORD PTR [rbp-0x10],rax
    4c8a:	90                   	nop
    4c8b:	48 8b 55 f0          	mov    rdx,QWORD PTR [rbp-0x10]
    4c8f:	8b 45 fc             	mov    eax,DWORD PTR [rbp-0x4]
    4c92:	89 c6                	mov    esi,eax
    4c94:	48 8d 05 27 7b 00 00 	lea    rax,[rip+0x7b27]        # c7c2 <_IO_stdin_used+0x7c2>
    4c9b:	48 89 c7             	mov    rdi,rax
    4c9e:	b8 00 00 00 00       	mov    eax,0x0
    4ca3:	e8 f8 d3 ff ff       	call   20a0 <printf@plt>
    4ca8:	48 8b 45 c0          	mov    rax,QWORD PTR [rbp-0x40]
    4cac:	8b 00                	mov    eax,DWORD PTR [rax]
    4cae:	83 f8 13             	cmp    eax,0x13
    4cb1:	0f 87 12 05 00 00    	ja     51c9 <DEBUG_PRINT_AST+0x6c5>
    4cb7:	89 c0                	mov    eax,eax
    4cb9:	48 8d 14 85 00 00 00 	lea    rdx,[rax*4+0x0]
    4cc0:	00 
    4cc1:	48 8d 05 84 7c 00 00 	lea    rax,[rip+0x7c84]        # c94c <_IO_stdin_used+0x94c>
    4cc8:	8b 04 02             	mov    eax,DWORD PTR [rdx+rax*1]
    4ccb:	48 98                	cdqe
    4ccd:	48 8d 15 78 7c 00 00 	lea    rdx,[rip+0x7c78]        # c94c <_IO_stdin_used+0x94c>
    4cd4:	48 01 d0             	add    rax,rdx
    4cd7:	ff e0                	jmp    rax
    4cd9:	48 8b 45 c0          	mov    rax,QWORD PTR [rbp-0x40]
    4cdd:	8b 80 a4 01 00 00    	mov    eax,DWORD PTR [rax+0x1a4]
    4ce3:	48 8b 55 c0          	mov    rdx,QWORD PTR [rbp-0x40]
    4ce7:	48 8d 4a 04          	lea    rcx,[rdx+0x4]
    4ceb:	89 c2                	mov    edx,eax
    4ced:	48 89 ce             	mov    rsi,rcx
    4cf0:	48 8d 05 df 7a 00 00 	lea    rax,[rip+0x7adf]        # c7d6 <_IO_stdin_used+0x7d6>
    4cf7:	48 89 c7             	mov    rdi,rax
    4cfa:	b8 00 00 00 00       	mov    eax,0x0
    4cff:	e8 9c d3 ff ff       	call   20a0 <printf@plt>
    4d04:	c7 45 ec 00 00 00 00 	mov    DWORD PTR [rbp-0x14],0x0
    4d0b:	e9 07 01 00 00       	jmp    4e17 <DEBUG_PRINT_AST+0x313>
    4d10:	48 8d 05 d5 7a 00 00 	lea    rax,[rip+0x7ad5]        # c7ec <_IO_stdin_used+0x7ec>
    4d17:	48 89 45 e0          	mov    QWORD PTR [rbp-0x20],rax
    4d1b:	48 8b 45 c0          	mov    rax,QWORD PTR [rbp-0x40]
    4d1f:	8b 55 ec             	mov    edx,DWORD PTR [rbp-0x14]
    4d22:	48 63 d2             	movsxd rdx,edx
    4d25:	48 83 c2 60          	add    rdx,0x60
    4d29:	8b 44 90 14          	mov    eax,DWORD PTR [rax+rdx*4+0x14]
    4d2d:	83 e8 03             	sub    eax,0x3
    4d30:	83 f8 08             	cmp    eax,0x8
    4d33:	0f 87 96 00 00 00    	ja     4dcf <DEBUG_PRINT_AST+0x2cb>
    4d39:	89 c0                	mov    eax,eax
    4d3b:	48 8d 14 85 00 00 00 	lea    rdx,[rax*4+0x0]
    4d42:	00 
    4d43:	48 8d 05 52 7c 00 00 	lea    rax,[rip+0x7c52]        # c99c <_IO_stdin_used+0x99c>
    4d4a:	8b 04 02             	mov    eax,DWORD PTR [rdx+rax*1]
    4d4d:	48 98                	cdqe
    4d4f:	48 8d 15 46 7c 00 00 	lea    rdx,[rip+0x7c46]        # c99c <_IO_stdin_used+0x99c>
    4d56:	48 01 d0             	add    rax,rdx
    4d59:	ff e0                	jmp    rax
    4d5b:	48 8d 05 8c 7a 00 00 	lea    rax,[rip+0x7a8c]        # c7ee <_IO_stdin_used+0x7ee>
    4d62:	48 89 45 e0          	mov    QWORD PTR [rbp-0x20],rax
    4d66:	eb 67                	jmp    4dcf <DEBUG_PRINT_AST+0x2cb>
    4d68:	48 8d 05 84 7a 00 00 	lea    rax,[rip+0x7a84]        # c7f3 <_IO_stdin_used+0x7f3>
    4d6f:	48 89 45 e0          	mov    QWORD PTR [rbp-0x20],rax
    4d73:	eb 5a                	jmp    4dcf <DEBUG_PRINT_AST+0x2cb>
    4d75:	48 8d 05 7d 7a 00 00 	lea    rax,[rip+0x7a7d]        # c7f9 <_IO_stdin_used+0x7f9>
    4d7c:	48 89 45 e0          	mov    QWORD PTR [rbp-0x20],rax
    4d80:	eb 4d                	jmp    4dcf <DEBUG_PRINT_AST+0x2cb>
    4d82:	48 8d 05 76 7a 00 00 	lea    rax,[rip+0x7a76]        # c7ff <_IO_stdin_used+0x7ff>
    4d89:	48 89 45 e0          	mov    QWORD PTR [rbp-0x20],rax
    4d8d:	eb 40                	jmp    4dcf <DEBUG_PRINT_AST+0x2cb>
    4d8f:	48 8d 05 6f 7a 00 00 	lea    rax,[rip+0x7a6f]        # c805 <_IO_stdin_used+0x805>
    4d96:	48 89 45 e0          	mov    QWORD PTR [rbp-0x20],rax
    4d9a:	eb 33                	jmp    4dcf <DEBUG_PRINT_AST+0x2cb>
    4d9c:	48 8d 05 66 7a 00 00 	lea    rax,[rip+0x7a66]        # c809 <_IO_stdin_used+0x809>
    4da3:	48 89 45 e0          	mov    QWORD PTR [rbp-0x20],rax
    4da7:	eb 26                	jmp    4dcf <DEBUG_PRINT_AST+0x2cb>
    4da9:	48 8d 05 5d 7a 00 00 	lea    rax,[rip+0x7a5d]        # c80d <_IO_stdin_used+0x80d>
    4db0:	48 89 45 e0          	mov    QWORD PTR [rbp-0x20],rax
    4db4:	eb 19                	jmp    4dcf <DEBUG_PRINT_AST+0x2cb>
    4db6:	48 8d 05 56 7a 00 00 	lea    rax,[rip+0x7a56]        # c813 <_IO_stdin_used+0x813>
    4dbd:	48 89 45 e0          	mov    QWORD PTR [rbp-0x20],rax
    4dc1:	eb 0c                	jmp    4dcf <DEBUG_PRINT_AST+0x2cb>
    4dc3:	48 8d 05 4c 7a 00 00 	lea    rax,[rip+0x7a4c]        # c816 <_IO_stdin_used+0x816>
    4dca:	48 89 45 e0          	mov    QWORD PTR [rbp-0x20],rax
    4dce:	90                   	nop
    4dcf:	8b 45 ec             	mov    eax,DWORD PTR [rbp-0x14]
    4dd2:	48 63 d0             	movsxd rdx,eax
    4dd5:	48 89 d0             	mov    rax,rdx
    4dd8:	48 c1 e0 03          	shl    rax,0x3
    4ddc:	48 01 d0             	add    rax,rdx
    4ddf:	48 c1 e0 02          	shl    rax,0x2
    4de3:	48 29 d0             	sub    rax,rdx
    4de6:	48 8d 90 00 01 00 00 	lea    rdx,[rax+0x100]
    4ded:	48 8b 45 c0          	mov    rax,QWORD PTR [rbp-0x40]
    4df1:	48 01 d0             	add    rax,rdx
    4df4:	48 8d 50 08          	lea    rdx,[rax+0x8]
    4df8:	48 8b 45 e0          	mov    rax,QWORD PTR [rbp-0x20]
    4dfc:	48 89 c6             	mov    rsi,rax
    4dff:	48 8d 05 15 7a 00 00 	lea    rax,[rip+0x7a15]        # c81b <_IO_stdin_used+0x81b>
    4e06:	48 89 c7             	mov    rdi,rax
    4e09:	b8 00 00 00 00       	mov    eax,0x0
    4e0e:	e8 8d d2 ff ff       	call   20a0 <printf@plt>
    4e13:	83 45 ec 01          	add    DWORD PTR [rbp-0x14],0x1
    4e17:	48 8b 45 c0          	mov    rax,QWORD PTR [rbp-0x40]
    4e1b:	8b 80 a4 01 00 00    	mov    eax,DWORD PTR [rax+0x1a4]
    4e21:	39 45 ec             	cmp    DWORD PTR [rbp-0x14],eax
    4e24:	0f 8c e6 fe ff ff    	jl     4d10 <DEBUG_PRINT_AST+0x20c>
    4e2a:	48 8b 45 c0          	mov    rax,QWORD PTR [rbp-0x40]
    4e2e:	0f b6 80 50 09 00 00 	movzx  eax,BYTE PTR [rax+0x950]
    4e35:	0f b6 c0             	movzx  eax,al
    4e38:	89 c6                	mov    esi,eax
    4e3a:	48 8d 05 e5 79 00 00 	lea    rax,[rip+0x79e5]        # c826 <_IO_stdin_used+0x826>
    4e41:	48 89 c7             	mov    rdi,rax
    4e44:	b8 00 00 00 00       	mov    eax,0x0
    4e49:	e8 52 d2 ff ff       	call   20a0 <printf@plt>
    4e4e:	e9 76 03 00 00       	jmp    51c9 <DEBUG_PRINT_AST+0x6c5>
    4e53:	48 8b 45 c0          	mov    rax,QWORD PTR [rbp-0x40]
    4e57:	48 8b 90 50 01 00 00 	mov    rdx,QWORD PTR [rax+0x150]
    4e5e:	48 8b 45 c0          	mov    rax,QWORD PTR [rbp-0x40]
    4e62:	48 8b 80 48 01 00 00 	mov    rax,QWORD PTR [rax+0x148]
    4e69:	48 8b 4d c0          	mov    rcx,QWORD PTR [rbp-0x40]
    4e6d:	48 8d b1 08 01 00 00 	lea    rsi,[rcx+0x108]
    4e74:	48 89 d1             	mov    rcx,rdx
    4e77:	48 89 c2             	mov    rdx,rax
    4e7a:	48 8d 05 b7 79 00 00 	lea    rax,[rip+0x79b7]        # c838 <_IO_stdin_used+0x838>
    4e81:	48 89 c7             	mov    rdi,rax
    4e84:	b8 00 00 00 00       	mov    eax,0x0
    4e89:	e8 12 d2 ff ff       	call   20a0 <printf@plt>
    4e8e:	e9 36 03 00 00       	jmp    51c9 <DEBUG_PRINT_AST+0x6c5>
    4e93:	48 8b 45 c0          	mov    rax,QWORD PTR [rbp-0x40]
    4e97:	0f b6 80 08 01 00 00 	movzx  eax,BYTE PTR [rax+0x108]
    4e9e:	0f b6 c0             	movzx  eax,al
    4ea1:	89 c6                	mov    esi,eax
    4ea3:	48 8d 05 b1 79 00 00 	lea    rax,[rip+0x79b1]        # c85b <_IO_stdin_used+0x85b>
    4eaa:	48 89 c7             	mov    rdi,rax
    4ead:	b8 00 00 00 00       	mov    eax,0x0
    4eb2:	e8 e9 d1 ff ff       	call   20a0 <printf@plt>
    4eb7:	e9 0d 03 00 00       	jmp    51c9 <DEBUG_PRINT_AST+0x6c5>
    4ebc:	48 8b 45 c0          	mov    rax,QWORD PTR [rbp-0x40]
    4ec0:	8b 80 08 02 00 00    	mov    eax,DWORD PTR [rax+0x208]
    4ec6:	89 c6                	mov    esi,eax
    4ec8:	48 8d 05 97 79 00 00 	lea    rax,[rip+0x7997]        # c866 <_IO_stdin_used+0x866>
    4ecf:	48 89 c7             	mov    rdi,rax
    4ed2:	b8 00 00 00 00       	mov    eax,0x0
    4ed7:	e8 c4 d1 ff ff       	call   20a0 <printf@plt>
    4edc:	c7 45 dc 00 00 00 00 	mov    DWORD PTR [rbp-0x24],0x0
    4ee3:	eb 4a                	jmp    4f2f <DEBUG_PRINT_AST+0x42b>
    4ee5:	48 8b 55 c0          	mov    rdx,QWORD PTR [rbp-0x40]
    4ee9:	8b 45 dc             	mov    eax,DWORD PTR [rbp-0x24]
    4eec:	48 98                	cdqe
    4eee:	0f b6 84 02 08 01 00 	movzx  eax,BYTE PTR [rdx+rax*1+0x108]
    4ef5:	00 
    4ef6:	0f b6 c0             	movzx  eax,al
    4ef9:	89 c6                	mov    esi,eax
    4efb:	48 8d 05 74 79 00 00 	lea    rax,[rip+0x7974]        # c876 <_IO_stdin_used+0x876>
    4f02:	48 89 c7             	mov    rdi,rax
    4f05:	b8 00 00 00 00       	mov    eax,0x0
    4f0a:	e8 91 d1 ff ff       	call   20a0 <printf@plt>
    4f0f:	48 8b 45 c0          	mov    rax,QWORD PTR [rbp-0x40]
    4f13:	8b 80 08 02 00 00    	mov    eax,DWORD PTR [rax+0x208]
    4f19:	83 e8 01             	sub    eax,0x1
    4f1c:	39 45 dc             	cmp    DWORD PTR [rbp-0x24],eax
    4f1f:	7d 0a                	jge    4f2b <DEBUG_PRINT_AST+0x427>
    4f21:	bf 20 00 00 00       	mov    edi,0x20
    4f26:	e8 15 d1 ff ff       	call   2040 <putchar@plt>
    4f2b:	83 45 dc 01          	add    DWORD PTR [rbp-0x24],0x1
    4f2f:	48 8b 45 c0          	mov    rax,QWORD PTR [rbp-0x40]
    4f33:	8b 80 08 02 00 00    	mov    eax,DWORD PTR [rax+0x208]
    4f39:	39 45 dc             	cmp    DWORD PTR [rbp-0x24],eax
    4f3c:	7c a7                	jl     4ee5 <DEBUG_PRINT_AST+0x3e1>
    4f3e:	bf 5d 00 00 00       	mov    edi,0x5d
    4f43:	e8 f8 d0 ff ff       	call   2040 <putchar@plt>
    4f48:	e9 7c 02 00 00       	jmp    51c9 <DEBUG_PRINT_AST+0x6c5>
    4f4d:	48 8b 45 c0          	mov    rax,QWORD PTR [rbp-0x40]
    4f51:	8b 80 08 03 00 00    	mov    eax,DWORD PTR [rax+0x308]
    4f57:	48 98                	cdqe
    4f59:	48 01 c0             	add    rax,rax
    4f5c:	48 89 c6             	mov    rsi,rax
    4f5f:	48 8d 05 00 79 00 00 	lea    rax,[rip+0x7900]        # c866 <_IO_stdin_used+0x866>
    4f66:	48 89 c7             	mov    rdi,rax
    4f69:	b8 00 00 00 00       	mov    eax,0x0
    4f6e:	e8 2d d1 ff ff       	call   20a0 <printf@plt>
    4f73:	c7 45 d8 00 00 00 00 	mov    DWORD PTR [rbp-0x28],0x0
    4f7a:	eb 4c                	jmp    4fc8 <DEBUG_PRINT_AST+0x4c4>
    4f7c:	48 8b 45 c0          	mov    rax,QWORD PTR [rbp-0x40]
    4f80:	8b 55 d8             	mov    edx,DWORD PTR [rbp-0x28]
    4f83:	48 63 d2             	movsxd rdx,edx
    4f86:	48 83 ea 80          	sub    rdx,0xffffffffffffff80
    4f8a:	0f b7 44 50 08       	movzx  eax,WORD PTR [rax+rdx*2+0x8]
    4f8f:	0f b7 c0             	movzx  eax,ax
    4f92:	89 c6                	mov    esi,eax
    4f94:	48 8d 05 e0 78 00 00 	lea    rax,[rip+0x78e0]        # c87b <_IO_stdin_used+0x87b>
    4f9b:	48 89 c7             	mov    rdi,rax
    4f9e:	b8 00 00 00 00       	mov    eax,0x0
    4fa3:	e8 f8 d0 ff ff       	call   20a0 <printf@plt>
    4fa8:	48 8b 45 c0          	mov    rax,QWORD PTR [rbp-0x40]
    4fac:	8b 80 08 03 00 00    	mov    eax,DWORD PTR [rax+0x308]
    4fb2:	83 e8 01             	sub    eax,0x1
    4fb5:	39 45 d8             	cmp    DWORD PTR [rbp-0x28],eax
    4fb8:	7d 0a                	jge    4fc4 <DEBUG_PRINT_AST+0x4c0>
    4fba:	bf 20 00 00 00       	mov    edi,0x20
    4fbf:	e8 7c d0 ff ff       	call   2040 <putchar@plt>
    4fc4:	83 45 d8 01          	add    DWORD PTR [rbp-0x28],0x1
    4fc8:	48 8b 45 c0          	mov    rax,QWORD PTR [rbp-0x40]
    4fcc:	8b 80 08 03 00 00    	mov    eax,DWORD PTR [rax+0x308]
    4fd2:	39 45 d8             	cmp    DWORD PTR [rbp-0x28],eax
    4fd5:	7c a5                	jl     4f7c <DEBUG_PRINT_AST+0x478>
    4fd7:	bf 5d 00 00 00       	mov    edi,0x5d
    4fdc:	e8 5f d0 ff ff       	call   2040 <putchar@plt>
    4fe1:	e9 e3 01 00 00       	jmp    51c9 <DEBUG_PRINT_AST+0x6c5>
    4fe6:	48 8b 45 c0          	mov    rax,QWORD PTR [rbp-0x40]
    4fea:	8b 80 08 05 00 00    	mov    eax,DWORD PTR [rax+0x508]
    4ff0:	48 98                	cdqe
    4ff2:	48 c1 e0 02          	shl    rax,0x2
    4ff6:	48 89 c6             	mov    rsi,rax
    4ff9:	48 8d 05 66 78 00 00 	lea    rax,[rip+0x7866]        # c866 <_IO_stdin_used+0x866>
    5000:	48 89 c7             	mov    rdi,rax
    5003:	b8 00 00 00 00       	mov    eax,0x0
    5008:	e8 93 d0 ff ff       	call   20a0 <printf@plt>
    500d:	c7 45 d4 00 00 00 00 	mov    DWORD PTR [rbp-0x2c],0x0
    5014:	eb 48                	jmp    505e <DEBUG_PRINT_AST+0x55a>
    5016:	48 8b 45 c0          	mov    rax,QWORD PTR [rbp-0x40]
    501a:	8b 55 d4             	mov    edx,DWORD PTR [rbp-0x2c]
    501d:	48 63 d2             	movsxd rdx,edx
    5020:	48 83 c2 40          	add    rdx,0x40
    5024:	8b 44 90 08          	mov    eax,DWORD PTR [rax+rdx*4+0x8]
    5028:	89 c6                	mov    esi,eax
    502a:	48 8d 05 4f 78 00 00 	lea    rax,[rip+0x784f]        # c880 <_IO_stdin_used+0x880>
    5031:	48 89 c7             	mov    rdi,rax
    5034:	b8 00 00 00 00       	mov    eax,0x0
    5039:	e8 62 d0 ff ff       	call   20a0 <printf@plt>
    503e:	48 8b 45 c0          	mov    rax,QWORD PTR [rbp-0x40]
    5042:	8b 80 08 05 00 00    	mov    eax,DWORD PTR [rax+0x508]
    5048:	83 e8 01             	sub    eax,0x1
    504b:	39 45 d4             	cmp    DWORD PTR [rbp-0x2c],eax
    504e:	7d 0a                	jge    505a <DEBUG_PRINT_AST+0x556>
    5050:	bf 20 00 00 00       	mov    edi,0x20
    5055:	e8 e6 cf ff ff       	call   2040 <putchar@plt>
    505a:	83 45 d4 01          	add    DWORD PTR [rbp-0x2c],0x1
    505e:	48 8b 45 c0          	mov    rax,QWORD PTR [rbp-0x40]
    5062:	8b 80 08 05 00 00    	mov    eax,DWORD PTR [rax+0x508]
    5068:	39 45 d4             	cmp    DWORD PTR [rbp-0x2c],eax
    506b:	7c a9                	jl     5016 <DEBUG_PRINT_AST+0x512>
    506d:	bf 5d 00 00 00       	mov    edi,0x5d
    5072:	e8 c9 cf ff ff       	call   2040 <putchar@plt>
    5077:	e9 4d 01 00 00       	jmp    51c9 <DEBUG_PRINT_AST+0x6c5>
    507c:	48 8b 45 c0          	mov    rax,QWORD PTR [rbp-0x40]
    5080:	8b 80 08 09 00 00    	mov    eax,DWORD PTR [rax+0x908]
    5086:	48 98                	cdqe
    5088:	48 c1 e0 03          	shl    rax,0x3
    508c:	48 89 c6             	mov    rsi,rax
    508f:	48 8d 05 d0 77 00 00 	lea    rax,[rip+0x77d0]        # c866 <_IO_stdin_used+0x866>
    5096:	48 89 c7             	mov    rdi,rax
    5099:	b8 00 00 00 00       	mov    eax,0x0
    509e:	e8 fd cf ff ff       	call   20a0 <printf@plt>
    50a3:	c7 45 d0 00 00 00 00 	mov    DWORD PTR [rbp-0x30],0x0
    50aa:	eb 4a                	jmp    50f6 <DEBUG_PRINT_AST+0x5f2>
    50ac:	48 8b 45 c0          	mov    rax,QWORD PTR [rbp-0x40]
    50b0:	8b 55 d0             	mov    edx,DWORD PTR [rbp-0x30]
    50b3:	48 63 d2             	movsxd rdx,edx
    50b6:	48 83 c2 20          	add    rdx,0x20
    50ba:	48 8b 44 d0 08       	mov    rax,QWORD PTR [rax+rdx*8+0x8]
    50bf:	48 89 c6             	mov    rsi,rax
    50c2:	48 8d 05 bc 77 00 00 	lea    rax,[rip+0x77bc]        # c885 <_IO_stdin_used+0x885>
    50c9:	48 89 c7             	mov    rdi,rax
    50cc:	b8 00 00 00 00       	mov    eax,0x0
    50d1:	e8 ca cf ff ff       	call   20a0 <printf@plt>
    50d6:	48 8b 45 c0          	mov    rax,QWORD PTR [rbp-0x40]
    50da:	8b 80 08 09 00 00    	mov    eax,DWORD PTR [rax+0x908]
    50e0:	83 e8 01             	sub    eax,0x1
    50e3:	39 45 d0             	cmp    DWORD PTR [rbp-0x30],eax
    50e6:	7d 0a                	jge    50f2 <DEBUG_PRINT_AST+0x5ee>
    50e8:	bf 20 00 00 00       	mov    edi,0x20
    50ed:	e8 4e cf ff ff       	call   2040 <putchar@plt>
    50f2:	83 45 d0 01          	add    DWORD PTR [rbp-0x30],0x1
    50f6:	48 8b 45 c0          	mov    rax,QWORD PTR [rbp-0x40]
    50fa:	8b 80 08 09 00 00    	mov    eax,DWORD PTR [rax+0x908]
    5100:	39 45 d0             	cmp    DWORD PTR [rbp-0x30],eax
    5103:	7c a7                	jl     50ac <DEBUG_PRINT_AST+0x5a8>
    5105:	bf 5d 00 00 00       	mov    edi,0x5d
    510a:	e8 31 cf ff ff       	call   2040 <putchar@plt>
    510f:	e9 b5 00 00 00       	jmp    51c9 <DEBUG_PRINT_AST+0x6c5>
    5114:	48 8b 45 c0          	mov    rax,QWORD PTR [rbp-0x40]
    5118:	48 8b 80 08 01 00 00 	mov    rax,QWORD PTR [rax+0x108]
    511f:	48 89 c6             	mov    rsi,rax
    5122:	48 8d 05 64 77 00 00 	lea    rax,[rip+0x7764]        # c88d <_IO_stdin_used+0x88d>
    5129:	48 89 c7             	mov    rdi,rax
    512c:	b8 00 00 00 00       	mov    eax,0x0
    5131:	e8 6a cf ff ff       	call   20a0 <printf@plt>
    5136:	e9 8e 00 00 00       	jmp    51c9 <DEBUG_PRINT_AST+0x6c5>
    513b:	48 8b 45 c0          	mov    rax,QWORD PTR [rbp-0x40]
    513f:	48 8b 80 08 01 00 00 	mov    rax,QWORD PTR [rax+0x108]
    5146:	48 89 c6             	mov    rsi,rax
    5149:	48 8d 05 4d 77 00 00 	lea    rax,[rip+0x774d]        # c89d <_IO_stdin_used+0x89d>
    5150:	48 89 c7             	mov    rdi,rax
    5153:	b8 00 00 00 00       	mov    eax,0x0
    5158:	e8 43 cf ff ff       	call   20a0 <printf@plt>
    515d:	eb 6a                	jmp    51c9 <DEBUG_PRINT_AST+0x6c5>
    515f:	48 8b 45 c0          	mov    rax,QWORD PTR [rbp-0x40]
    5163:	48 8b 80 08 01 00 00 	mov    rax,QWORD PTR [rax+0x108]
    516a:	48 89 c6             	mov    rsi,rax
    516d:	48 8d 05 3a 77 00 00 	lea    rax,[rip+0x773a]        # c8ae <_IO_stdin_used+0x8ae>
    5174:	48 89 c7             	mov    rdi,rax
    5177:	b8 00 00 00 00       	mov    eax,0x0
    517c:	e8 1f cf ff ff       	call   20a0 <printf@plt>
    5181:	eb 46                	jmp    51c9 <DEBUG_PRINT_AST+0x6c5>
    5183:	48 8b 45 c0          	mov    rax,QWORD PTR [rbp-0x40]
    5187:	48 8b 80 08 01 00 00 	mov    rax,QWORD PTR [rax+0x108]
    518e:	48 89 c6             	mov    rsi,rax
    5191:	48 8d 05 27 77 00 00 	lea    rax,[rip+0x7727]        # c8bf <_IO_stdin_used+0x8bf>
    5198:	48 89 c7             	mov    rdi,rax
    519b:	b8 00 00 00 00       	mov    eax,0x0
    51a0:	e8 fb ce ff ff       	call   20a0 <printf@plt>
    51a5:	eb 22                	jmp    51c9 <DEBUG_PRINT_AST+0x6c5>
    51a7:	48 8b 45 c0          	mov    rax,QWORD PTR [rbp-0x40]
    51ab:	48 05 08 01 00 00    	add    rax,0x108
    51b1:	48 89 c6             	mov    rsi,rax
    51b4:	48 8d 05 15 77 00 00 	lea    rax,[rip+0x7715]        # c8d0 <_IO_stdin_used+0x8d0>
    51bb:	48 89 c7             	mov    rdi,rax
    51be:	b8 00 00 00 00       	mov    eax,0x0
    51c3:	e8 d8 ce ff ff       	call   20a0 <printf@plt>
    51c8:	90                   	nop
    51c9:	48 8b 45 c0          	mov    rax,QWORD PTR [rbp-0x40]
    51cd:	0f b6 80 50 09 00 00 	movzx  eax,BYTE PTR [rax+0x950]
    51d4:	84 c0                	test   al,al
    51d6:	0f 84 88 00 00 00    	je     5264 <DEBUG_PRINT_AST+0x760>
    51dc:	48 8d 05 f8 76 00 00 	lea    rax,[rip+0x76f8]        # c8db <_IO_stdin_used+0x8db>
    51e3:	48 89 c7             	mov    rdi,rax
    51e6:	b8 00 00 00 00       	mov    eax,0x0
    51eb:	e8 b0 ce ff ff       	call   20a0 <printf@plt>
    51f0:	c7 45 cc 00 00 00 00 	mov    DWORD PTR [rbp-0x34],0x0
    51f7:	eb 4e                	jmp    5247 <DEBUG_PRINT_AST+0x743>
    51f9:	48 8b 55 c0          	mov    rdx,QWORD PTR [rbp-0x40]
    51fd:	8b 45 cc             	mov    eax,DWORD PTR [rbp-0x34]
    5200:	48 98                	cdqe
    5202:	0f b6 84 02 10 09 00 	movzx  eax,BYTE PTR [rdx+rax*1+0x910]
    5209:	00 
    520a:	0f b6 c0             	movzx  eax,al
    520d:	89 c6                	mov    esi,eax
    520f:	48 8d 05 60 76 00 00 	lea    rax,[rip+0x7660]        # c876 <_IO_stdin_used+0x876>
    5216:	48 89 c7             	mov    rdi,rax
    5219:	b8 00 00 00 00       	mov    eax,0x0
    521e:	e8 7d ce ff ff       	call   20a0 <printf@plt>
    5223:	48 8b 45 c0          	mov    rax,QWORD PTR [rbp-0x40]
    5227:	0f b6 80 50 09 00 00 	movzx  eax,BYTE PTR [rax+0x950]
    522e:	0f b6 c0             	movzx  eax,al
    5231:	83 e8 01             	sub    eax,0x1
    5234:	39 45 cc             	cmp    DWORD PTR [rbp-0x34],eax
    5237:	7d 0a                	jge    5243 <DEBUG_PRINT_AST+0x73f>
    5239:	bf 20 00 00 00       	mov    edi,0x20
    523e:	e8 fd cd ff ff       	call   2040 <putchar@plt>
    5243:	83 45 cc 01          	add    DWORD PTR [rbp-0x34],0x1
    5247:	48 8b 45 c0          	mov    rax,QWORD PTR [rbp-0x40]
    524b:	0f b6 80 50 09 00 00 	movzx  eax,BYTE PTR [rax+0x950]
    5252:	0f b6 c0             	movzx  eax,al
    5255:	39 45 cc             	cmp    DWORD PTR [rbp-0x34],eax
    5258:	7c 9f                	jl     51f9 <DEBUG_PRINT_AST+0x6f5>
    525a:	bf 5d 00 00 00       	mov    edi,0x5d
    525f:	e8 dc cd ff ff       	call   2040 <putchar@plt>
    5264:	bf 0a 00 00 00       	mov    edi,0xa
    5269:	e8 d2 cd ff ff       	call   2040 <putchar@plt>
    526e:	83 45 fc 01          	add    DWORD PTR [rbp-0x4],0x1
    5272:	8b 05 48 64 26 00    	mov    eax,DWORD PTR [rip+0x266448]        # 26b6c0 <ast_count>
    5278:	39 45 fc             	cmp    DWORD PTR [rbp-0x4],eax
    527b:	0f 8c b3 f8 ff ff    	jl     4b34 <DEBUG_PRINT_AST+0x30>
    5281:	48 8d 05 63 76 00 00 	lea    rax,[rip+0x7663]        # c8eb <_IO_stdin_used+0x8eb>
    5288:	48 89 c7             	mov    rdi,rax
    528b:	e8 f0 cd ff ff       	call   2080 <puts@plt>
    5290:	90                   	nop
    5291:	c9                   	leave
    5292:	c3                   	ret

0000000000005293 <collect_labels>:
collect_labels():
    5293:	55                   	push   rbp
    5294:	48 89 e5             	mov    rbp,rsp
    5297:	48 83 ec 20          	sub    rsp,0x20
    529b:	48 c7 45 f8 00 10 40 	mov    QWORD PTR [rbp-0x8],0x401000
    52a2:	00 
    52a3:	c6 45 f7 00          	mov    BYTE PTR [rbp-0x9],0x0
    52a7:	48 c7 45 e8 00 10 40 	mov    QWORD PTR [rbp-0x18],0x401000
    52ae:	00 
    52af:	c7 45 e4 00 00 00 00 	mov    DWORD PTR [rbp-0x1c],0x0
    52b6:	e9 2f 02 00 00       	jmp    54ea <collect_labels+0x257>
    52bb:	8b 45 e4             	mov    eax,DWORD PTR [rbp-0x1c]
    52be:	48 98                	cdqe
    52c0:	48 69 c0 58 09 00 00 	imul   rax,rax,0x958
    52c7:	48 8d 15 f2 03 01 00 	lea    rdx,[rip+0x103f2]        # 156c0 <ast>
    52ce:	8b 04 10             	mov    eax,DWORD PTR [rax+rdx*1]
    52d1:	83 f8 0e             	cmp    eax,0xe
    52d4:	0f 85 d8 00 00 00    	jne    53b2 <collect_labels+0x11f>
    52da:	8b 45 e4             	mov    eax,DWORD PTR [rbp-0x1c]
    52dd:	48 98                	cdqe
    52df:	48 69 c0 58 09 00 00 	imul   rax,rax,0x958
    52e6:	48 8d 0d 1b 05 01 00 	lea    rcx,[rip+0x1051b]        # 15808 <ast+0x148>
    52ed:	48 8b 55 f8          	mov    rdx,QWORD PTR [rbp-0x8]
    52f1:	48 89 14 08          	mov    QWORD PTR [rax+rcx*1],rdx
    52f5:	8b 45 e4             	mov    eax,DWORD PTR [rbp-0x1c]
    52f8:	48 98                	cdqe
    52fa:	48 69 c0 58 09 00 00 	imul   rax,rax,0x958
    5301:	48 8d 0d 08 05 01 00 	lea    rcx,[rip+0x10508]        # 15810 <ast+0x150>
    5308:	48 8b 55 f8          	mov    rdx,QWORD PTR [rbp-0x8]
    530c:	48 89 14 08          	mov    QWORD PTR [rax+rcx*1],rdx
    5310:	8b 45 e4             	mov    eax,DWORD PTR [rbp-0x1c]
    5313:	48 98                	cdqe
    5315:	48 69 c0 58 09 00 00 	imul   rax,rax,0x958
    531c:	48 8d 15 f5 04 01 00 	lea    rdx,[rip+0x104f5]        # 15818 <ast+0x158>
    5323:	c6 04 10 01          	mov    BYTE PTR [rax+rdx*1],0x1
    5327:	8b 45 e4             	mov    eax,DWORD PTR [rbp-0x1c]
    532a:	48 98                	cdqe
    532c:	48 69 c0 58 09 00 00 	imul   rax,rax,0x958
    5333:	48 8d 90 00 01 00 00 	lea    rdx,[rax+0x100]
    533a:	48 8d 05 7f 03 01 00 	lea    rax,[rip+0x1037f]        # 156c0 <ast>
    5341:	48 01 d0             	add    rax,rdx
    5344:	48 8d 48 08          	lea    rcx,[rax+0x8]
    5348:	48 8b 45 f8          	mov    rax,QWORD PTR [rbp-0x8]
    534c:	48 89 c2             	mov    rdx,rax
    534f:	48 89 ce             	mov    rsi,rcx
    5352:	48 8d 05 67 76 00 00 	lea    rax,[rip+0x7667]        # c9c0 <_IO_stdin_used+0x9c0>
    5359:	48 89 c7             	mov    rdi,rax
    535c:	b8 00 00 00 00       	mov    eax,0x0
    5361:	e8 3a cd ff ff       	call   20a0 <printf@plt>
    5366:	8b 45 e4             	mov    eax,DWORD PTR [rbp-0x1c]
    5369:	48 98                	cdqe
    536b:	48 69 c0 58 09 00 00 	imul   rax,rax,0x958
    5372:	48 8d 90 00 01 00 00 	lea    rdx,[rax+0x100]
    5379:	48 8d 05 40 03 01 00 	lea    rax,[rip+0x10340]        # 156c0 <ast>
    5380:	48 01 d0             	add    rax,rdx
    5383:	48 83 c0 08          	add    rax,0x8
    5387:	48 8d 15 47 76 00 00 	lea    rdx,[rip+0x7647]        # c9d5 <_IO_stdin_used+0x9d5>
    538e:	48 89 d6             	mov    rsi,rdx
    5391:	48 89 c7             	mov    rdi,rax
    5394:	e8 57 cd ff ff       	call   20f0 <strcmp@plt>
    5399:	85 c0                	test   eax,eax
    539b:	0f 85 45 01 00 00    	jne    54e6 <collect_labels+0x253>
    53a1:	c6 45 f7 01          	mov    BYTE PTR [rbp-0x9],0x1
    53a5:	48 8b 45 f8          	mov    rax,QWORD PTR [rbp-0x8]
    53a9:	48 89 45 e8          	mov    QWORD PTR [rbp-0x18],rax
    53ad:	e9 34 01 00 00       	jmp    54e6 <collect_labels+0x253>
    53b2:	8b 45 e4             	mov    eax,DWORD PTR [rbp-0x1c]
    53b5:	48 98                	cdqe
    53b7:	48 69 c0 58 09 00 00 	imul   rax,rax,0x958
    53be:	48 8d 15 fb 02 01 00 	lea    rdx,[rip+0x102fb]        # 156c0 <ast>
    53c5:	8b 04 10             	mov    eax,DWORD PTR [rax+rdx*1]
    53c8:	83 f8 01             	cmp    eax,0x1
    53cb:	75 1f                	jne    53ec <collect_labels+0x159>
    53cd:	8b 45 e4             	mov    eax,DWORD PTR [rbp-0x1c]
    53d0:	48 98                	cdqe
    53d2:	48 69 c0 58 09 00 00 	imul   rax,rax,0x958
    53d9:	48 8d 15 30 0c 01 00 	lea    rdx,[rip+0x10c30]        # 16010 <ast+0x950>
    53e0:	0f b6 04 10          	movzx  eax,BYTE PTR [rax+rdx*1]
    53e4:	84 c0                	test   al,al
    53e6:	0f 85 dc 00 00 00    	jne    54c8 <collect_labels+0x235>
    53ec:	8b 45 e4             	mov    eax,DWORD PTR [rbp-0x1c]
    53ef:	48 98                	cdqe
    53f1:	48 69 c0 58 09 00 00 	imul   rax,rax,0x958
    53f8:	48 8d 15 c1 02 01 00 	lea    rdx,[rip+0x102c1]        # 156c0 <ast>
    53ff:	8b 04 10             	mov    eax,DWORD PTR [rax+rdx*1]
    5402:	83 f8 02             	cmp    eax,0x2
    5405:	75 1f                	jne    5426 <collect_labels+0x193>
    5407:	8b 45 e4             	mov    eax,DWORD PTR [rbp-0x1c]
    540a:	48 98                	cdqe
    540c:	48 69 c0 58 09 00 00 	imul   rax,rax,0x958
    5413:	48 8d 15 f6 0b 01 00 	lea    rdx,[rip+0x10bf6]        # 16010 <ast+0x950>
    541a:	0f b6 04 10          	movzx  eax,BYTE PTR [rax+rdx*1]
    541e:	84 c0                	test   al,al
    5420:	0f 85 a2 00 00 00    	jne    54c8 <collect_labels+0x235>
    5426:	8b 45 e4             	mov    eax,DWORD PTR [rbp-0x1c]
    5429:	48 98                	cdqe
    542b:	48 69 c0 58 09 00 00 	imul   rax,rax,0x958
    5432:	48 8d 15 87 02 01 00 	lea    rdx,[rip+0x10287]        # 156c0 <ast>
    5439:	8b 04 10             	mov    eax,DWORD PTR [rax+rdx*1]
    543c:	83 f8 04             	cmp    eax,0x4
    543f:	75 1b                	jne    545c <collect_labels+0x1c9>
    5441:	8b 45 e4             	mov    eax,DWORD PTR [rbp-0x1c]
    5444:	48 98                	cdqe
    5446:	48 69 c0 58 09 00 00 	imul   rax,rax,0x958
    544d:	48 8d 15 bc 0b 01 00 	lea    rdx,[rip+0x10bbc]        # 16010 <ast+0x950>
    5454:	0f b6 04 10          	movzx  eax,BYTE PTR [rax+rdx*1]
    5458:	84 c0                	test   al,al
    545a:	75 6c                	jne    54c8 <collect_labels+0x235>
    545c:	8b 45 e4             	mov    eax,DWORD PTR [rbp-0x1c]
    545f:	48 98                	cdqe
    5461:	48 69 c0 58 09 00 00 	imul   rax,rax,0x958
    5468:	48 8d 15 51 02 01 00 	lea    rdx,[rip+0x10251]        # 156c0 <ast>
    546f:	8b 04 10             	mov    eax,DWORD PTR [rax+rdx*1]
    5472:	83 f8 06             	cmp    eax,0x6
    5475:	75 1b                	jne    5492 <collect_labels+0x1ff>
    5477:	8b 45 e4             	mov    eax,DWORD PTR [rbp-0x1c]
    547a:	48 98                	cdqe
    547c:	48 69 c0 58 09 00 00 	imul   rax,rax,0x958
    5483:	48 8d 15 86 0b 01 00 	lea    rdx,[rip+0x10b86]        # 16010 <ast+0x950>
    548a:	0f b6 04 10          	movzx  eax,BYTE PTR [rax+rdx*1]
    548e:	84 c0                	test   al,al
    5490:	75 36                	jne    54c8 <collect_labels+0x235>
    5492:	8b 45 e4             	mov    eax,DWORD PTR [rbp-0x1c]
    5495:	48 98                	cdqe
    5497:	48 69 c0 58 09 00 00 	imul   rax,rax,0x958
    549e:	48 8d 15 1b 02 01 00 	lea    rdx,[rip+0x1021b]        # 156c0 <ast>
    54a5:	8b 04 10             	mov    eax,DWORD PTR [rax+rdx*1]
    54a8:	83 f8 08             	cmp    eax,0x8
    54ab:	75 39                	jne    54e6 <collect_labels+0x253>
    54ad:	8b 45 e4             	mov    eax,DWORD PTR [rbp-0x1c]
    54b0:	48 98                	cdqe
    54b2:	48 69 c0 58 09 00 00 	imul   rax,rax,0x958
    54b9:	48 8d 15 50 0b 01 00 	lea    rdx,[rip+0x10b50]        # 16010 <ast+0x950>
    54c0:	0f b6 04 10          	movzx  eax,BYTE PTR [rax+rdx*1]
    54c4:	84 c0                	test   al,al
    54c6:	74 1e                	je     54e6 <collect_labels+0x253>
    54c8:	8b 45 e4             	mov    eax,DWORD PTR [rbp-0x1c]
    54cb:	48 98                	cdqe
    54cd:	48 69 c0 58 09 00 00 	imul   rax,rax,0x958
    54d4:	48 8d 15 35 0b 01 00 	lea    rdx,[rip+0x10b35]        # 16010 <ast+0x950>
    54db:	0f b6 04 10          	movzx  eax,BYTE PTR [rax+rdx*1]
    54df:	0f b6 c0             	movzx  eax,al
    54e2:	48 01 45 f8          	add    QWORD PTR [rbp-0x8],rax
    54e6:	83 45 e4 01          	add    DWORD PTR [rbp-0x1c],0x1
    54ea:	8b 05 d0 61 26 00    	mov    eax,DWORD PTR [rip+0x2661d0]        # 26b6c0 <ast_count>
    54f0:	39 45 e4             	cmp    DWORD PTR [rbp-0x1c],eax
    54f3:	0f 8c c2 fd ff ff    	jl     52bb <collect_labels+0x28>
    54f9:	80 7d f7 00          	cmp    BYTE PTR [rbp-0x9],0x0
    54fd:	75 0f                	jne    550e <collect_labels+0x27b>
    54ff:	48 8d 05 da 74 00 00 	lea    rax,[rip+0x74da]        # c9e0 <_IO_stdin_used+0x9e0>
    5506:	48 89 c7             	mov    rdi,rax
    5509:	e8 72 cb ff ff       	call   2080 <puts@plt>
    550e:	48 8b 45 e8          	mov    rax,QWORD PTR [rbp-0x18]
    5512:	c9                   	leave
    5513:	c3                   	ret

0000000000005514 <resolve_labels>:
resolve_labels():
    5514:	55                   	push   rbp
    5515:	48 89 e5             	mov    rbp,rsp
    5518:	48 83 ec 60          	sub    rsp,0x60
    551c:	c7 45 fc 00 00 00 00 	mov    DWORD PTR [rbp-0x4],0x0
    5523:	e9 a4 04 00 00       	jmp    59cc <resolve_labels+0x4b8>
    5528:	8b 45 fc             	mov    eax,DWORD PTR [rbp-0x4]
    552b:	48 98                	cdqe
    552d:	48 69 c0 58 09 00 00 	imul   rax,rax,0x958
    5534:	48 8d 15 85 01 01 00 	lea    rdx,[rip+0x10185]        # 156c0 <ast>
    553b:	48 01 d0             	add    rax,rdx
    553e:	48 89 45 c0          	mov    QWORD PTR [rbp-0x40],rax
    5542:	48 8b 45 c0          	mov    rax,QWORD PTR [rbp-0x40]
    5546:	8b 00                	mov    eax,DWORD PTR [rax]
    5548:	83 f8 01             	cmp    eax,0x1
    554b:	0f 85 76 04 00 00    	jne    59c7 <resolve_labels+0x4b3>
    5551:	48 8b 45 c0          	mov    rax,QWORD PTR [rbp-0x40]
    5555:	8b 80 a8 01 00 00    	mov    eax,DWORD PTR [rax+0x1a8]
    555b:	85 c0                	test   eax,eax
    555d:	0f 85 64 04 00 00    	jne    59c7 <resolve_labels+0x4b3>
    5563:	48 8b 45 c0          	mov    rax,QWORD PTR [rbp-0x40]
    5567:	48 83 c0 04          	add    rax,0x4
    556b:	48 8d 15 96 6a 00 00 	lea    rdx,[rip+0x6a96]        # c008 <_IO_stdin_used+0x8>
    5572:	48 89 d6             	mov    rsi,rdx
    5575:	48 89 c7             	mov    rdi,rax
    5578:	e8 d3 ca ff ff       	call   2050 <strcasecmp@plt>
    557d:	85 c0                	test   eax,eax
    557f:	0f 85 31 01 00 00    	jne    56b6 <resolve_labels+0x1a2>
    5585:	48 8b 45 c0          	mov    rax,QWORD PTR [rbp-0x40]
    5589:	8b 80 94 01 00 00    	mov    eax,DWORD PTR [rax+0x194]
    558f:	83 f8 06             	cmp    eax,0x6
    5592:	0f 85 1e 01 00 00    	jne    56b6 <resolve_labels+0x1a2>
    5598:	48 8b 45 c0          	mov    rax,QWORD PTR [rbp-0x40]
    559c:	8b 80 98 01 00 00    	mov    eax,DWORD PTR [rax+0x198]
    55a2:	83 f8 09             	cmp    eax,0x9
    55a5:	0f 85 0b 01 00 00    	jne    56b6 <resolve_labels+0x1a2>
    55ab:	48 8b 45 c0          	mov    rax,QWORD PTR [rbp-0x40]
    55af:	48 05 2b 01 00 00    	add    rax,0x12b
    55b5:	48 89 45 b8          	mov    QWORD PTR [rbp-0x48],rax
    55b9:	48 c7 45 f0 00 00 00 	mov    QWORD PTR [rbp-0x10],0x0
    55c0:	00 
    55c1:	c7 45 ec 00 00 00 00 	mov    DWORD PTR [rbp-0x14],0x0
    55c8:	c7 45 e8 00 00 00 00 	mov    DWORD PTR [rbp-0x18],0x0
    55cf:	eb 77                	jmp    5648 <resolve_labels+0x134>
    55d1:	8b 45 e8             	mov    eax,DWORD PTR [rbp-0x18]
    55d4:	48 98                	cdqe
    55d6:	48 69 c0 58 09 00 00 	imul   rax,rax,0x958
    55dd:	48 8d 15 dc 00 01 00 	lea    rdx,[rip+0x100dc]        # 156c0 <ast>
    55e4:	8b 04 10             	mov    eax,DWORD PTR [rax+rdx*1]
    55e7:	83 f8 0e             	cmp    eax,0xe
    55ea:	75 58                	jne    5644 <resolve_labels+0x130>
    55ec:	8b 45 e8             	mov    eax,DWORD PTR [rbp-0x18]
    55ef:	48 98                	cdqe
    55f1:	48 69 c0 58 09 00 00 	imul   rax,rax,0x958
    55f8:	48 8d 90 00 01 00 00 	lea    rdx,[rax+0x100]
    55ff:	48 8d 05 ba 00 01 00 	lea    rax,[rip+0x100ba]        # 156c0 <ast>
    5606:	48 01 d0             	add    rax,rdx
    5609:	48 8d 50 08          	lea    rdx,[rax+0x8]
    560d:	48 8b 45 b8          	mov    rax,QWORD PTR [rbp-0x48]
    5611:	48 89 c6             	mov    rsi,rax
    5614:	48 89 d7             	mov    rdi,rdx
    5617:	e8 d4 ca ff ff       	call   20f0 <strcmp@plt>
    561c:	85 c0                	test   eax,eax
    561e:	75 24                	jne    5644 <resolve_labels+0x130>
    5620:	8b 45 e8             	mov    eax,DWORD PTR [rbp-0x18]
    5623:	48 98                	cdqe
    5625:	48 69 c0 58 09 00 00 	imul   rax,rax,0x958
    562c:	48 8d 15 dd 01 01 00 	lea    rdx,[rip+0x101dd]        # 15810 <ast+0x150>
    5633:	48 8b 04 10          	mov    rax,QWORD PTR [rax+rdx*1]
    5637:	48 89 45 f0          	mov    QWORD PTR [rbp-0x10],rax
    563b:	c7 45 ec 01 00 00 00 	mov    DWORD PTR [rbp-0x14],0x1
    5642:	eb 13                	jmp    5657 <resolve_labels+0x143>
    5644:	83 45 e8 01          	add    DWORD PTR [rbp-0x18],0x1
    5648:	8b 05 72 60 26 00    	mov    eax,DWORD PTR [rip+0x266072]        # 26b6c0 <ast_count>
    564e:	39 45 e8             	cmp    DWORD PTR [rbp-0x18],eax
    5651:	0f 8c 7a ff ff ff    	jl     55d1 <resolve_labels+0xbd>
    5657:	83 7d ec 00          	cmp    DWORD PTR [rbp-0x14],0x0
    565b:	75 2c                	jne    5689 <resolve_labels+0x175>
    565d:	48 8b 05 fc 9f 00 00 	mov    rax,QWORD PTR [rip+0x9ffc]        # f660 <stderr@GLIBC_2.2.5>
    5664:	48 8b 55 b8          	mov    rdx,QWORD PTR [rbp-0x48]
    5668:	48 8d 0d bb 73 00 00 	lea    rcx,[rip+0x73bb]        # ca2a <_IO_stdin_used+0xa2a>
    566f:	48 89 ce             	mov    rsi,rcx
    5672:	48 89 c7             	mov    rdi,rax
    5675:	b8 00 00 00 00       	mov    eax,0x0
    567a:	e8 81 ca ff ff       	call   2100 <fprintf@plt>
    567f:	bf 01 00 00 00       	mov    edi,0x1
    5684:	e8 d7 ca ff ff       	call   2160 <exit@plt>
    5689:	48 8b 45 c0          	mov    rax,QWORD PTR [rbp-0x40]
    568d:	48 8d 90 12 09 00 00 	lea    rdx,[rax+0x912]
    5694:	48 8b 45 f0          	mov    rax,QWORD PTR [rbp-0x10]
    5698:	48 89 d6             	mov    rsi,rdx
    569b:	48 89 c7             	mov    rdi,rax
    569e:	e8 3b db ff ff       	call   31de <As64>
    56a3:	48 8b 45 c0          	mov    rax,QWORD PTR [rbp-0x40]
    56a7:	c7 80 a8 01 00 00 01 	mov    DWORD PTR [rax+0x1a8],0x1
    56ae:	00 00 00 
    56b1:	e9 12 03 00 00       	jmp    59c8 <resolve_labels+0x4b4>
    56b6:	48 8b 45 c0          	mov    rax,QWORD PTR [rbp-0x40]
    56ba:	48 83 c0 04          	add    rax,0x4
    56be:	48 8d 15 5d 69 00 00 	lea    rdx,[rip+0x695d]        # c022 <_IO_stdin_used+0x22>
    56c5:	48 89 d6             	mov    rsi,rdx
    56c8:	48 89 c7             	mov    rdi,rax
    56cb:	e8 80 c9 ff ff       	call   2050 <strcasecmp@plt>
    56d0:	85 c0                	test   eax,eax
    56d2:	74 40                	je     5714 <resolve_labels+0x200>
    56d4:	48 8b 45 c0          	mov    rax,QWORD PTR [rbp-0x40]
    56d8:	48 83 c0 04          	add    rax,0x4
    56dc:	48 8d 15 3a 69 00 00 	lea    rdx,[rip+0x693a]        # c01d <_IO_stdin_used+0x1d>
    56e3:	48 89 d6             	mov    rsi,rdx
    56e6:	48 89 c7             	mov    rdi,rax
    56e9:	e8 62 c9 ff ff       	call   2050 <strcasecmp@plt>
    56ee:	85 c0                	test   eax,eax
    56f0:	74 22                	je     5714 <resolve_labels+0x200>
    56f2:	48 8b 45 c0          	mov    rax,QWORD PTR [rbp-0x40]
    56f6:	48 83 c0 04          	add    rax,0x4
    56fa:	48 89 c6             	mov    rsi,rax
    56fd:	48 8d 05 fc 9a 00 00 	lea    rax,[rip+0x9afc]        # f200 <JCC>
    5704:	48 89 c7             	mov    rdi,rax
    5707:	e8 de cb ff ff       	call   22ea <is2arrin>
    570c:	85 c0                	test   eax,eax
    570e:	0f 84 b4 02 00 00    	je     59c8 <resolve_labels+0x4b4>
    5714:	48 8b 45 c0          	mov    rax,QWORD PTR [rbp-0x40]
    5718:	8b 80 94 01 00 00    	mov    eax,DWORD PTR [rax+0x194]
    571e:	83 f8 09             	cmp    eax,0x9
    5721:	0f 85 a1 02 00 00    	jne    59c8 <resolve_labels+0x4b4>
    5727:	48 8b 45 c0          	mov    rax,QWORD PTR [rbp-0x40]
    572b:	48 05 08 01 00 00    	add    rax,0x108
    5731:	48 89 45 b0          	mov    QWORD PTR [rbp-0x50],rax
    5735:	48 c7 45 e0 00 00 00 	mov    QWORD PTR [rbp-0x20],0x0
    573c:	00 
    573d:	c7 45 dc 00 00 00 00 	mov    DWORD PTR [rbp-0x24],0x0
    5744:	c7 45 d8 00 00 00 00 	mov    DWORD PTR [rbp-0x28],0x0
    574b:	eb 77                	jmp    57c4 <resolve_labels+0x2b0>
    574d:	8b 45 d8             	mov    eax,DWORD PTR [rbp-0x28]
    5750:	48 98                	cdqe
    5752:	48 69 c0 58 09 00 00 	imul   rax,rax,0x958
    5759:	48 8d 15 60 ff 00 00 	lea    rdx,[rip+0xff60]        # 156c0 <ast>
    5760:	8b 04 10             	mov    eax,DWORD PTR [rax+rdx*1]
    5763:	83 f8 0e             	cmp    eax,0xe
    5766:	75 58                	jne    57c0 <resolve_labels+0x2ac>
    5768:	8b 45 d8             	mov    eax,DWORD PTR [rbp-0x28]
    576b:	48 98                	cdqe
    576d:	48 69 c0 58 09 00 00 	imul   rax,rax,0x958
    5774:	48 8d 90 00 01 00 00 	lea    rdx,[rax+0x100]
    577b:	48 8d 05 3e ff 00 00 	lea    rax,[rip+0xff3e]        # 156c0 <ast>
    5782:	48 01 d0             	add    rax,rdx
    5785:	48 8d 50 08          	lea    rdx,[rax+0x8]
    5789:	48 8b 45 b0          	mov    rax,QWORD PTR [rbp-0x50]
    578d:	48 89 c6             	mov    rsi,rax
    5790:	48 89 d7             	mov    rdi,rdx
    5793:	e8 58 c9 ff ff       	call   20f0 <strcmp@plt>
    5798:	85 c0                	test   eax,eax
    579a:	75 24                	jne    57c0 <resolve_labels+0x2ac>
    579c:	8b 45 d8             	mov    eax,DWORD PTR [rbp-0x28]
    579f:	48 98                	cdqe
    57a1:	48 69 c0 58 09 00 00 	imul   rax,rax,0x958
    57a8:	48 8d 15 61 00 01 00 	lea    rdx,[rip+0x10061]        # 15810 <ast+0x150>
    57af:	48 8b 04 10          	mov    rax,QWORD PTR [rax+rdx*1]
    57b3:	48 89 45 e0          	mov    QWORD PTR [rbp-0x20],rax
    57b7:	c7 45 dc 01 00 00 00 	mov    DWORD PTR [rbp-0x24],0x1
    57be:	eb 13                	jmp    57d3 <resolve_labels+0x2bf>
    57c0:	83 45 d8 01          	add    DWORD PTR [rbp-0x28],0x1
    57c4:	8b 05 f6 5e 26 00    	mov    eax,DWORD PTR [rip+0x265ef6]        # 26b6c0 <ast_count>
    57ca:	39 45 d8             	cmp    DWORD PTR [rbp-0x28],eax
    57cd:	0f 8c 7a ff ff ff    	jl     574d <resolve_labels+0x239>
    57d3:	83 7d dc 00          	cmp    DWORD PTR [rbp-0x24],0x0
    57d7:	75 2c                	jne    5805 <resolve_labels+0x2f1>
    57d9:	48 8b 05 80 9e 00 00 	mov    rax,QWORD PTR [rip+0x9e80]        # f660 <stderr@GLIBC_2.2.5>
    57e0:	48 8b 55 b0          	mov    rdx,QWORD PTR [rbp-0x50]
    57e4:	48 8d 0d 3f 72 00 00 	lea    rcx,[rip+0x723f]        # ca2a <_IO_stdin_used+0xa2a>
    57eb:	48 89 ce             	mov    rsi,rcx
    57ee:	48 89 c7             	mov    rdi,rax
    57f1:	b8 00 00 00 00       	mov    eax,0x0
    57f6:	e8 05 c9 ff ff       	call   2100 <fprintf@plt>
    57fb:	bf 01 00 00 00       	mov    edi,0x1
    5800:	e8 5b c9 ff ff       	call   2160 <exit@plt>
    5805:	48 c7 45 d0 00 10 40 	mov    QWORD PTR [rbp-0x30],0x401000
    580c:	00 
    580d:	c7 45 cc 00 00 00 00 	mov    DWORD PTR [rbp-0x34],0x0
    5814:	e9 38 01 00 00       	jmp    5951 <resolve_labels+0x43d>
    5819:	8b 45 cc             	mov    eax,DWORD PTR [rbp-0x34]
    581c:	48 98                	cdqe
    581e:	48 69 c0 58 09 00 00 	imul   rax,rax,0x958
    5825:	48 8d 15 94 fe 00 00 	lea    rdx,[rip+0xfe94]        # 156c0 <ast>
    582c:	8b 04 10             	mov    eax,DWORD PTR [rax+rdx*1]
    582f:	83 f8 01             	cmp    eax,0x1
    5832:	75 1f                	jne    5853 <resolve_labels+0x33f>
    5834:	8b 45 cc             	mov    eax,DWORD PTR [rbp-0x34]
    5837:	48 98                	cdqe
    5839:	48 69 c0 58 09 00 00 	imul   rax,rax,0x958
    5840:	48 8d 15 c9 07 01 00 	lea    rdx,[rip+0x107c9]        # 16010 <ast+0x950>
    5847:	0f b6 04 10          	movzx  eax,BYTE PTR [rax+rdx*1]
    584b:	84 c0                	test   al,al
    584d:	0f 85 dc 00 00 00    	jne    592f <resolve_labels+0x41b>
    5853:	8b 45 cc             	mov    eax,DWORD PTR [rbp-0x34]
    5856:	48 98                	cdqe
    5858:	48 69 c0 58 09 00 00 	imul   rax,rax,0x958
    585f:	48 8d 15 5a fe 00 00 	lea    rdx,[rip+0xfe5a]        # 156c0 <ast>
    5866:	8b 04 10             	mov    eax,DWORD PTR [rax+rdx*1]
    5869:	83 f8 02             	cmp    eax,0x2
    586c:	75 1f                	jne    588d <resolve_labels+0x379>
    586e:	8b 45 cc             	mov    eax,DWORD PTR [rbp-0x34]
    5871:	48 98                	cdqe
    5873:	48 69 c0 58 09 00 00 	imul   rax,rax,0x958
    587a:	48 8d 15 8f 07 01 00 	lea    rdx,[rip+0x1078f]        # 16010 <ast+0x950>
    5881:	0f b6 04 10          	movzx  eax,BYTE PTR [rax+rdx*1]
    5885:	84 c0                	test   al,al
    5887:	0f 85 a2 00 00 00    	jne    592f <resolve_labels+0x41b>
    588d:	8b 45 cc             	mov    eax,DWORD PTR [rbp-0x34]
    5890:	48 98                	cdqe
    5892:	48 69 c0 58 09 00 00 	imul   rax,rax,0x958
    5899:	48 8d 15 20 fe 00 00 	lea    rdx,[rip+0xfe20]        # 156c0 <ast>
    58a0:	8b 04 10             	mov    eax,DWORD PTR [rax+rdx*1]
    58a3:	83 f8 04             	cmp    eax,0x4
    58a6:	75 1b                	jne    58c3 <resolve_labels+0x3af>
    58a8:	8b 45 cc             	mov    eax,DWORD PTR [rbp-0x34]
    58ab:	48 98                	cdqe
    58ad:	48 69 c0 58 09 00 00 	imul   rax,rax,0x958
    58b4:	48 8d 15 55 07 01 00 	lea    rdx,[rip+0x10755]        # 16010 <ast+0x950>
    58bb:	0f b6 04 10          	movzx  eax,BYTE PTR [rax+rdx*1]
    58bf:	84 c0                	test   al,al
    58c1:	75 6c                	jne    592f <resolve_labels+0x41b>
    58c3:	8b 45 cc             	mov    eax,DWORD PTR [rbp-0x34]
    58c6:	48 98                	cdqe
    58c8:	48 69 c0 58 09 00 00 	imul   rax,rax,0x958
    58cf:	48 8d 15 ea fd 00 00 	lea    rdx,[rip+0xfdea]        # 156c0 <ast>
    58d6:	8b 04 10             	mov    eax,DWORD PTR [rax+rdx*1]
    58d9:	83 f8 06             	cmp    eax,0x6
    58dc:	75 1b                	jne    58f9 <resolve_labels+0x3e5>
    58de:	8b 45 cc             	mov    eax,DWORD PTR [rbp-0x34]
    58e1:	48 98                	cdqe
    58e3:	48 69 c0 58 09 00 00 	imul   rax,rax,0x958
    58ea:	48 8d 15 1f 07 01 00 	lea    rdx,[rip+0x1071f]        # 16010 <ast+0x950>
    58f1:	0f b6 04 10          	movzx  eax,BYTE PTR [rax+rdx*1]
    58f5:	84 c0                	test   al,al
    58f7:	75 36                	jne    592f <resolve_labels+0x41b>
    58f9:	8b 45 cc             	mov    eax,DWORD PTR [rbp-0x34]
    58fc:	48 98                	cdqe
    58fe:	48 69 c0 58 09 00 00 	imul   rax,rax,0x958
    5905:	48 8d 15 b4 fd 00 00 	lea    rdx,[rip+0xfdb4]        # 156c0 <ast>
    590c:	8b 04 10             	mov    eax,DWORD PTR [rax+rdx*1]
    590f:	83 f8 08             	cmp    eax,0x8
    5912:	75 39                	jne    594d <resolve_labels+0x439>
    5914:	8b 45 cc             	mov    eax,DWORD PTR [rbp-0x34]
    5917:	48 98                	cdqe
    5919:	48 69 c0 58 09 00 00 	imul   rax,rax,0x958
    5920:	48 8d 15 e9 06 01 00 	lea    rdx,[rip+0x106e9]        # 16010 <ast+0x950>
    5927:	0f b6 04 10          	movzx  eax,BYTE PTR [rax+rdx*1]
    592b:	84 c0                	test   al,al
    592d:	74 1e                	je     594d <resolve_labels+0x439>
    592f:	8b 45 cc             	mov    eax,DWORD PTR [rbp-0x34]
    5932:	48 98                	cdqe
    5934:	48 69 c0 58 09 00 00 	imul   rax,rax,0x958
    593b:	48 8d 15 ce 06 01 00 	lea    rdx,[rip+0x106ce]        # 16010 <ast+0x950>
    5942:	0f b6 04 10          	movzx  eax,BYTE PTR [rax+rdx*1]
    5946:	0f b6 c0             	movzx  eax,al
    5949:	48 01 45 d0          	add    QWORD PTR [rbp-0x30],rax
    594d:	83 45 cc 01          	add    DWORD PTR [rbp-0x34],0x1
    5951:	8b 45 cc             	mov    eax,DWORD PTR [rbp-0x34]
    5954:	3b 45 fc             	cmp    eax,DWORD PTR [rbp-0x4]
    5957:	0f 8c bc fe ff ff    	jl     5819 <resolve_labels+0x305>
    595d:	48 8b 45 e0          	mov    rax,QWORD PTR [rbp-0x20]
    5961:	89 c1                	mov    ecx,eax
    5963:	48 8b 45 d0          	mov    rax,QWORD PTR [rbp-0x30]
    5967:	89 c2                	mov    edx,eax
    5969:	48 8b 45 c0          	mov    rax,QWORD PTR [rbp-0x40]
    596d:	0f b6 80 50 09 00 00 	movzx  eax,BYTE PTR [rax+0x950]
    5974:	0f b6 c0             	movzx  eax,al
    5977:	01 c2                	add    edx,eax
    5979:	89 c8                	mov    eax,ecx
    597b:	29 d0                	sub    eax,edx
    597d:	89 45 ac             	mov    DWORD PTR [rbp-0x54],eax
    5980:	48 8b 45 c0          	mov    rax,QWORD PTR [rbp-0x40]
    5984:	48 8d 70 04          	lea    rsi,[rax+0x4]
    5988:	8b 7d ac             	mov    edi,DWORD PTR [rbp-0x54]
    598b:	48 8b 4d d0          	mov    rcx,QWORD PTR [rbp-0x30]
    598f:	48 8b 55 e0          	mov    rdx,QWORD PTR [rbp-0x20]
    5993:	48 8b 45 b0          	mov    rax,QWORD PTR [rbp-0x50]
    5997:	41 89 f9             	mov    r9d,edi
    599a:	49 89 c8             	mov    r8,rcx
    599d:	48 89 d1             	mov    rcx,rdx
    59a0:	48 89 c2             	mov    rdx,rax
    59a3:	48 8d 05 9e 70 00 00 	lea    rax,[rip+0x709e]        # ca48 <_IO_stdin_used+0xa48>
    59aa:	48 89 c7             	mov    rdi,rax
    59ad:	b8 00 00 00 00       	mov    eax,0x0
    59b2:	e8 e9 c6 ff ff       	call   20a0 <printf@plt>
    59b7:	48 8b 45 c0          	mov    rax,QWORD PTR [rbp-0x40]
    59bb:	c7 80 a8 01 00 00 01 	mov    DWORD PTR [rax+0x1a8],0x1
    59c2:	00 00 00 
    59c5:	eb 01                	jmp    59c8 <resolve_labels+0x4b4>
    59c7:	90                   	nop
    59c8:	83 45 fc 01          	add    DWORD PTR [rbp-0x4],0x1
    59cc:	8b 05 ee 5c 26 00    	mov    eax,DWORD PTR [rip+0x265cee]        # 26b6c0 <ast_count>
    59d2:	39 45 fc             	cmp    DWORD PTR [rbp-0x4],eax
    59d5:	0f 8c 4d fb ff ff    	jl     5528 <resolve_labels+0x14>
    59db:	90                   	nop
    59dc:	90                   	nop
    59dd:	c9                   	leave
    59de:	c3                   	ret

00000000000059df <PARSE>:
PARSE():
    59df:	55                   	push   rbp
    59e0:	48 89 e5             	mov    rbp,rsp
    59e3:	48 81 ec 80 09 00 00 	sub    rsp,0x980
    59ea:	c7 45 fc 00 00 00 00 	mov    DWORD PTR [rbp-0x4],0x0
    59f1:	e9 3a 22 00 00       	jmp    7c30 <PARSE+0x2251>
    59f6:	8b 45 fc             	mov    eax,DWORD PTR [rbp-0x4]
    59f9:	48 63 d0             	movsxd rdx,eax
    59fc:	48 89 d0             	mov    rax,rdx
    59ff:	48 01 c0             	add    rax,rax
    5a02:	48 01 d0             	add    rax,rdx
    5a05:	48 c1 e0 03          	shl    rax,0x3
    5a09:	48 8d 15 90 9c 00 00 	lea    rdx,[rip+0x9c90]        # f6a0 <toks>
    5a10:	48 01 d0             	add    rax,rdx
    5a13:	48 89 45 e8          	mov    QWORD PTR [rbp-0x18],rax
    5a17:	48 8d 95 80 f6 ff ff 	lea    rdx,[rbp-0x980]
    5a1e:	b8 00 00 00 00       	mov    eax,0x0
    5a23:	b9 2b 01 00 00       	mov    ecx,0x12b
    5a28:	48 89 d7             	mov    rdi,rdx
    5a2b:	f3 48 ab             	rep stos QWORD PTR es:[rdi],rax
    5a2e:	48 8b 45 e8          	mov    rax,QWORD PTR [rbp-0x18]
    5a32:	8b 00                	mov    eax,DWORD PTR [rax]
    5a34:	85 c0                	test   eax,eax
    5a36:	0f 85 9e 06 00 00    	jne    60da <PARSE+0x6fb>
    5a3c:	c7 85 80 f6 ff ff 01 	mov    DWORD PTR [rbp-0x980],0x1
    5a43:	00 00 00 
    5a46:	c7 85 24 f8 ff ff 00 	mov    DWORD PTR [rbp-0x7dc],0x0
    5a4d:	00 00 00 
    5a50:	8b 45 fc             	mov    eax,DWORD PTR [rbp-0x4]
    5a53:	48 63 d0             	movsxd rdx,eax
    5a56:	48 89 d0             	mov    rax,rdx
    5a59:	48 01 c0             	add    rax,rax
    5a5c:	48 01 d0             	add    rax,rdx
    5a5f:	48 c1 e0 03          	shl    rax,0x3
    5a63:	48 89 c2             	mov    rdx,rax
    5a66:	48 8d 05 3b 9c 00 00 	lea    rax,[rip+0x9c3b]        # f6a8 <toks+0x8>
    5a6d:	48 8b 04 02          	mov    rax,QWORD PTR [rdx+rax*1]
    5a71:	48 8d 95 80 f6 ff ff 	lea    rdx,[rbp-0x980]
    5a78:	48 8d 4a 04          	lea    rcx,[rdx+0x4]
    5a7c:	ba 00 01 00 00       	mov    edx,0x100
    5a81:	48 89 c6             	mov    rsi,rax
    5a84:	48 89 cf             	mov    rdi,rcx
    5a87:	e8 d4 c5 ff ff       	call   2060 <strncpy@plt>
    5a8c:	83 45 fc 01          	add    DWORD PTR [rbp-0x4],0x1
    5a90:	e9 be 05 00 00       	jmp    6053 <PARSE+0x674>
    5a95:	8b 45 fc             	mov    eax,DWORD PTR [rbp-0x4]
    5a98:	48 63 d0             	movsxd rdx,eax
    5a9b:	48 89 d0             	mov    rax,rdx
    5a9e:	48 01 c0             	add    rax,rax
    5aa1:	48 01 d0             	add    rax,rdx
    5aa4:	48 c1 e0 03          	shl    rax,0x3
    5aa8:	48 89 c2             	mov    rdx,rax
    5aab:	48 8d 05 ee 9b 00 00 	lea    rax,[rip+0x9bee]        # f6a0 <toks>
    5ab2:	8b 04 02             	mov    eax,DWORD PTR [rdx+rax*1]
    5ab5:	83 f8 18             	cmp    eax,0x18
    5ab8:	75 09                	jne    5ac3 <PARSE+0xe4>
    5aba:	83 45 fc 01          	add    DWORD PTR [rbp-0x4],0x1
    5abe:	e9 90 05 00 00       	jmp    6053 <PARSE+0x674>
    5ac3:	8b 45 fc             	mov    eax,DWORD PTR [rbp-0x4]
    5ac6:	48 63 d0             	movsxd rdx,eax
    5ac9:	48 89 d0             	mov    rax,rdx
    5acc:	48 01 c0             	add    rax,rax
    5acf:	48 01 d0             	add    rax,rdx
    5ad2:	48 c1 e0 03          	shl    rax,0x3
    5ad6:	48 89 c2             	mov    rdx,rax
    5ad9:	48 8d 05 c0 9b 00 00 	lea    rax,[rip+0x9bc0]        # f6a0 <toks>
    5ae0:	8b 04 02             	mov    eax,DWORD PTR [rdx+rax*1]
    5ae3:	83 f8 03             	cmp    eax,0x3
    5ae6:	74 73                	je     5b5b <PARSE+0x17c>
    5ae8:	8b 45 fc             	mov    eax,DWORD PTR [rbp-0x4]
    5aeb:	48 63 d0             	movsxd rdx,eax
    5aee:	48 89 d0             	mov    rax,rdx
    5af1:	48 01 c0             	add    rax,rax
    5af4:	48 01 d0             	add    rax,rdx
    5af7:	48 c1 e0 03          	shl    rax,0x3
    5afb:	48 89 c2             	mov    rdx,rax
    5afe:	48 8d 05 9b 9b 00 00 	lea    rax,[rip+0x9b9b]        # f6a0 <toks>
    5b05:	8b 04 02             	mov    eax,DWORD PTR [rdx+rax*1]
    5b08:	83 f8 04             	cmp    eax,0x4
    5b0b:	74 4e                	je     5b5b <PARSE+0x17c>
    5b0d:	8b 45 fc             	mov    eax,DWORD PTR [rbp-0x4]
    5b10:	48 63 d0             	movsxd rdx,eax
    5b13:	48 89 d0             	mov    rax,rdx
    5b16:	48 01 c0             	add    rax,rax
    5b19:	48 01 d0             	add    rax,rdx
    5b1c:	48 c1 e0 03          	shl    rax,0x3
    5b20:	48 89 c2             	mov    rdx,rax
    5b23:	48 8d 05 76 9b 00 00 	lea    rax,[rip+0x9b76]        # f6a0 <toks>
    5b2a:	8b 04 02             	mov    eax,DWORD PTR [rdx+rax*1]
    5b2d:	83 f8 05             	cmp    eax,0x5
    5b30:	74 29                	je     5b5b <PARSE+0x17c>
    5b32:	8b 45 fc             	mov    eax,DWORD PTR [rbp-0x4]
    5b35:	48 63 d0             	movsxd rdx,eax
    5b38:	48 89 d0             	mov    rax,rdx
    5b3b:	48 01 c0             	add    rax,rax
    5b3e:	48 01 d0             	add    rax,rdx
    5b41:	48 c1 e0 03          	shl    rax,0x3
    5b45:	48 89 c2             	mov    rdx,rax
    5b48:	48 8d 05 51 9b 00 00 	lea    rax,[rip+0x9b51]        # f6a0 <toks>
    5b4f:	8b 04 02             	mov    eax,DWORD PTR [rdx+rax*1]
    5b52:	83 f8 06             	cmp    eax,0x6
    5b55:	0f 85 6e 01 00 00    	jne    5cc9 <PARSE+0x2ea>
    5b5b:	8b 45 fc             	mov    eax,DWORD PTR [rbp-0x4]
    5b5e:	48 63 d0             	movsxd rdx,eax
    5b61:	48 89 d0             	mov    rax,rdx
    5b64:	48 01 c0             	add    rax,rax
    5b67:	48 01 d0             	add    rax,rdx
    5b6a:	48 c1 e0 03          	shl    rax,0x3
    5b6e:	48 89 c2             	mov    rdx,rax
    5b71:	48 8d 05 28 9b 00 00 	lea    rax,[rip+0x9b28]        # f6a0 <toks>
    5b78:	8b 04 02             	mov    eax,DWORD PTR [rdx+rax*1]
    5b7b:	89 45 dc             	mov    DWORD PTR [rbp-0x24],eax
    5b7e:	8b 45 fc             	mov    eax,DWORD PTR [rbp-0x4]
    5b81:	8d 50 01             	lea    edx,[rax+0x1]
    5b84:	89 55 fc             	mov    DWORD PTR [rbp-0x4],edx
    5b87:	48 63 d0             	movsxd rdx,eax
    5b8a:	48 89 d0             	mov    rax,rdx
    5b8d:	48 01 c0             	add    rax,rax
    5b90:	48 01 d0             	add    rax,rdx
    5b93:	48 c1 e0 03          	shl    rax,0x3
    5b97:	48 89 c2             	mov    rdx,rax
    5b9a:	48 8d 05 07 9b 00 00 	lea    rax,[rip+0x9b07]        # f6a8 <toks+0x8>
    5ba1:	48 8b 0c 02          	mov    rcx,QWORD PTR [rdx+rax*1]
    5ba5:	8b 85 24 f8 ff ff    	mov    eax,DWORD PTR [rbp-0x7dc]
    5bab:	48 8d b5 80 f6 ff ff 	lea    rsi,[rbp-0x980]
    5bb2:	48 63 d0             	movsxd rdx,eax
    5bb5:	48 89 d0             	mov    rax,rdx
    5bb8:	48 c1 e0 03          	shl    rax,0x3
    5bbc:	48 01 d0             	add    rax,rdx
    5bbf:	48 c1 e0 02          	shl    rax,0x2
    5bc3:	48 29 d0             	sub    rax,rdx
    5bc6:	48 05 00 01 00 00    	add    rax,0x100
    5bcc:	48 01 f0             	add    rax,rsi
    5bcf:	48 83 c0 08          	add    rax,0x8
    5bd3:	ba 23 00 00 00       	mov    edx,0x23
    5bd8:	48 89 ce             	mov    rsi,rcx
    5bdb:	48 89 c7             	mov    rdi,rax
    5bde:	e8 7d c4 ff ff       	call   2060 <strncpy@plt>
    5be3:	83 7d dc 06          	cmp    DWORD PTR [rbp-0x24],0x6
    5be7:	0f 84 94 00 00 00    	je     5c81 <PARSE+0x2a2>
    5bed:	83 7d dc 06          	cmp    DWORD PTR [rbp-0x24],0x6
    5bf1:	0f 8f ac 00 00 00    	jg     5ca3 <PARSE+0x2c4>
    5bf7:	83 7d dc 05          	cmp    DWORD PTR [rbp-0x24],0x5
    5bfb:	74 62                	je     5c5f <PARSE+0x280>
    5bfd:	83 7d dc 05          	cmp    DWORD PTR [rbp-0x24],0x5
    5c01:	0f 8f 9c 00 00 00    	jg     5ca3 <PARSE+0x2c4>
    5c07:	83 7d dc 03          	cmp    DWORD PTR [rbp-0x24],0x3
    5c0b:	74 0b                	je     5c18 <PARSE+0x239>
    5c0d:	83 7d dc 04          	cmp    DWORD PTR [rbp-0x24],0x4
    5c11:	74 2a                	je     5c3d <PARSE+0x25e>
    5c13:	e9 8b 00 00 00       	jmp    5ca3 <PARSE+0x2c4>
    5c18:	8b 85 24 f8 ff ff    	mov    eax,DWORD PTR [rbp-0x7dc]
    5c1e:	8d 50 01             	lea    edx,[rax+0x1]
    5c21:	89 95 24 f8 ff ff    	mov    DWORD PTR [rbp-0x7dc],edx
    5c27:	48 98                	cdqe
    5c29:	48 83 c0 60          	add    rax,0x60
    5c2d:	c7 84 85 94 f6 ff ff 	mov    DWORD PTR [rbp+rax*4-0x96c],0x3
    5c34:	03 00 00 00 
    5c38:	e9 87 00 00 00       	jmp    5cc4 <PARSE+0x2e5>
    5c3d:	8b 85 24 f8 ff ff    	mov    eax,DWORD PTR [rbp-0x7dc]
    5c43:	8d 50 01             	lea    edx,[rax+0x1]
    5c46:	89 95 24 f8 ff ff    	mov    DWORD PTR [rbp-0x7dc],edx
    5c4c:	48 98                	cdqe
    5c4e:	48 83 c0 60          	add    rax,0x60
    5c52:	c7 84 85 94 f6 ff ff 	mov    DWORD PTR [rbp+rax*4-0x96c],0x4
    5c59:	04 00 00 00 
    5c5d:	eb 65                	jmp    5cc4 <PARSE+0x2e5>
    5c5f:	8b 85 24 f8 ff ff    	mov    eax,DWORD PTR [rbp-0x7dc]
    5c65:	8d 50 01             	lea    edx,[rax+0x1]
    5c68:	89 95 24 f8 ff ff    	mov    DWORD PTR [rbp-0x7dc],edx
    5c6e:	48 98                	cdqe
    5c70:	48 83 c0 60          	add    rax,0x60
    5c74:	c7 84 85 94 f6 ff ff 	mov    DWORD PTR [rbp+rax*4-0x96c],0x5
    5c7b:	05 00 00 00 
    5c7f:	eb 43                	jmp    5cc4 <PARSE+0x2e5>
    5c81:	8b 85 24 f8 ff ff    	mov    eax,DWORD PTR [rbp-0x7dc]
    5c87:	8d 50 01             	lea    edx,[rax+0x1]
    5c8a:	89 95 24 f8 ff ff    	mov    DWORD PTR [rbp-0x7dc],edx
    5c90:	48 98                	cdqe
    5c92:	48 83 c0 60          	add    rax,0x60
    5c96:	c7 84 85 94 f6 ff ff 	mov    DWORD PTR [rbp+rax*4-0x96c],0x6
    5c9d:	06 00 00 00 
    5ca1:	eb 21                	jmp    5cc4 <PARSE+0x2e5>
    5ca3:	8b 85 24 f8 ff ff    	mov    eax,DWORD PTR [rbp-0x7dc]
    5ca9:	8d 50 01             	lea    edx,[rax+0x1]
    5cac:	89 95 24 f8 ff ff    	mov    DWORD PTR [rbp-0x7dc],edx
    5cb2:	48 98                	cdqe
    5cb4:	48 83 c0 60          	add    rax,0x60
    5cb8:	c7 84 85 94 f6 ff ff 	mov    DWORD PTR [rbp+rax*4-0x96c],0x2
    5cbf:	02 00 00 00 
    5cc3:	90                   	nop
    5cc4:	e9 8a 03 00 00       	jmp    6053 <PARSE+0x674>
    5cc9:	8b 45 fc             	mov    eax,DWORD PTR [rbp-0x4]
    5ccc:	48 63 d0             	movsxd rdx,eax
    5ccf:	48 89 d0             	mov    rax,rdx
    5cd2:	48 01 c0             	add    rax,rax
    5cd5:	48 01 d0             	add    rax,rdx
    5cd8:	48 c1 e0 03          	shl    rax,0x3
    5cdc:	48 89 c2             	mov    rdx,rax
    5cdf:	48 8d 05 ba 99 00 00 	lea    rax,[rip+0x99ba]        # f6a0 <toks>
    5ce6:	8b 04 02             	mov    eax,DWORD PTR [rdx+rax*1]
    5ce9:	83 f8 09             	cmp    eax,0x9
    5cec:	0f 85 88 00 00 00    	jne    5d7a <PARSE+0x39b>
    5cf2:	8b 45 fc             	mov    eax,DWORD PTR [rbp-0x4]
    5cf5:	48 63 d0             	movsxd rdx,eax
    5cf8:	48 89 d0             	mov    rax,rdx
    5cfb:	48 01 c0             	add    rax,rax
    5cfe:	48 01 d0             	add    rax,rdx
    5d01:	48 c1 e0 03          	shl    rax,0x3
    5d05:	48 89 c2             	mov    rdx,rax
    5d08:	48 8d 05 99 99 00 00 	lea    rax,[rip+0x9999]        # f6a8 <toks+0x8>
    5d0f:	48 8b 0c 02          	mov    rcx,QWORD PTR [rdx+rax*1]
    5d13:	8b 85 24 f8 ff ff    	mov    eax,DWORD PTR [rbp-0x7dc]
    5d19:	48 8d b5 80 f6 ff ff 	lea    rsi,[rbp-0x980]
    5d20:	48 63 d0             	movsxd rdx,eax
    5d23:	48 89 d0             	mov    rax,rdx
    5d26:	48 c1 e0 03          	shl    rax,0x3
    5d2a:	48 01 d0             	add    rax,rdx
    5d2d:	48 c1 e0 02          	shl    rax,0x2
    5d31:	48 29 d0             	sub    rax,rdx
    5d34:	48 05 00 01 00 00    	add    rax,0x100
    5d3a:	48 01 f0             	add    rax,rsi
    5d3d:	48 83 c0 08          	add    rax,0x8
    5d41:	ba 23 00 00 00       	mov    edx,0x23
    5d46:	48 89 ce             	mov    rsi,rcx
    5d49:	48 89 c7             	mov    rdi,rax
    5d4c:	e8 0f c3 ff ff       	call   2060 <strncpy@plt>
    5d51:	83 45 fc 01          	add    DWORD PTR [rbp-0x4],0x1
    5d55:	8b 85 24 f8 ff ff    	mov    eax,DWORD PTR [rbp-0x7dc]
    5d5b:	8d 50 01             	lea    edx,[rax+0x1]
    5d5e:	89 95 24 f8 ff ff    	mov    DWORD PTR [rbp-0x7dc],edx
    5d64:	48 98                	cdqe
    5d66:	48 83 c0 60          	add    rax,0x60
    5d6a:	c7 84 85 94 f6 ff ff 	mov    DWORD PTR [rbp+rax*4-0x96c],0x8
    5d71:	08 00 00 00 
    5d75:	e9 d9 02 00 00       	jmp    6053 <PARSE+0x674>
    5d7a:	8b 45 fc             	mov    eax,DWORD PTR [rbp-0x4]
    5d7d:	48 63 d0             	movsxd rdx,eax
    5d80:	48 89 d0             	mov    rax,rdx
    5d83:	48 01 c0             	add    rax,rax
    5d86:	48 01 d0             	add    rax,rdx
    5d89:	48 c1 e0 03          	shl    rax,0x3
    5d8d:	48 89 c2             	mov    rdx,rax
    5d90:	48 8d 05 09 99 00 00 	lea    rax,[rip+0x9909]        # f6a0 <toks>
    5d97:	8b 04 02             	mov    eax,DWORD PTR [rdx+rax*1]
    5d9a:	83 f8 02             	cmp    eax,0x2
    5d9d:	0f 85 88 00 00 00    	jne    5e2b <PARSE+0x44c>
    5da3:	8b 45 fc             	mov    eax,DWORD PTR [rbp-0x4]
    5da6:	48 63 d0             	movsxd rdx,eax
    5da9:	48 89 d0             	mov    rax,rdx
    5dac:	48 01 c0             	add    rax,rax
    5daf:	48 01 d0             	add    rax,rdx
    5db2:	48 c1 e0 03          	shl    rax,0x3
    5db6:	48 89 c2             	mov    rdx,rax
    5db9:	48 8d 05 e8 98 00 00 	lea    rax,[rip+0x98e8]        # f6a8 <toks+0x8>
    5dc0:	48 8b 0c 02          	mov    rcx,QWORD PTR [rdx+rax*1]
    5dc4:	8b 85 24 f8 ff ff    	mov    eax,DWORD PTR [rbp-0x7dc]
    5dca:	48 8d b5 80 f6 ff ff 	lea    rsi,[rbp-0x980]
    5dd1:	48 63 d0             	movsxd rdx,eax
    5dd4:	48 89 d0             	mov    rax,rdx
    5dd7:	48 c1 e0 03          	shl    rax,0x3
    5ddb:	48 01 d0             	add    rax,rdx
    5dde:	48 c1 e0 02          	shl    rax,0x2
    5de2:	48 29 d0             	sub    rax,rdx
    5de5:	48 05 00 01 00 00    	add    rax,0x100
    5deb:	48 01 f0             	add    rax,rsi
    5dee:	48 83 c0 08          	add    rax,0x8
    5df2:	ba 23 00 00 00       	mov    edx,0x23
    5df7:	48 89 ce             	mov    rsi,rcx
    5dfa:	48 89 c7             	mov    rdi,rax
    5dfd:	e8 5e c2 ff ff       	call   2060 <strncpy@plt>
    5e02:	83 45 fc 01          	add    DWORD PTR [rbp-0x4],0x1
    5e06:	8b 85 24 f8 ff ff    	mov    eax,DWORD PTR [rbp-0x7dc]
    5e0c:	8d 50 01             	lea    edx,[rax+0x1]
    5e0f:	89 95 24 f8 ff ff    	mov    DWORD PTR [rbp-0x7dc],edx
    5e15:	48 98                	cdqe
    5e17:	48 83 c0 60          	add    rax,0x60
    5e1b:	c7 84 85 94 f6 ff ff 	mov    DWORD PTR [rbp+rax*4-0x96c],0x9
    5e22:	09 00 00 00 
    5e26:	e9 28 02 00 00       	jmp    6053 <PARSE+0x674>
    5e2b:	8b 45 fc             	mov    eax,DWORD PTR [rbp-0x4]
    5e2e:	48 63 d0             	movsxd rdx,eax
    5e31:	48 89 d0             	mov    rax,rdx
    5e34:	48 01 c0             	add    rax,rax
    5e37:	48 01 d0             	add    rax,rdx
    5e3a:	48 c1 e0 03          	shl    rax,0x3
    5e3e:	48 89 c2             	mov    rdx,rax
    5e41:	48 8d 05 58 98 00 00 	lea    rax,[rip+0x9858]        # f6a0 <toks>
    5e48:	8b 04 02             	mov    eax,DWORD PTR [rdx+rax*1]
    5e4b:	83 f8 01             	cmp    eax,0x1
    5e4e:	0f 85 88 00 00 00    	jne    5edc <PARSE+0x4fd>
    5e54:	8b 45 fc             	mov    eax,DWORD PTR [rbp-0x4]
    5e57:	48 63 d0             	movsxd rdx,eax
    5e5a:	48 89 d0             	mov    rax,rdx
    5e5d:	48 01 c0             	add    rax,rax
    5e60:	48 01 d0             	add    rax,rdx
    5e63:	48 c1 e0 03          	shl    rax,0x3
    5e67:	48 89 c2             	mov    rdx,rax
    5e6a:	48 8d 05 37 98 00 00 	lea    rax,[rip+0x9837]        # f6a8 <toks+0x8>
    5e71:	48 8b 0c 02          	mov    rcx,QWORD PTR [rdx+rax*1]
    5e75:	8b 85 24 f8 ff ff    	mov    eax,DWORD PTR [rbp-0x7dc]
    5e7b:	48 8d b5 80 f6 ff ff 	lea    rsi,[rbp-0x980]
    5e82:	48 63 d0             	movsxd rdx,eax
    5e85:	48 89 d0             	mov    rax,rdx
    5e88:	48 c1 e0 03          	shl    rax,0x3
    5e8c:	48 01 d0             	add    rax,rdx
    5e8f:	48 c1 e0 02          	shl    rax,0x2
    5e93:	48 29 d0             	sub    rax,rdx
    5e96:	48 05 00 01 00 00    	add    rax,0x100
    5e9c:	48 01 f0             	add    rax,rsi
    5e9f:	48 83 c0 08          	add    rax,0x8
    5ea3:	ba 23 00 00 00       	mov    edx,0x23
    5ea8:	48 89 ce             	mov    rsi,rcx
    5eab:	48 89 c7             	mov    rdi,rax
    5eae:	e8 ad c1 ff ff       	call   2060 <strncpy@plt>
    5eb3:	83 45 fc 01          	add    DWORD PTR [rbp-0x4],0x1
    5eb7:	8b 85 24 f8 ff ff    	mov    eax,DWORD PTR [rbp-0x7dc]
    5ebd:	8d 50 01             	lea    edx,[rax+0x1]
    5ec0:	89 95 24 f8 ff ff    	mov    DWORD PTR [rbp-0x7dc],edx
    5ec6:	48 98                	cdqe
    5ec8:	48 83 c0 60          	add    rax,0x60
    5ecc:	c7 84 85 94 f6 ff ff 	mov    DWORD PTR [rbp+rax*4-0x96c],0x7
    5ed3:	07 00 00 00 
    5ed7:	e9 77 01 00 00       	jmp    6053 <PARSE+0x674>
    5edc:	8b 45 fc             	mov    eax,DWORD PTR [rbp-0x4]
    5edf:	48 63 d0             	movsxd rdx,eax
    5ee2:	48 89 d0             	mov    rax,rdx
    5ee5:	48 01 c0             	add    rax,rax
    5ee8:	48 01 d0             	add    rax,rdx
    5eeb:	48 c1 e0 03          	shl    rax,0x3
    5eef:	48 89 c2             	mov    rdx,rax
    5ef2:	48 8d 05 a7 97 00 00 	lea    rax,[rip+0x97a7]        # f6a0 <toks>
    5ef9:	8b 04 02             	mov    eax,DWORD PTR [rdx+rax*1]
    5efc:	83 f8 17             	cmp    eax,0x17
    5eff:	0f 85 9a 00 00 00    	jne    5f9f <PARSE+0x5c0>
    5f05:	8b 45 fc             	mov    eax,DWORD PTR [rbp-0x4]
    5f08:	48 63 d0             	movsxd rdx,eax
    5f0b:	48 89 d0             	mov    rax,rdx
    5f0e:	48 01 c0             	add    rax,rax
    5f11:	48 01 d0             	add    rax,rdx
    5f14:	48 c1 e0 03          	shl    rax,0x3
    5f18:	48 89 c2             	mov    rdx,rax
    5f1b:	48 8d 05 86 97 00 00 	lea    rax,[rip+0x9786]        # f6a8 <toks+0x8>
    5f22:	48 8b 04 02          	mov    rax,QWORD PTR [rdx+rax*1]
    5f26:	0f b6 10             	movzx  edx,BYTE PTR [rax]
    5f29:	8b 85 24 f8 ff ff    	mov    eax,DWORD PTR [rbp-0x7dc]
    5f2f:	89 d1                	mov    ecx,edx
    5f31:	48 63 d0             	movsxd rdx,eax
    5f34:	48 89 d0             	mov    rax,rdx
    5f37:	48 c1 e0 03          	shl    rax,0x3
    5f3b:	48 01 d0             	add    rax,rdx
    5f3e:	48 c1 e0 02          	shl    rax,0x2
    5f42:	48 29 d0             	sub    rax,rdx
    5f45:	48 01 e8             	add    rax,rbp
    5f48:	48 2d 78 08 00 00    	sub    rax,0x878
    5f4e:	88 08                	mov    BYTE PTR [rax],cl
    5f50:	8b 85 24 f8 ff ff    	mov    eax,DWORD PTR [rbp-0x7dc]
    5f56:	48 63 d0             	movsxd rdx,eax
    5f59:	48 89 d0             	mov    rax,rdx
    5f5c:	48 c1 e0 03          	shl    rax,0x3
    5f60:	48 01 d0             	add    rax,rdx
    5f63:	48 c1 e0 02          	shl    rax,0x2
    5f67:	48 29 d0             	sub    rax,rdx
    5f6a:	48 01 e8             	add    rax,rbp
    5f6d:	48 2d 77 08 00 00    	sub    rax,0x877
    5f73:	c6 00 00             	mov    BYTE PTR [rax],0x0
    5f76:	8b 85 24 f8 ff ff    	mov    eax,DWORD PTR [rbp-0x7dc]
    5f7c:	8d 50 01             	lea    edx,[rax+0x1]
    5f7f:	89 95 24 f8 ff ff    	mov    DWORD PTR [rbp-0x7dc],edx
    5f85:	48 98                	cdqe
    5f87:	48 83 c0 60          	add    rax,0x60
    5f8b:	c7 84 85 94 f6 ff ff 	mov    DWORD PTR [rbp+rax*4-0x96c],0xa
    5f92:	0a 00 00 00 
    5f96:	83 45 fc 01          	add    DWORD PTR [rbp-0x4],0x1
    5f9a:	e9 b4 00 00 00       	jmp    6053 <PARSE+0x674>
    5f9f:	8b 45 fc             	mov    eax,DWORD PTR [rbp-0x4]
    5fa2:	48 63 d0             	movsxd rdx,eax
    5fa5:	48 89 d0             	mov    rax,rdx
    5fa8:	48 01 c0             	add    rax,rax
    5fab:	48 01 d0             	add    rax,rdx
    5fae:	48 c1 e0 03          	shl    rax,0x3
    5fb2:	48 89 c2             	mov    rdx,rax
    5fb5:	48 8d 05 e4 96 00 00 	lea    rax,[rip+0x96e4]        # f6a0 <toks>
    5fbc:	8b 04 02             	mov    eax,DWORD PTR [rdx+rax*1]
    5fbf:	83 f8 0c             	cmp    eax,0xc
    5fc2:	0f 84 9a 00 00 00    	je     6062 <PARSE+0x683>
    5fc8:	8b 45 fc             	mov    eax,DWORD PTR [rbp-0x4]
    5fcb:	48 63 d0             	movsxd rdx,eax
    5fce:	48 89 d0             	mov    rax,rdx
    5fd1:	48 01 c0             	add    rax,rax
    5fd4:	48 01 d0             	add    rax,rdx
    5fd7:	48 c1 e0 03          	shl    rax,0x3
    5fdb:	48 89 c2             	mov    rdx,rax
    5fde:	48 8d 05 bb 96 00 00 	lea    rax,[rip+0x96bb]        # f6a0 <toks>
    5fe5:	8b 04 02             	mov    eax,DWORD PTR [rdx+rax*1]
    5fe8:	83 f8 0d             	cmp    eax,0xd
    5feb:	74 75                	je     6062 <PARSE+0x683>
    5fed:	8b 45 fc             	mov    eax,DWORD PTR [rbp-0x4]
    5ff0:	48 63 d0             	movsxd rdx,eax
    5ff3:	48 89 d0             	mov    rax,rdx
    5ff6:	48 01 c0             	add    rax,rax
    5ff9:	48 01 d0             	add    rax,rdx
    5ffc:	48 c1 e0 03          	shl    rax,0x3
    6000:	48 89 c2             	mov    rdx,rax
    6003:	48 8d 05 a6 96 00 00 	lea    rax,[rip+0x96a6]        # f6b0 <toks+0x10>
    600a:	8b 0c 02             	mov    ecx,DWORD PTR [rdx+rax*1]
    600d:	8b 45 fc             	mov    eax,DWORD PTR [rbp-0x4]
    6010:	48 63 d0             	movsxd rdx,eax
    6013:	48 89 d0             	mov    rax,rdx
    6016:	48 01 c0             	add    rax,rax
    6019:	48 01 d0             	add    rax,rdx
    601c:	48 c1 e0 03          	shl    rax,0x3
    6020:	48 89 c2             	mov    rdx,rax
    6023:	48 8d 05 7e 96 00 00 	lea    rax,[rip+0x967e]        # f6a8 <toks+0x8>
    602a:	48 8b 14 02          	mov    rdx,QWORD PTR [rdx+rax*1]
    602e:	48 8b 05 2b 96 00 00 	mov    rax,QWORD PTR [rip+0x962b]        # f660 <stderr@GLIBC_2.2.5>
    6035:	48 8d 35 4c 6a 00 00 	lea    rsi,[rip+0x6a4c]        # ca88 <_IO_stdin_used+0xa88>
    603c:	48 89 c7             	mov    rdi,rax
    603f:	b8 00 00 00 00       	mov    eax,0x0
    6044:	e8 b7 c0 ff ff       	call   2100 <fprintf@plt>
    6049:	bf 01 00 00 00       	mov    edi,0x1
    604e:	e8 0d c1 ff ff       	call   2160 <exit@plt>
    6053:	8b 05 47 f6 00 00    	mov    eax,DWORD PTR [rip+0xf647]        # 156a0 <toks_count>
    6059:	39 45 fc             	cmp    DWORD PTR [rbp-0x4],eax
    605c:	0f 8c 33 fa ff ff    	jl     5a95 <PARSE+0xb6>
    6062:	8b 05 58 56 26 00    	mov    eax,DWORD PTR [rip+0x265658]        # 26b6c0 <ast_count>
    6068:	8d 50 01             	lea    edx,[rax+0x1]
    606b:	89 15 4f 56 26 00    	mov    DWORD PTR [rip+0x26564f],edx        # 26b6c0 <ast_count>
    6071:	48 98                	cdqe
    6073:	48 69 c0 58 09 00 00 	imul   rax,rax,0x958
    607a:	48 8d 15 3f f6 00 00 	lea    rdx,[rip+0xf63f]        # 156c0 <ast>
    6081:	48 01 c2             	add    rdx,rax
    6084:	48 8d 85 80 f6 ff ff 	lea    rax,[rbp-0x980]
    608b:	b9 2b 01 00 00       	mov    ecx,0x12b
    6090:	48 89 d7             	mov    rdi,rdx
    6093:	48 89 c6             	mov    rsi,rax
    6096:	f3 48 a5             	rep movs QWORD PTR es:[rdi],QWORD PTR ds:[rsi]
    6099:	8b 05 01 f6 00 00    	mov    eax,DWORD PTR [rip+0xf601]        # 156a0 <toks_count>
    609f:	39 45 fc             	cmp    DWORD PTR [rbp-0x4],eax
    60a2:	0f 8d 72 1b 00 00    	jge    7c1a <PARSE+0x223b>
    60a8:	8b 45 fc             	mov    eax,DWORD PTR [rbp-0x4]
    60ab:	48 63 d0             	movsxd rdx,eax
    60ae:	48 89 d0             	mov    rax,rdx
    60b1:	48 01 c0             	add    rax,rax
    60b4:	48 01 d0             	add    rax,rdx
    60b7:	48 c1 e0 03          	shl    rax,0x3
    60bb:	48 89 c2             	mov    rdx,rax
    60be:	48 8d 05 db 95 00 00 	lea    rax,[rip+0x95db]        # f6a0 <toks>
    60c5:	8b 04 02             	mov    eax,DWORD PTR [rdx+rax*1]
    60c8:	83 f8 0c             	cmp    eax,0xc
    60cb:	0f 85 49 1b 00 00    	jne    7c1a <PARSE+0x223b>
    60d1:	83 45 fc 01          	add    DWORD PTR [rbp-0x4],0x1
    60d5:	e9 40 1b 00 00       	jmp    7c1a <PARSE+0x223b>
    60da:	48 8b 45 e8          	mov    rax,QWORD PTR [rbp-0x18]
    60de:	8b 00                	mov    eax,DWORD PTR [rax]
    60e0:	83 f8 02             	cmp    eax,0x2
    60e3:	0f 85 a1 00 00 00    	jne    618a <PARSE+0x7ab>
    60e9:	c7 85 80 f6 ff ff 0e 	mov    DWORD PTR [rbp-0x980],0xe
    60f0:	00 00 00 
    60f3:	48 8b 45 e8          	mov    rax,QWORD PTR [rbp-0x18]
    60f7:	8b 00                	mov    eax,DWORD PTR [rax]
    60f9:	83 f8 0d             	cmp    eax,0xd
    60fc:	74 50                	je     614e <PARSE+0x76f>
    60fe:	48 8b 45 e8          	mov    rax,QWORD PTR [rbp-0x18]
    6102:	8b 00                	mov    eax,DWORD PTR [rax]
    6104:	83 f8 0c             	cmp    eax,0xc
    6107:	74 45                	je     614e <PARSE+0x76f>
    6109:	8b 45 fc             	mov    eax,DWORD PTR [rbp-0x4]
    610c:	8d 50 01             	lea    edx,[rax+0x1]
    610f:	89 55 fc             	mov    DWORD PTR [rbp-0x4],edx
    6112:	48 63 d0             	movsxd rdx,eax
    6115:	48 89 d0             	mov    rax,rdx
    6118:	48 01 c0             	add    rax,rax
    611b:	48 01 d0             	add    rax,rdx
    611e:	48 c1 e0 03          	shl    rax,0x3
    6122:	48 89 c2             	mov    rdx,rax
    6125:	48 8d 05 7c 95 00 00 	lea    rax,[rip+0x957c]        # f6a8 <toks+0x8>
    612c:	48 8b 04 02          	mov    rax,QWORD PTR [rdx+rax*1]
    6130:	48 8d 95 80 f6 ff ff 	lea    rdx,[rbp-0x980]
    6137:	48 8d 8a 08 01 00 00 	lea    rcx,[rdx+0x108]
    613e:	ba 40 00 00 00       	mov    edx,0x40
    6143:	48 89 c6             	mov    rsi,rax
    6146:	48 89 cf             	mov    rdi,rcx
    6149:	e8 12 bf ff ff       	call   2060 <strncpy@plt>
    614e:	8b 05 6c 55 26 00    	mov    eax,DWORD PTR [rip+0x26556c]        # 26b6c0 <ast_count>
    6154:	8d 50 01             	lea    edx,[rax+0x1]
    6157:	89 15 63 55 26 00    	mov    DWORD PTR [rip+0x265563],edx        # 26b6c0 <ast_count>
    615d:	48 98                	cdqe
    615f:	48 69 c0 58 09 00 00 	imul   rax,rax,0x958
    6166:	48 8d 15 53 f5 00 00 	lea    rdx,[rip+0xf553]        # 156c0 <ast>
    616d:	48 01 c2             	add    rdx,rax
    6170:	48 8d 85 80 f6 ff ff 	lea    rax,[rbp-0x980]
    6177:	b9 2b 01 00 00       	mov    ecx,0x12b
    617c:	48 89 d7             	mov    rdi,rdx
    617f:	48 89 c6             	mov    rsi,rax
    6182:	f3 48 a5             	rep movs QWORD PTR es:[rdi],QWORD PTR ds:[rsi]
    6185:	e9 a6 1a 00 00       	jmp    7c30 <PARSE+0x2251>
    618a:	48 8b 45 e8          	mov    rax,QWORD PTR [rbp-0x18]
    618e:	8b 00                	mov    eax,DWORD PTR [rax]
    6190:	83 f8 0f             	cmp    eax,0xf
    6193:	0f 85 b5 03 00 00    	jne    654e <PARSE+0xb6f>
    6199:	83 7d fc 00          	cmp    DWORD PTR [rbp-0x4],0x0
    619d:	74 2c                	je     61cb <PARSE+0x7ec>
    619f:	8b 45 fc             	mov    eax,DWORD PTR [rbp-0x4]
    61a2:	83 e8 01             	sub    eax,0x1
    61a5:	48 63 d0             	movsxd rdx,eax
    61a8:	48 89 d0             	mov    rax,rdx
    61ab:	48 01 c0             	add    rax,rax
    61ae:	48 01 d0             	add    rax,rdx
    61b1:	48 c1 e0 03          	shl    rax,0x3
    61b5:	48 89 c2             	mov    rdx,rax
    61b8:	48 8d 05 e1 94 00 00 	lea    rax,[rip+0x94e1]        # f6a0 <toks>
    61bf:	8b 04 02             	mov    eax,DWORD PTR [rdx+rax*1]
    61c2:	83 f8 02             	cmp    eax,0x2
    61c5:	0f 85 83 03 00 00    	jne    654e <PARSE+0xb6f>
    61cb:	c7 85 80 f6 ff ff 02 	mov    DWORD PTR [rbp-0x980],0x2
    61d2:	00 00 00 
    61d5:	c7 85 88 f8 ff ff 00 	mov    DWORD PTR [rbp-0x778],0x0
    61dc:	00 00 00 
    61df:	83 45 fc 01          	add    DWORD PTR [rbp-0x4],0x1
    61e3:	e9 df 02 00 00       	jmp    64c7 <PARSE+0xae8>
    61e8:	8b 45 fc             	mov    eax,DWORD PTR [rbp-0x4]
    61eb:	48 63 d0             	movsxd rdx,eax
    61ee:	48 89 d0             	mov    rax,rdx
    61f1:	48 01 c0             	add    rax,rax
    61f4:	48 01 d0             	add    rax,rdx
    61f7:	48 c1 e0 03          	shl    rax,0x3
    61fb:	48 89 c2             	mov    rdx,rax
    61fe:	48 8d 05 9b 94 00 00 	lea    rax,[rip+0x949b]        # f6a0 <toks>
    6205:	8b 04 02             	mov    eax,DWORD PTR [rdx+rax*1]
    6208:	83 f8 0c             	cmp    eax,0xc
    620b:	0f 84 c5 02 00 00    	je     64d6 <PARSE+0xaf7>
    6211:	8b 45 fc             	mov    eax,DWORD PTR [rbp-0x4]
    6214:	48 63 d0             	movsxd rdx,eax
    6217:	48 89 d0             	mov    rax,rdx
    621a:	48 01 c0             	add    rax,rax
    621d:	48 01 d0             	add    rax,rdx
    6220:	48 c1 e0 03          	shl    rax,0x3
    6224:	48 89 c2             	mov    rdx,rax
    6227:	48 8d 05 72 94 00 00 	lea    rax,[rip+0x9472]        # f6a0 <toks>
    622e:	8b 04 02             	mov    eax,DWORD PTR [rdx+rax*1]
    6231:	83 f8 0d             	cmp    eax,0xd
    6234:	0f 84 9c 02 00 00    	je     64d6 <PARSE+0xaf7>
    623a:	8b 45 fc             	mov    eax,DWORD PTR [rbp-0x4]
    623d:	48 63 d0             	movsxd rdx,eax
    6240:	48 89 d0             	mov    rax,rdx
    6243:	48 01 c0             	add    rax,rax
    6246:	48 01 d0             	add    rax,rdx
    6249:	48 c1 e0 03          	shl    rax,0x3
    624d:	48 89 c2             	mov    rdx,rax
    6250:	48 8d 05 49 94 00 00 	lea    rax,[rip+0x9449]        # f6a0 <toks>
    6257:	8b 04 02             	mov    eax,DWORD PTR [rdx+rax*1]
    625a:	83 f8 18             	cmp    eax,0x18
    625d:	75 09                	jne    6268 <PARSE+0x889>
    625f:	83 45 fc 01          	add    DWORD PTR [rbp-0x4],0x1
    6263:	e9 5f 02 00 00       	jmp    64c7 <PARSE+0xae8>
    6268:	8b 85 88 f8 ff ff    	mov    eax,DWORD PTR [rbp-0x778]
    626e:	3d ff 00 00 00       	cmp    eax,0xff
    6273:	7e 48                	jle    62bd <PARSE+0x8de>
    6275:	8b 45 fc             	mov    eax,DWORD PTR [rbp-0x4]
    6278:	48 63 d0             	movsxd rdx,eax
    627b:	48 89 d0             	mov    rax,rdx
    627e:	48 01 c0             	add    rax,rax
    6281:	48 01 d0             	add    rax,rdx
    6284:	48 c1 e0 03          	shl    rax,0x3
    6288:	48 89 c2             	mov    rdx,rax
    628b:	48 8d 05 1e 94 00 00 	lea    rax,[rip+0x941e]        # f6b0 <toks+0x10>
    6292:	8b 14 02             	mov    edx,DWORD PTR [rdx+rax*1]
    6295:	48 8b 05 c4 93 00 00 	mov    rax,QWORD PTR [rip+0x93c4]        # f660 <stderr@GLIBC_2.2.5>
    629c:	48 8d 0d 15 68 00 00 	lea    rcx,[rip+0x6815]        # cab8 <_IO_stdin_used+0xab8>
    62a3:	48 89 ce             	mov    rsi,rcx
    62a6:	48 89 c7             	mov    rdi,rax
    62a9:	b8 00 00 00 00       	mov    eax,0x0
    62ae:	e8 4d be ff ff       	call   2100 <fprintf@plt>
    62b3:	bf 01 00 00 00       	mov    edi,0x1
    62b8:	e8 a3 be ff ff       	call   2160 <exit@plt>
    62bd:	8b 45 fc             	mov    eax,DWORD PTR [rbp-0x4]
    62c0:	48 63 d0             	movsxd rdx,eax
    62c3:	48 89 d0             	mov    rax,rdx
    62c6:	48 01 c0             	add    rax,rax
    62c9:	48 01 d0             	add    rax,rdx
    62cc:	48 c1 e0 03          	shl    rax,0x3
    62d0:	48 89 c2             	mov    rdx,rax
    62d3:	48 8d 05 c6 93 00 00 	lea    rax,[rip+0x93c6]        # f6a0 <toks>
    62da:	8b 04 02             	mov    eax,DWORD PTR [rdx+rax*1]
    62dd:	83 f8 17             	cmp    eax,0x17
    62e0:	75 47                	jne    6329 <PARSE+0x94a>
    62e2:	8b 45 fc             	mov    eax,DWORD PTR [rbp-0x4]
    62e5:	48 63 d0             	movsxd rdx,eax
    62e8:	48 89 d0             	mov    rax,rdx
    62eb:	48 01 c0             	add    rax,rax
    62ee:	48 01 d0             	add    rax,rdx
    62f1:	48 c1 e0 03          	shl    rax,0x3
    62f5:	48 89 c2             	mov    rdx,rax
    62f8:	48 8d 05 a9 93 00 00 	lea    rax,[rip+0x93a9]        # f6a8 <toks+0x8>
    62ff:	48 8b 04 02          	mov    rax,QWORD PTR [rdx+rax*1]
    6303:	0f b6 08             	movzx  ecx,BYTE PTR [rax]
    6306:	8b 85 88 f8 ff ff    	mov    eax,DWORD PTR [rbp-0x778]
    630c:	8d 50 01             	lea    edx,[rax+0x1]
    630f:	89 95 88 f8 ff ff    	mov    DWORD PTR [rbp-0x778],edx
    6315:	89 ca                	mov    edx,ecx
    6317:	48 98                	cdqe
    6319:	88 94 05 88 f7 ff ff 	mov    BYTE PTR [rbp+rax*1-0x878],dl
    6320:	83 45 fc 01          	add    DWORD PTR [rbp-0x4],0x1
    6324:	e9 9e 01 00 00       	jmp    64c7 <PARSE+0xae8>
    6329:	8b 45 fc             	mov    eax,DWORD PTR [rbp-0x4]
    632c:	48 63 d0             	movsxd rdx,eax
    632f:	48 89 d0             	mov    rax,rdx
    6332:	48 01 c0             	add    rax,rax
    6335:	48 01 d0             	add    rax,rdx
    6338:	48 c1 e0 03          	shl    rax,0x3
    633c:	48 89 c2             	mov    rdx,rax
    633f:	48 8d 05 5a 93 00 00 	lea    rax,[rip+0x935a]        # f6a0 <toks>
    6346:	8b 04 02             	mov    eax,DWORD PTR [rdx+rax*1]
    6349:	83 f8 01             	cmp    eax,0x1
    634c:	75 4e                	jne    639c <PARSE+0x9bd>
    634e:	8b 45 fc             	mov    eax,DWORD PTR [rbp-0x4]
    6351:	48 63 d0             	movsxd rdx,eax
    6354:	48 89 d0             	mov    rax,rdx
    6357:	48 01 c0             	add    rax,rax
    635a:	48 01 d0             	add    rax,rdx
    635d:	48 c1 e0 03          	shl    rax,0x3
    6361:	48 89 c2             	mov    rdx,rax
    6364:	48 8d 05 3d 93 00 00 	lea    rax,[rip+0x933d]        # f6a8 <toks+0x8>
    636b:	48 8b 04 02          	mov    rax,QWORD PTR [rdx+rax*1]
    636f:	48 89 c7             	mov    rdi,rax
    6372:	e8 d9 bd ff ff       	call   2150 <atoi@plt>
    6377:	89 c1                	mov    ecx,eax
    6379:	8b 85 88 f8 ff ff    	mov    eax,DWORD PTR [rbp-0x778]
    637f:	8d 50 01             	lea    edx,[rax+0x1]
    6382:	89 95 88 f8 ff ff    	mov    DWORD PTR [rbp-0x778],edx
    6388:	89 ca                	mov    edx,ecx
    638a:	48 98                	cdqe
    638c:	88 94 05 88 f7 ff ff 	mov    BYTE PTR [rbp+rax*1-0x878],dl
    6393:	83 45 fc 01          	add    DWORD PTR [rbp-0x4],0x1
    6397:	e9 2b 01 00 00       	jmp    64c7 <PARSE+0xae8>
    639c:	8b 45 fc             	mov    eax,DWORD PTR [rbp-0x4]
    639f:	48 63 d0             	movsxd rdx,eax
    63a2:	48 89 d0             	mov    rax,rdx
    63a5:	48 01 c0             	add    rax,rax
    63a8:	48 01 d0             	add    rax,rdx
    63ab:	48 c1 e0 03          	shl    rax,0x3
    63af:	48 89 c2             	mov    rdx,rax
    63b2:	48 8d 05 e7 92 00 00 	lea    rax,[rip+0x92e7]        # f6a0 <toks>
    63b9:	8b 04 02             	mov    eax,DWORD PTR [rdx+rax*1]
    63bc:	83 f8 0b             	cmp    eax,0xb
    63bf:	0f 85 ba 00 00 00    	jne    647f <PARSE+0xaa0>
    63c5:	8b 45 fc             	mov    eax,DWORD PTR [rbp-0x4]
    63c8:	48 63 d0             	movsxd rdx,eax
    63cb:	48 89 d0             	mov    rax,rdx
    63ce:	48 01 c0             	add    rax,rax
    63d1:	48 01 d0             	add    rax,rdx
    63d4:	48 c1 e0 03          	shl    rax,0x3
    63d8:	48 89 c2             	mov    rdx,rax
    63db:	48 8d 05 c6 92 00 00 	lea    rax,[rip+0x92c6]        # f6a8 <toks+0x8>
    63e2:	48 8b 04 02          	mov    rax,QWORD PTR [rdx+rax*1]
    63e6:	48 89 45 f0          	mov    QWORD PTR [rbp-0x10],rax
    63ea:	eb 7e                	jmp    646a <PARSE+0xa8b>
    63ec:	8b 85 88 f8 ff ff    	mov    eax,DWORD PTR [rbp-0x778]
    63f2:	3d ff 00 00 00       	cmp    eax,0xff
    63f7:	76 48                	jbe    6441 <PARSE+0xa62>
    63f9:	8b 45 fc             	mov    eax,DWORD PTR [rbp-0x4]
    63fc:	48 63 d0             	movsxd rdx,eax
    63ff:	48 89 d0             	mov    rax,rdx
    6402:	48 01 c0             	add    rax,rax
    6405:	48 01 d0             	add    rax,rdx
    6408:	48 c1 e0 03          	shl    rax,0x3
    640c:	48 89 c2             	mov    rdx,rax
    640f:	48 8d 05 9a 92 00 00 	lea    rax,[rip+0x929a]        # f6b0 <toks+0x10>
    6416:	8b 14 02             	mov    edx,DWORD PTR [rdx+rax*1]
    6419:	48 8b 05 40 92 00 00 	mov    rax,QWORD PTR [rip+0x9240]        # f660 <stderr@GLIBC_2.2.5>
    6420:	48 8d 0d c9 66 00 00 	lea    rcx,[rip+0x66c9]        # caf0 <_IO_stdin_used+0xaf0>
    6427:	48 89 ce             	mov    rsi,rcx
    642a:	48 89 c7             	mov    rdi,rax
    642d:	b8 00 00 00 00       	mov    eax,0x0
    6432:	e8 c9 bc ff ff       	call   2100 <fprintf@plt>
    6437:	bf 01 00 00 00       	mov    edi,0x1
    643c:	e8 1f bd ff ff       	call   2160 <exit@plt>
    6441:	48 8b 45 f0          	mov    rax,QWORD PTR [rbp-0x10]
    6445:	48 8d 50 01          	lea    rdx,[rax+0x1]
    6449:	48 89 55 f0          	mov    QWORD PTR [rbp-0x10],rdx
    644d:	0f b6 08             	movzx  ecx,BYTE PTR [rax]
    6450:	8b 85 88 f8 ff ff    	mov    eax,DWORD PTR [rbp-0x778]
    6456:	8d 50 01             	lea    edx,[rax+0x1]
    6459:	89 95 88 f8 ff ff    	mov    DWORD PTR [rbp-0x778],edx
    645f:	89 ca                	mov    edx,ecx
    6461:	48 98                	cdqe
    6463:	88 94 05 88 f7 ff ff 	mov    BYTE PTR [rbp+rax*1-0x878],dl
    646a:	48 8b 45 f0          	mov    rax,QWORD PTR [rbp-0x10]
    646e:	0f b6 00             	movzx  eax,BYTE PTR [rax]
    6471:	84 c0                	test   al,al
    6473:	0f 85 73 ff ff ff    	jne    63ec <PARSE+0xa0d>
    6479:	83 45 fc 01          	add    DWORD PTR [rbp-0x4],0x1
    647d:	eb 48                	jmp    64c7 <PARSE+0xae8>
    647f:	8b 45 fc             	mov    eax,DWORD PTR [rbp-0x4]
    6482:	48 63 d0             	movsxd rdx,eax
    6485:	48 89 d0             	mov    rax,rdx
    6488:	48 01 c0             	add    rax,rax
    648b:	48 01 d0             	add    rax,rdx
    648e:	48 c1 e0 03          	shl    rax,0x3
    6492:	48 89 c2             	mov    rdx,rax
    6495:	48 8d 05 14 92 00 00 	lea    rax,[rip+0x9214]        # f6b0 <toks+0x10>
    649c:	8b 14 02             	mov    edx,DWORD PTR [rdx+rax*1]
    649f:	48 8b 05 ba 91 00 00 	mov    rax,QWORD PTR [rip+0x91ba]        # f660 <stderr@GLIBC_2.2.5>
    64a6:	48 8d 0d 7b 66 00 00 	lea    rcx,[rip+0x667b]        # cb28 <_IO_stdin_used+0xb28>
    64ad:	48 89 ce             	mov    rsi,rcx
    64b0:	48 89 c7             	mov    rdi,rax
    64b3:	b8 00 00 00 00       	mov    eax,0x0
    64b8:	e8 43 bc ff ff       	call   2100 <fprintf@plt>
    64bd:	bf 01 00 00 00       	mov    edi,0x1
    64c2:	e8 99 bc ff ff       	call   2160 <exit@plt>
    64c7:	8b 05 d3 f1 00 00    	mov    eax,DWORD PTR [rip+0xf1d3]        # 156a0 <toks_count>
    64cd:	39 45 fc             	cmp    DWORD PTR [rbp-0x4],eax
    64d0:	0f 8c 12 fd ff ff    	jl     61e8 <PARSE+0x809>
    64d6:	8b 05 e4 51 26 00    	mov    eax,DWORD PTR [rip+0x2651e4]        # 26b6c0 <ast_count>
    64dc:	8d 50 01             	lea    edx,[rax+0x1]
    64df:	89 15 db 51 26 00    	mov    DWORD PTR [rip+0x2651db],edx        # 26b6c0 <ast_count>
    64e5:	48 98                	cdqe
    64e7:	48 69 c0 58 09 00 00 	imul   rax,rax,0x958
    64ee:	48 8d 15 cb f1 00 00 	lea    rdx,[rip+0xf1cb]        # 156c0 <ast>
    64f5:	48 01 c2             	add    rdx,rax
    64f8:	48 8d 85 80 f6 ff ff 	lea    rax,[rbp-0x980]
    64ff:	b9 2b 01 00 00       	mov    ecx,0x12b
    6504:	48 89 d7             	mov    rdi,rdx
    6507:	48 89 c6             	mov    rsi,rax
    650a:	f3 48 a5             	rep movs QWORD PTR es:[rdi],QWORD PTR ds:[rsi]
    650d:	8b 05 8d f1 00 00    	mov    eax,DWORD PTR [rip+0xf18d]        # 156a0 <toks_count>
    6513:	39 45 fc             	cmp    DWORD PTR [rbp-0x4],eax
    6516:	0f 8d 01 17 00 00    	jge    7c1d <PARSE+0x223e>
    651c:	8b 45 fc             	mov    eax,DWORD PTR [rbp-0x4]
    651f:	48 63 d0             	movsxd rdx,eax
    6522:	48 89 d0             	mov    rax,rdx
    6525:	48 01 c0             	add    rax,rax
    6528:	48 01 d0             	add    rax,rdx
    652b:	48 c1 e0 03          	shl    rax,0x3
    652f:	48 89 c2             	mov    rdx,rax
    6532:	48 8d 05 67 91 00 00 	lea    rax,[rip+0x9167]        # f6a0 <toks>
    6539:	8b 04 02             	mov    eax,DWORD PTR [rdx+rax*1]
    653c:	83 f8 0c             	cmp    eax,0xc
    653f:	0f 85 d8 16 00 00    	jne    7c1d <PARSE+0x223e>
    6545:	83 45 fc 01          	add    DWORD PTR [rbp-0x4],0x1
    6549:	e9 cf 16 00 00       	jmp    7c1d <PARSE+0x223e>
    654e:	48 8b 45 e8          	mov    rax,QWORD PTR [rbp-0x18]
    6552:	8b 00                	mov    eax,DWORD PTR [rax]
    6554:	83 f8 10             	cmp    eax,0x10
    6557:	0f 85 fa 02 00 00    	jne    6857 <PARSE+0xe78>
    655d:	83 7d fc 00          	cmp    DWORD PTR [rbp-0x4],0x0
    6561:	74 2c                	je     658f <PARSE+0xbb0>
    6563:	8b 45 fc             	mov    eax,DWORD PTR [rbp-0x4]
    6566:	83 e8 01             	sub    eax,0x1
    6569:	48 63 d0             	movsxd rdx,eax
    656c:	48 89 d0             	mov    rax,rdx
    656f:	48 01 c0             	add    rax,rax
    6572:	48 01 d0             	add    rax,rdx
    6575:	48 c1 e0 03          	shl    rax,0x3
    6579:	48 89 c2             	mov    rdx,rax
    657c:	48 8d 05 1d 91 00 00 	lea    rax,[rip+0x911d]        # f6a0 <toks>
    6583:	8b 04 02             	mov    eax,DWORD PTR [rdx+rax*1]
    6586:	83 f8 02             	cmp    eax,0x2
    6589:	0f 85 c8 02 00 00    	jne    6857 <PARSE+0xe78>
    658f:	c7 85 80 f6 ff ff 03 	mov    DWORD PTR [rbp-0x980],0x3
    6596:	00 00 00 
    6599:	c7 45 88 00 00 00 00 	mov    DWORD PTR [rbp-0x78],0x0
    65a0:	83 45 fc 01          	add    DWORD PTR [rbp-0x4],0x1
    65a4:	e9 27 02 00 00       	jmp    67d0 <PARSE+0xdf1>
    65a9:	8b 45 fc             	mov    eax,DWORD PTR [rbp-0x4]
    65ac:	48 63 d0             	movsxd rdx,eax
    65af:	48 89 d0             	mov    rax,rdx
    65b2:	48 01 c0             	add    rax,rax
    65b5:	48 01 d0             	add    rax,rdx
    65b8:	48 c1 e0 03          	shl    rax,0x3
    65bc:	48 89 c2             	mov    rdx,rax
    65bf:	48 8d 05 da 90 00 00 	lea    rax,[rip+0x90da]        # f6a0 <toks>
    65c6:	8b 04 02             	mov    eax,DWORD PTR [rdx+rax*1]
    65c9:	83 f8 0c             	cmp    eax,0xc
    65cc:	0f 84 0d 02 00 00    	je     67df <PARSE+0xe00>
    65d2:	8b 45 fc             	mov    eax,DWORD PTR [rbp-0x4]
    65d5:	48 63 d0             	movsxd rdx,eax
    65d8:	48 89 d0             	mov    rax,rdx
    65db:	48 01 c0             	add    rax,rax
    65de:	48 01 d0             	add    rax,rdx
    65e1:	48 c1 e0 03          	shl    rax,0x3
    65e5:	48 89 c2             	mov    rdx,rax
    65e8:	48 8d 05 b1 90 00 00 	lea    rax,[rip+0x90b1]        # f6a0 <toks>
    65ef:	8b 04 02             	mov    eax,DWORD PTR [rdx+rax*1]
    65f2:	83 f8 0d             	cmp    eax,0xd
    65f5:	0f 84 e4 01 00 00    	je     67df <PARSE+0xe00>
    65fb:	8b 45 fc             	mov    eax,DWORD PTR [rbp-0x4]
    65fe:	48 63 d0             	movsxd rdx,eax
    6601:	48 89 d0             	mov    rax,rdx
    6604:	48 01 c0             	add    rax,rax
    6607:	48 01 d0             	add    rax,rdx
    660a:	48 c1 e0 03          	shl    rax,0x3
    660e:	48 89 c2             	mov    rdx,rax
    6611:	48 8d 05 88 90 00 00 	lea    rax,[rip+0x9088]        # f6a0 <toks>
    6618:	8b 04 02             	mov    eax,DWORD PTR [rdx+rax*1]
    661b:	83 f8 18             	cmp    eax,0x18
    661e:	75 09                	jne    6629 <PARSE+0xc4a>
    6620:	83 45 fc 01          	add    DWORD PTR [rbp-0x4],0x1
    6624:	e9 a7 01 00 00       	jmp    67d0 <PARSE+0xdf1>
    6629:	8b 45 fc             	mov    eax,DWORD PTR [rbp-0x4]
    662c:	48 63 d0             	movsxd rdx,eax
    662f:	48 89 d0             	mov    rax,rdx
    6632:	48 01 c0             	add    rax,rax
    6635:	48 01 d0             	add    rax,rdx
    6638:	48 c1 e0 03          	shl    rax,0x3
    663c:	48 89 c2             	mov    rdx,rax
    663f:	48 8d 05 5a 90 00 00 	lea    rax,[rip+0x905a]        # f6a0 <toks>
    6646:	8b 04 02             	mov    eax,DWORD PTR [rdx+rax*1]
    6649:	83 f8 02             	cmp    eax,0x2
    664c:	0f 85 88 00 00 00    	jne    66da <PARSE+0xcfb>
    6652:	8b 45 88             	mov    eax,DWORD PTR [rbp-0x78]
    6655:	3d ff 00 00 00       	cmp    eax,0xff
    665a:	7e 2d                	jle    6689 <PARSE+0xcaa>
    665c:	48 8b 05 fd 8f 00 00 	mov    rax,QWORD PTR [rip+0x8ffd]        # f660 <stderr@GLIBC_2.2.5>
    6663:	48 89 c1             	mov    rcx,rax
    6666:	ba 22 00 00 00       	mov    edx,0x22
    666b:	be 01 00 00 00       	mov    esi,0x1
    6670:	48 8d 05 e1 64 00 00 	lea    rax,[rip+0x64e1]        # cb58 <_IO_stdin_used+0xb58>
    6677:	48 89 c7             	mov    rdi,rax
    667a:	e8 f1 ba ff ff       	call   2170 <fwrite@plt>
    667f:	bf 01 00 00 00       	mov    edi,0x1
    6684:	e8 d7 ba ff ff       	call   2160 <exit@plt>
    6689:	8b 45 fc             	mov    eax,DWORD PTR [rbp-0x4]
    668c:	48 63 d0             	movsxd rdx,eax
    668f:	48 89 d0             	mov    rax,rdx
    6692:	48 01 c0             	add    rax,rax
    6695:	48 01 d0             	add    rax,rdx
    6698:	48 c1 e0 03          	shl    rax,0x3
    669c:	48 89 c2             	mov    rdx,rax
    669f:	48 8d 05 02 90 00 00 	lea    rax,[rip+0x9002]        # f6a8 <toks+0x8>
    66a6:	48 8b 0c 02          	mov    rcx,QWORD PTR [rdx+rax*1]
    66aa:	8b 45 88             	mov    eax,DWORD PTR [rbp-0x78]
    66ad:	8d 50 01             	lea    edx,[rax+0x1]
    66b0:	89 55 88             	mov    DWORD PTR [rbp-0x78],edx
    66b3:	48 98                	cdqe
    66b5:	48 83 c0 20          	add    rax,0x20
    66b9:	48 8b 84 c5 88 f6 ff 	mov    rax,QWORD PTR [rbp+rax*8-0x978]
    66c0:	ff 
    66c1:	ba 00 01 00 00       	mov    edx,0x100
    66c6:	48 89 ce             	mov    rsi,rcx
    66c9:	48 89 c7             	mov    rdi,rax
    66cc:	e8 8f b9 ff ff       	call   2060 <strncpy@plt>
    66d1:	83 45 fc 01          	add    DWORD PTR [rbp-0x4],0x1
    66d5:	e9 f6 00 00 00       	jmp    67d0 <PARSE+0xdf1>
    66da:	8b 45 fc             	mov    eax,DWORD PTR [rbp-0x4]
    66dd:	48 63 d0             	movsxd rdx,eax
    66e0:	48 89 d0             	mov    rax,rdx
    66e3:	48 01 c0             	add    rax,rax
    66e6:	48 01 d0             	add    rax,rdx
    66e9:	48 c1 e0 03          	shl    rax,0x3
    66ed:	48 89 c2             	mov    rdx,rax
    66f0:	48 8d 05 a9 8f 00 00 	lea    rax,[rip+0x8fa9]        # f6a0 <toks>
    66f7:	8b 04 02             	mov    eax,DWORD PTR [rdx+rax*1]
    66fa:	83 f8 01             	cmp    eax,0x1
    66fd:	0f 85 85 00 00 00    	jne    6788 <PARSE+0xda9>
    6703:	8b 45 fc             	mov    eax,DWORD PTR [rbp-0x4]
    6706:	48 63 d0             	movsxd rdx,eax
    6709:	48 89 d0             	mov    rax,rdx
    670c:	48 01 c0             	add    rax,rax
    670f:	48 01 d0             	add    rax,rdx
    6712:	48 c1 e0 03          	shl    rax,0x3
    6716:	48 89 c2             	mov    rdx,rax
    6719:	48 8d 05 88 8f 00 00 	lea    rax,[rip+0x8f88]        # f6a8 <toks+0x8>
    6720:	48 8b 04 02          	mov    rax,QWORD PTR [rdx+rax*1]
    6724:	48 89 c7             	mov    rdi,rax
    6727:	e8 24 ba ff ff       	call   2150 <atoi@plt>
    672c:	85 c0                	test   eax,eax
    672e:	75 58                	jne    6788 <PARSE+0xda9>
    6730:	8b 45 88             	mov    eax,DWORD PTR [rbp-0x78]
    6733:	3d ff 00 00 00       	cmp    eax,0xff
    6738:	7e 2d                	jle    6767 <PARSE+0xd88>
    673a:	48 8b 05 1f 8f 00 00 	mov    rax,QWORD PTR [rip+0x8f1f]        # f660 <stderr@GLIBC_2.2.5>
    6741:	48 89 c1             	mov    rcx,rax
    6744:	ba 22 00 00 00       	mov    edx,0x22
    6749:	be 01 00 00 00       	mov    esi,0x1
    674e:	48 8d 05 03 64 00 00 	lea    rax,[rip+0x6403]        # cb58 <_IO_stdin_used+0xb58>
    6755:	48 89 c7             	mov    rdi,rax
    6758:	e8 13 ba ff ff       	call   2170 <fwrite@plt>
    675d:	bf 01 00 00 00       	mov    edi,0x1
    6762:	e8 f9 b9 ff ff       	call   2160 <exit@plt>
    6767:	8b 45 88             	mov    eax,DWORD PTR [rbp-0x78]
    676a:	8d 50 01             	lea    edx,[rax+0x1]
    676d:	89 55 88             	mov    DWORD PTR [rbp-0x78],edx
    6770:	48 98                	cdqe
    6772:	48 83 c0 20          	add    rax,0x20
    6776:	48 c7 84 c5 88 f6 ff 	mov    QWORD PTR [rbp+rax*8-0x978],0x0
    677d:	ff 00 00 00 00 
    6782:	83 45 fc 01          	add    DWORD PTR [rbp-0x4],0x1
    6786:	eb 48                	jmp    67d0 <PARSE+0xdf1>
    6788:	8b 45 fc             	mov    eax,DWORD PTR [rbp-0x4]
    678b:	48 63 d0             	movsxd rdx,eax
    678e:	48 89 d0             	mov    rax,rdx
    6791:	48 01 c0             	add    rax,rax
    6794:	48 01 d0             	add    rax,rdx
    6797:	48 c1 e0 03          	shl    rax,0x3
    679b:	48 89 c2             	mov    rdx,rax
    679e:	48 8d 05 0b 8f 00 00 	lea    rax,[rip+0x8f0b]        # f6b0 <toks+0x10>
    67a5:	8b 14 02             	mov    edx,DWORD PTR [rdx+rax*1]
    67a8:	48 8b 05 b1 8e 00 00 	mov    rax,QWORD PTR [rip+0x8eb1]        # f660 <stderr@GLIBC_2.2.5>
    67af:	48 8d 0d ca 63 00 00 	lea    rcx,[rip+0x63ca]        # cb80 <_IO_stdin_used+0xb80>
    67b6:	48 89 ce             	mov    rsi,rcx
    67b9:	48 89 c7             	mov    rdi,rax
    67bc:	b8 00 00 00 00       	mov    eax,0x0
    67c1:	e8 3a b9 ff ff       	call   2100 <fprintf@plt>
    67c6:	bf 01 00 00 00       	mov    edi,0x1
    67cb:	e8 90 b9 ff ff       	call   2160 <exit@plt>
    67d0:	8b 05 ca ee 00 00    	mov    eax,DWORD PTR [rip+0xeeca]        # 156a0 <toks_count>
    67d6:	39 45 fc             	cmp    DWORD PTR [rbp-0x4],eax
    67d9:	0f 8c ca fd ff ff    	jl     65a9 <PARSE+0xbca>
    67df:	8b 05 db 4e 26 00    	mov    eax,DWORD PTR [rip+0x264edb]        # 26b6c0 <ast_count>
    67e5:	8d 50 01             	lea    edx,[rax+0x1]
    67e8:	89 15 d2 4e 26 00    	mov    DWORD PTR [rip+0x264ed2],edx        # 26b6c0 <ast_count>
    67ee:	48 98                	cdqe
    67f0:	48 69 c0 58 09 00 00 	imul   rax,rax,0x958
    67f7:	48 8d 15 c2 ee 00 00 	lea    rdx,[rip+0xeec2]        # 156c0 <ast>
    67fe:	48 01 c2             	add    rdx,rax
    6801:	48 8d 85 80 f6 ff ff 	lea    rax,[rbp-0x980]
    6808:	b9 2b 01 00 00       	mov    ecx,0x12b
    680d:	48 89 d7             	mov    rdi,rdx
    6810:	48 89 c6             	mov    rsi,rax
    6813:	f3 48 a5             	rep movs QWORD PTR es:[rdi],QWORD PTR ds:[rsi]
    6816:	8b 05 84 ee 00 00    	mov    eax,DWORD PTR [rip+0xee84]        # 156a0 <toks_count>
    681c:	39 45 fc             	cmp    DWORD PTR [rbp-0x4],eax
    681f:	0f 8d fb 13 00 00    	jge    7c20 <PARSE+0x2241>
    6825:	8b 45 fc             	mov    eax,DWORD PTR [rbp-0x4]
    6828:	48 63 d0             	movsxd rdx,eax
    682b:	48 89 d0             	mov    rax,rdx
    682e:	48 01 c0             	add    rax,rax
    6831:	48 01 d0             	add    rax,rdx
    6834:	48 c1 e0 03          	shl    rax,0x3
    6838:	48 89 c2             	mov    rdx,rax
    683b:	48 8d 05 5e 8e 00 00 	lea    rax,[rip+0x8e5e]        # f6a0 <toks>
    6842:	8b 04 02             	mov    eax,DWORD PTR [rdx+rax*1]
    6845:	83 f8 0c             	cmp    eax,0xc
    6848:	0f 85 d2 13 00 00    	jne    7c20 <PARSE+0x2241>
    684e:	83 45 fc 01          	add    DWORD PTR [rbp-0x4],0x1
    6852:	e9 c9 13 00 00       	jmp    7c20 <PARSE+0x2241>
    6857:	48 8b 45 e8          	mov    rax,QWORD PTR [rbp-0x18]
    685b:	8b 00                	mov    eax,DWORD PTR [rax]
    685d:	83 f8 11             	cmp    eax,0x11
    6860:	0f 85 7c 02 00 00    	jne    6ae2 <PARSE+0x1103>
    6866:	83 7d fc 00          	cmp    DWORD PTR [rbp-0x4],0x0
    686a:	74 2c                	je     6898 <PARSE+0xeb9>
    686c:	8b 45 fc             	mov    eax,DWORD PTR [rbp-0x4]
    686f:	83 e8 01             	sub    eax,0x1
    6872:	48 63 d0             	movsxd rdx,eax
    6875:	48 89 d0             	mov    rax,rdx
    6878:	48 01 c0             	add    rax,rax
    687b:	48 01 d0             	add    rax,rdx
    687e:	48 c1 e0 03          	shl    rax,0x3
    6882:	48 89 c2             	mov    rdx,rax
    6885:	48 8d 05 14 8e 00 00 	lea    rax,[rip+0x8e14]        # f6a0 <toks>
    688c:	8b 04 02             	mov    eax,DWORD PTR [rdx+rax*1]
    688f:	83 f8 02             	cmp    eax,0x2
    6892:	0f 85 4a 02 00 00    	jne    6ae2 <PARSE+0x1103>
    6898:	c7 85 80 f6 ff ff 04 	mov    DWORD PTR [rbp-0x980],0x4
    689f:	00 00 00 
    68a2:	c7 85 88 f9 ff ff 00 	mov    DWORD PTR [rbp-0x678],0x0
    68a9:	00 00 00 
    68ac:	83 45 fc 01          	add    DWORD PTR [rbp-0x4],0x1
    68b0:	e9 a6 01 00 00       	jmp    6a5b <PARSE+0x107c>
    68b5:	8b 45 fc             	mov    eax,DWORD PTR [rbp-0x4]
    68b8:	48 63 d0             	movsxd rdx,eax
    68bb:	48 89 d0             	mov    rax,rdx
    68be:	48 01 c0             	add    rax,rax
    68c1:	48 01 d0             	add    rax,rdx
    68c4:	48 c1 e0 03          	shl    rax,0x3
    68c8:	48 89 c2             	mov    rdx,rax
    68cb:	48 8d 05 ce 8d 00 00 	lea    rax,[rip+0x8dce]        # f6a0 <toks>
    68d2:	8b 04 02             	mov    eax,DWORD PTR [rdx+rax*1]
    68d5:	83 f8 0c             	cmp    eax,0xc
    68d8:	0f 84 8c 01 00 00    	je     6a6a <PARSE+0x108b>
    68de:	8b 45 fc             	mov    eax,DWORD PTR [rbp-0x4]
    68e1:	48 63 d0             	movsxd rdx,eax
    68e4:	48 89 d0             	mov    rax,rdx
    68e7:	48 01 c0             	add    rax,rax
    68ea:	48 01 d0             	add    rax,rdx
    68ed:	48 c1 e0 03          	shl    rax,0x3
    68f1:	48 89 c2             	mov    rdx,rax
    68f4:	48 8d 05 a5 8d 00 00 	lea    rax,[rip+0x8da5]        # f6a0 <toks>
    68fb:	8b 04 02             	mov    eax,DWORD PTR [rdx+rax*1]
    68fe:	83 f8 0d             	cmp    eax,0xd
    6901:	0f 84 63 01 00 00    	je     6a6a <PARSE+0x108b>
    6907:	8b 45 fc             	mov    eax,DWORD PTR [rbp-0x4]
    690a:	48 63 d0             	movsxd rdx,eax
    690d:	48 89 d0             	mov    rax,rdx
    6910:	48 01 c0             	add    rax,rax
    6913:	48 01 d0             	add    rax,rdx
    6916:	48 c1 e0 03          	shl    rax,0x3
    691a:	48 89 c2             	mov    rdx,rax
    691d:	48 8d 05 7c 8d 00 00 	lea    rax,[rip+0x8d7c]        # f6a0 <toks>
    6924:	8b 04 02             	mov    eax,DWORD PTR [rdx+rax*1]
    6927:	83 f8 18             	cmp    eax,0x18
    692a:	75 09                	jne    6935 <PARSE+0xf56>
    692c:	83 45 fc 01          	add    DWORD PTR [rbp-0x4],0x1
    6930:	e9 26 01 00 00       	jmp    6a5b <PARSE+0x107c>
    6935:	8b 85 88 f9 ff ff    	mov    eax,DWORD PTR [rbp-0x678]
    693b:	3d ff 00 00 00       	cmp    eax,0xff
    6940:	7e 3e                	jle    6980 <PARSE+0xfa1>
    6942:	8b 45 fc             	mov    eax,DWORD PTR [rbp-0x4]
    6945:	48 63 d0             	movsxd rdx,eax
    6948:	48 89 d0             	mov    rax,rdx
    694b:	48 01 c0             	add    rax,rax
    694e:	48 01 d0             	add    rax,rdx
    6951:	48 c1 e0 03          	shl    rax,0x3
    6955:	48 89 c2             	mov    rdx,rax
    6958:	48 8d 05 51 8d 00 00 	lea    rax,[rip+0x8d51]        # f6b0 <toks+0x10>
    695f:	8b 14 02             	mov    edx,DWORD PTR [rdx+rax*1]
    6962:	48 8b 05 f7 8c 00 00 	mov    rax,QWORD PTR [rip+0x8cf7]        # f660 <stderr@GLIBC_2.2.5>
    6969:	48 8d 0d 58 62 00 00 	lea    rcx,[rip+0x6258]        # cbc8 <_IO_stdin_used+0xbc8>
    6970:	48 89 ce             	mov    rsi,rcx
    6973:	48 89 c7             	mov    rdi,rax
    6976:	b8 00 00 00 00       	mov    eax,0x0
    697b:	e8 80 b7 ff ff       	call   2100 <fprintf@plt>
    6980:	8b 45 fc             	mov    eax,DWORD PTR [rbp-0x4]
    6983:	48 63 d0             	movsxd rdx,eax
    6986:	48 89 d0             	mov    rax,rdx
    6989:	48 01 c0             	add    rax,rax
    698c:	48 01 d0             	add    rax,rdx
    698f:	48 c1 e0 03          	shl    rax,0x3
    6993:	48 89 c2             	mov    rdx,rax
    6996:	48 8d 05 03 8d 00 00 	lea    rax,[rip+0x8d03]        # f6a0 <toks>
    699d:	8b 04 02             	mov    eax,DWORD PTR [rdx+rax*1]
    69a0:	83 f8 01             	cmp    eax,0x1
    69a3:	75 50                	jne    69f5 <PARSE+0x1016>
    69a5:	8b 45 fc             	mov    eax,DWORD PTR [rbp-0x4]
    69a8:	48 63 d0             	movsxd rdx,eax
    69ab:	48 89 d0             	mov    rax,rdx
    69ae:	48 01 c0             	add    rax,rax
    69b1:	48 01 d0             	add    rax,rdx
    69b4:	48 c1 e0 03          	shl    rax,0x3
    69b8:	48 89 c2             	mov    rdx,rax
    69bb:	48 8d 05 e6 8c 00 00 	lea    rax,[rip+0x8ce6]        # f6a8 <toks+0x8>
    69c2:	48 8b 04 02          	mov    rax,QWORD PTR [rdx+rax*1]
    69c6:	48 89 c7             	mov    rdi,rax
    69c9:	e8 82 b7 ff ff       	call   2150 <atoi@plt>
    69ce:	89 c1                	mov    ecx,eax
    69d0:	8b 85 88 f9 ff ff    	mov    eax,DWORD PTR [rbp-0x678]
    69d6:	8d 50 01             	lea    edx,[rax+0x1]
    69d9:	89 95 88 f9 ff ff    	mov    DWORD PTR [rbp-0x678],edx
    69df:	89 ca                	mov    edx,ecx
    69e1:	48 98                	cdqe
    69e3:	48 83 e8 80          	sub    rax,0xffffffffffffff80
    69e7:	66 89 94 45 88 f6 ff 	mov    WORD PTR [rbp+rax*2-0x978],dx
    69ee:	ff 
    69ef:	83 45 fc 01          	add    DWORD PTR [rbp-0x4],0x1
    69f3:	eb 66                	jmp    6a5b <PARSE+0x107c>
    69f5:	8b 45 fc             	mov    eax,DWORD PTR [rbp-0x4]
    69f8:	48 63 d0             	movsxd rdx,eax
    69fb:	48 89 d0             	mov    rax,rdx
    69fe:	48 01 c0             	add    rax,rax
    6a01:	48 01 d0             	add    rax,rdx
    6a04:	48 c1 e0 03          	shl    rax,0x3
    6a08:	48 89 c2             	mov    rdx,rax
    6a0b:	48 8d 05 96 8c 00 00 	lea    rax,[rip+0x8c96]        # f6a8 <toks+0x8>
    6a12:	48 8b 0c 02          	mov    rcx,QWORD PTR [rdx+rax*1]
    6a16:	8b 45 fc             	mov    eax,DWORD PTR [rbp-0x4]
    6a19:	48 63 d0             	movsxd rdx,eax
    6a1c:	48 89 d0             	mov    rax,rdx
    6a1f:	48 01 c0             	add    rax,rax
    6a22:	48 01 d0             	add    rax,rdx
    6a25:	48 c1 e0 03          	shl    rax,0x3
    6a29:	48 89 c2             	mov    rdx,rax
    6a2c:	48 8d 05 7d 8c 00 00 	lea    rax,[rip+0x8c7d]        # f6b0 <toks+0x10>
    6a33:	8b 14 02             	mov    edx,DWORD PTR [rdx+rax*1]
    6a36:	48 8b 05 23 8c 00 00 	mov    rax,QWORD PTR [rip+0x8c23]        # f660 <stderr@GLIBC_2.2.5>
    6a3d:	48 8d 35 b4 61 00 00 	lea    rsi,[rip+0x61b4]        # cbf8 <_IO_stdin_used+0xbf8>
    6a44:	48 89 c7             	mov    rdi,rax
    6a47:	b8 00 00 00 00       	mov    eax,0x0
    6a4c:	e8 af b6 ff ff       	call   2100 <fprintf@plt>
    6a51:	bf 01 00 00 00       	mov    edi,0x1
    6a56:	e8 05 b7 ff ff       	call   2160 <exit@plt>
    6a5b:	8b 05 3f ec 00 00    	mov    eax,DWORD PTR [rip+0xec3f]        # 156a0 <toks_count>
    6a61:	39 45 fc             	cmp    DWORD PTR [rbp-0x4],eax
    6a64:	0f 8c 4b fe ff ff    	jl     68b5 <PARSE+0xed6>
    6a6a:	8b 05 50 4c 26 00    	mov    eax,DWORD PTR [rip+0x264c50]        # 26b6c0 <ast_count>
    6a70:	8d 50 01             	lea    edx,[rax+0x1]
    6a73:	89 15 47 4c 26 00    	mov    DWORD PTR [rip+0x264c47],edx        # 26b6c0 <ast_count>
    6a79:	48 98                	cdqe
    6a7b:	48 69 c0 58 09 00 00 	imul   rax,rax,0x958
    6a82:	48 8d 15 37 ec 00 00 	lea    rdx,[rip+0xec37]        # 156c0 <ast>
    6a89:	48 01 c2             	add    rdx,rax
    6a8c:	48 8d 85 80 f6 ff ff 	lea    rax,[rbp-0x980]
    6a93:	b9 2b 01 00 00       	mov    ecx,0x12b
    6a98:	48 89 d7             	mov    rdi,rdx
    6a9b:	48 89 c6             	mov    rsi,rax
    6a9e:	f3 48 a5             	rep movs QWORD PTR es:[rdi],QWORD PTR ds:[rsi]
    6aa1:	8b 05 f9 eb 00 00    	mov    eax,DWORD PTR [rip+0xebf9]        # 156a0 <toks_count>
    6aa7:	39 45 fc             	cmp    DWORD PTR [rbp-0x4],eax
    6aaa:	0f 8d 73 11 00 00    	jge    7c23 <PARSE+0x2244>
    6ab0:	8b 45 fc             	mov    eax,DWORD PTR [rbp-0x4]
    6ab3:	48 63 d0             	movsxd rdx,eax
    6ab6:	48 89 d0             	mov    rax,rdx
    6ab9:	48 01 c0             	add    rax,rax
    6abc:	48 01 d0             	add    rax,rdx
    6abf:	48 c1 e0 03          	shl    rax,0x3
    6ac3:	48 89 c2             	mov    rdx,rax
    6ac6:	48 8d 05 d3 8b 00 00 	lea    rax,[rip+0x8bd3]        # f6a0 <toks>
    6acd:	8b 04 02             	mov    eax,DWORD PTR [rdx+rax*1]
    6ad0:	83 f8 0c             	cmp    eax,0xc
    6ad3:	0f 85 4a 11 00 00    	jne    7c23 <PARSE+0x2244>
    6ad9:	83 45 fc 01          	add    DWORD PTR [rbp-0x4],0x1
    6add:	e9 41 11 00 00       	jmp    7c23 <PARSE+0x2244>
    6ae2:	48 8b 45 e8          	mov    rax,QWORD PTR [rbp-0x18]
    6ae6:	8b 00                	mov    eax,DWORD PTR [rax]
    6ae8:	83 f8 12             	cmp    eax,0x12
    6aeb:	0f 85 c1 02 00 00    	jne    6db2 <PARSE+0x13d3>
    6af1:	83 7d fc 00          	cmp    DWORD PTR [rbp-0x4],0x0
    6af5:	74 2c                	je     6b23 <PARSE+0x1144>
    6af7:	8b 45 fc             	mov    eax,DWORD PTR [rbp-0x4]
    6afa:	83 e8 01             	sub    eax,0x1
    6afd:	48 63 d0             	movsxd rdx,eax
    6b00:	48 89 d0             	mov    rax,rdx
    6b03:	48 01 c0             	add    rax,rax
    6b06:	48 01 d0             	add    rax,rdx
    6b09:	48 c1 e0 03          	shl    rax,0x3
    6b0d:	48 89 c2             	mov    rdx,rax
    6b10:	48 8d 05 89 8b 00 00 	lea    rax,[rip+0x8b89]        # f6a0 <toks>
    6b17:	8b 04 02             	mov    eax,DWORD PTR [rdx+rax*1]
    6b1a:	83 f8 02             	cmp    eax,0x2
    6b1d:	0f 85 8f 02 00 00    	jne    6db2 <PARSE+0x13d3>
    6b23:	c7 85 80 f6 ff ff 05 	mov    DWORD PTR [rbp-0x980],0x5
    6b2a:	00 00 00 
    6b2d:	c7 45 88 00 00 00 00 	mov    DWORD PTR [rbp-0x78],0x0
    6b34:	83 45 fc 01          	add    DWORD PTR [rbp-0x4],0x1
    6b38:	e9 ee 01 00 00       	jmp    6d2b <PARSE+0x134c>
    6b3d:	8b 45 fc             	mov    eax,DWORD PTR [rbp-0x4]
    6b40:	48 63 d0             	movsxd rdx,eax
    6b43:	48 89 d0             	mov    rax,rdx
    6b46:	48 01 c0             	add    rax,rax
    6b49:	48 01 d0             	add    rax,rdx
    6b4c:	48 c1 e0 03          	shl    rax,0x3
    6b50:	48 89 c2             	mov    rdx,rax
    6b53:	48 8d 05 46 8b 00 00 	lea    rax,[rip+0x8b46]        # f6a0 <toks>
    6b5a:	8b 04 02             	mov    eax,DWORD PTR [rdx+rax*1]
    6b5d:	83 f8 0c             	cmp    eax,0xc
    6b60:	0f 84 d4 01 00 00    	je     6d3a <PARSE+0x135b>
    6b66:	8b 45 fc             	mov    eax,DWORD PTR [rbp-0x4]
    6b69:	48 63 d0             	movsxd rdx,eax
    6b6c:	48 89 d0             	mov    rax,rdx
    6b6f:	48 01 c0             	add    rax,rax
    6b72:	48 01 d0             	add    rax,rdx
    6b75:	48 c1 e0 03          	shl    rax,0x3
    6b79:	48 89 c2             	mov    rdx,rax
    6b7c:	48 8d 05 1d 8b 00 00 	lea    rax,[rip+0x8b1d]        # f6a0 <toks>
    6b83:	8b 04 02             	mov    eax,DWORD PTR [rdx+rax*1]
    6b86:	83 f8 0d             	cmp    eax,0xd
    6b89:	0f 84 ab 01 00 00    	je     6d3a <PARSE+0x135b>
    6b8f:	8b 45 fc             	mov    eax,DWORD PTR [rbp-0x4]
    6b92:	48 63 d0             	movsxd rdx,eax
    6b95:	48 89 d0             	mov    rax,rdx
    6b98:	48 01 c0             	add    rax,rax
    6b9b:	48 01 d0             	add    rax,rdx
    6b9e:	48 c1 e0 03          	shl    rax,0x3
    6ba2:	48 89 c2             	mov    rdx,rax
    6ba5:	48 8d 05 f4 8a 00 00 	lea    rax,[rip+0x8af4]        # f6a0 <toks>
    6bac:	8b 04 02             	mov    eax,DWORD PTR [rdx+rax*1]
    6baf:	83 f8 18             	cmp    eax,0x18
    6bb2:	75 09                	jne    6bbd <PARSE+0x11de>
    6bb4:	83 45 fc 01          	add    DWORD PTR [rbp-0x4],0x1
    6bb8:	e9 6e 01 00 00       	jmp    6d2b <PARSE+0x134c>
    6bbd:	8b 45 88             	mov    eax,DWORD PTR [rbp-0x78]
    6bc0:	3d ff 00 00 00       	cmp    eax,0xff
    6bc5:	7e 48                	jle    6c0f <PARSE+0x1230>
    6bc7:	8b 45 fc             	mov    eax,DWORD PTR [rbp-0x4]
    6bca:	48 63 d0             	movsxd rdx,eax
    6bcd:	48 89 d0             	mov    rax,rdx
    6bd0:	48 01 c0             	add    rax,rax
    6bd3:	48 01 d0             	add    rax,rdx
    6bd6:	48 c1 e0 03          	shl    rax,0x3
    6bda:	48 89 c2             	mov    rdx,rax
    6bdd:	48 8d 05 cc 8a 00 00 	lea    rax,[rip+0x8acc]        # f6b0 <toks+0x10>
    6be4:	8b 14 02             	mov    edx,DWORD PTR [rdx+rax*1]
    6be7:	48 8b 05 72 8a 00 00 	mov    rax,QWORD PTR [rip+0x8a72]        # f660 <stderr@GLIBC_2.2.5>
    6bee:	48 8d 0d 3b 60 00 00 	lea    rcx,[rip+0x603b]        # cc30 <_IO_stdin_used+0xc30>
    6bf5:	48 89 ce             	mov    rsi,rcx
    6bf8:	48 89 c7             	mov    rdi,rax
    6bfb:	b8 00 00 00 00       	mov    eax,0x0
    6c00:	e8 fb b4 ff ff       	call   2100 <fprintf@plt>
    6c05:	bf 01 00 00 00       	mov    edi,0x1
    6c0a:	e8 51 b5 ff ff       	call   2160 <exit@plt>
    6c0f:	8b 45 fc             	mov    eax,DWORD PTR [rbp-0x4]
    6c12:	48 63 d0             	movsxd rdx,eax
    6c15:	48 89 d0             	mov    rax,rdx
    6c18:	48 01 c0             	add    rax,rax
    6c1b:	48 01 d0             	add    rax,rdx
    6c1e:	48 c1 e0 03          	shl    rax,0x3
    6c22:	48 89 c2             	mov    rdx,rax
    6c25:	48 8d 05 74 8a 00 00 	lea    rax,[rip+0x8a74]        # f6a0 <toks>
    6c2c:	8b 04 02             	mov    eax,DWORD PTR [rdx+rax*1]
    6c2f:	83 f8 02             	cmp    eax,0x2
    6c32:	75 42                	jne    6c76 <PARSE+0x1297>
    6c34:	8b 55 88             	mov    edx,DWORD PTR [rbp-0x78]
    6c37:	8d 42 01             	lea    eax,[rdx+0x1]
    6c3a:	89 45 88             	mov    DWORD PTR [rbp-0x78],eax
    6c3d:	8b 45 fc             	mov    eax,DWORD PTR [rbp-0x4]
    6c40:	48 63 c8             	movsxd rcx,eax
    6c43:	48 89 c8             	mov    rax,rcx
    6c46:	48 01 c0             	add    rax,rax
    6c49:	48 01 c8             	add    rax,rcx
    6c4c:	48 c1 e0 03          	shl    rax,0x3
    6c50:	48 89 c1             	mov    rcx,rax
    6c53:	48 8d 05 4e 8a 00 00 	lea    rax,[rip+0x8a4e]        # f6a8 <toks+0x8>
    6c5a:	48 8b 04 01          	mov    rax,QWORD PTR [rcx+rax*1]
    6c5e:	48 63 d2             	movsxd rdx,edx
    6c61:	48 83 c2 20          	add    rdx,0x20
    6c65:	48 89 84 d5 88 f6 ff 	mov    QWORD PTR [rbp+rdx*8-0x978],rax
    6c6c:	ff 
    6c6d:	83 45 fc 01          	add    DWORD PTR [rbp-0x4],0x1
    6c71:	e9 b5 00 00 00       	jmp    6d2b <PARSE+0x134c>
    6c76:	8b 45 fc             	mov    eax,DWORD PTR [rbp-0x4]
    6c79:	48 63 d0             	movsxd rdx,eax
    6c7c:	48 89 d0             	mov    rax,rdx
    6c7f:	48 01 c0             	add    rax,rax
    6c82:	48 01 d0             	add    rax,rdx
    6c85:	48 c1 e0 03          	shl    rax,0x3
    6c89:	48 89 c2             	mov    rdx,rax
    6c8c:	48 8d 05 0d 8a 00 00 	lea    rax,[rip+0x8a0d]        # f6a0 <toks>
    6c93:	8b 04 02             	mov    eax,DWORD PTR [rdx+rax*1]
    6c96:	83 f8 01             	cmp    eax,0x1
    6c99:	75 48                	jne    6ce3 <PARSE+0x1304>
    6c9b:	8b 45 fc             	mov    eax,DWORD PTR [rbp-0x4]
    6c9e:	48 63 d0             	movsxd rdx,eax
    6ca1:	48 89 d0             	mov    rax,rdx
    6ca4:	48 01 c0             	add    rax,rax
    6ca7:	48 01 d0             	add    rax,rdx
    6caa:	48 c1 e0 03          	shl    rax,0x3
    6cae:	48 89 c2             	mov    rdx,rax
    6cb1:	48 8d 05 f0 89 00 00 	lea    rax,[rip+0x89f0]        # f6a8 <toks+0x8>
    6cb8:	48 8b 04 02          	mov    rax,QWORD PTR [rdx+rax*1]
    6cbc:	48 89 c7             	mov    rdi,rax
    6cbf:	e8 8c b4 ff ff       	call   2150 <atoi@plt>
    6cc4:	85 c0                	test   eax,eax
    6cc6:	75 1b                	jne    6ce3 <PARSE+0x1304>
    6cc8:	8b 45 88             	mov    eax,DWORD PTR [rbp-0x78]
    6ccb:	48 98                	cdqe
    6ccd:	48 83 c0 20          	add    rax,0x20
    6cd1:	48 c7 84 c5 88 f6 ff 	mov    QWORD PTR [rbp+rax*8-0x978],0x0
    6cd8:	ff 00 00 00 00 
    6cdd:	83 45 fc 01          	add    DWORD PTR [rbp-0x4],0x1
    6ce1:	eb 48                	jmp    6d2b <PARSE+0x134c>
    6ce3:	8b 45 fc             	mov    eax,DWORD PTR [rbp-0x4]
    6ce6:	48 63 d0             	movsxd rdx,eax
    6ce9:	48 89 d0             	mov    rax,rdx
    6cec:	48 01 c0             	add    rax,rax
    6cef:	48 01 d0             	add    rax,rdx
    6cf2:	48 c1 e0 03          	shl    rax,0x3
    6cf6:	48 89 c2             	mov    rdx,rax
    6cf9:	48 8d 05 b0 89 00 00 	lea    rax,[rip+0x89b0]        # f6b0 <toks+0x10>
    6d00:	8b 14 02             	mov    edx,DWORD PTR [rdx+rax*1]
    6d03:	48 8b 05 56 89 00 00 	mov    rax,QWORD PTR [rip+0x8956]        # f660 <stderr@GLIBC_2.2.5>
    6d0a:	48 8d 0d 47 5f 00 00 	lea    rcx,[rip+0x5f47]        # cc58 <_IO_stdin_used+0xc58>
    6d11:	48 89 ce             	mov    rsi,rcx
    6d14:	48 89 c7             	mov    rdi,rax
    6d17:	b8 00 00 00 00       	mov    eax,0x0
    6d1c:	e8 df b3 ff ff       	call   2100 <fprintf@plt>
    6d21:	bf 01 00 00 00       	mov    edi,0x1
    6d26:	e8 35 b4 ff ff       	call   2160 <exit@plt>
    6d2b:	8b 05 6f e9 00 00    	mov    eax,DWORD PTR [rip+0xe96f]        # 156a0 <toks_count>
    6d31:	39 45 fc             	cmp    DWORD PTR [rbp-0x4],eax
    6d34:	0f 8c 03 fe ff ff    	jl     6b3d <PARSE+0x115e>
    6d3a:	8b 05 80 49 26 00    	mov    eax,DWORD PTR [rip+0x264980]        # 26b6c0 <ast_count>
    6d40:	8d 50 01             	lea    edx,[rax+0x1]
    6d43:	89 15 77 49 26 00    	mov    DWORD PTR [rip+0x264977],edx        # 26b6c0 <ast_count>
    6d49:	48 98                	cdqe
    6d4b:	48 69 c0 58 09 00 00 	imul   rax,rax,0x958
    6d52:	48 8d 15 67 e9 00 00 	lea    rdx,[rip+0xe967]        # 156c0 <ast>
    6d59:	48 01 c2             	add    rdx,rax
    6d5c:	48 8d 85 80 f6 ff ff 	lea    rax,[rbp-0x980]
    6d63:	b9 2b 01 00 00       	mov    ecx,0x12b
    6d68:	48 89 d7             	mov    rdi,rdx
    6d6b:	48 89 c6             	mov    rsi,rax
    6d6e:	f3 48 a5             	rep movs QWORD PTR es:[rdi],QWORD PTR ds:[rsi]
    6d71:	8b 05 29 e9 00 00    	mov    eax,DWORD PTR [rip+0xe929]        # 156a0 <toks_count>
    6d77:	39 45 fc             	cmp    DWORD PTR [rbp-0x4],eax
    6d7a:	0f 8d a6 0e 00 00    	jge    7c26 <PARSE+0x2247>
    6d80:	8b 45 fc             	mov    eax,DWORD PTR [rbp-0x4]
    6d83:	48 63 d0             	movsxd rdx,eax
    6d86:	48 89 d0             	mov    rax,rdx
    6d89:	48 01 c0             	add    rax,rax
    6d8c:	48 01 d0             	add    rax,rdx
    6d8f:	48 c1 e0 03          	shl    rax,0x3
    6d93:	48 89 c2             	mov    rdx,rax
    6d96:	48 8d 05 03 89 00 00 	lea    rax,[rip+0x8903]        # f6a0 <toks>
    6d9d:	8b 04 02             	mov    eax,DWORD PTR [rdx+rax*1]
    6da0:	83 f8 0c             	cmp    eax,0xc
    6da3:	0f 85 7d 0e 00 00    	jne    7c26 <PARSE+0x2247>
    6da9:	83 45 fc 01          	add    DWORD PTR [rbp-0x4],0x1
    6dad:	e9 74 0e 00 00       	jmp    7c26 <PARSE+0x2247>
    6db2:	48 8b 45 e8          	mov    rax,QWORD PTR [rbp-0x18]
    6db6:	8b 00                	mov    eax,DWORD PTR [rax]
    6db8:	83 f8 13             	cmp    eax,0x13
    6dbb:	0f 85 7b 02 00 00    	jne    703c <PARSE+0x165d>
    6dc1:	83 7d fc 00          	cmp    DWORD PTR [rbp-0x4],0x0
    6dc5:	74 2c                	je     6df3 <PARSE+0x1414>
    6dc7:	8b 45 fc             	mov    eax,DWORD PTR [rbp-0x4]
    6dca:	83 e8 01             	sub    eax,0x1
    6dcd:	48 63 d0             	movsxd rdx,eax
    6dd0:	48 89 d0             	mov    rax,rdx
    6dd3:	48 01 c0             	add    rax,rax
    6dd6:	48 01 d0             	add    rax,rdx
    6dd9:	48 c1 e0 03          	shl    rax,0x3
    6ddd:	48 89 c2             	mov    rdx,rax
    6de0:	48 8d 05 b9 88 00 00 	lea    rax,[rip+0x88b9]        # f6a0 <toks>
    6de7:	8b 04 02             	mov    eax,DWORD PTR [rdx+rax*1]
    6dea:	83 f8 02             	cmp    eax,0x2
    6ded:	0f 85 49 02 00 00    	jne    703c <PARSE+0x165d>
    6df3:	c7 85 80 f6 ff ff 06 	mov    DWORD PTR [rbp-0x980],0x6
    6dfa:	00 00 00 
    6dfd:	c7 85 88 fb ff ff 00 	mov    DWORD PTR [rbp-0x478],0x0
    6e04:	00 00 00 
    6e07:	83 45 fc 01          	add    DWORD PTR [rbp-0x4],0x1
    6e0b:	e9 5b 01 00 00       	jmp    6f6b <PARSE+0x158c>
    6e10:	8b 45 fc             	mov    eax,DWORD PTR [rbp-0x4]
    6e13:	48 63 d0             	movsxd rdx,eax
    6e16:	48 89 d0             	mov    rax,rdx
    6e19:	48 01 c0             	add    rax,rax
    6e1c:	48 01 d0             	add    rax,rdx
    6e1f:	48 c1 e0 03          	shl    rax,0x3
    6e23:	48 89 c2             	mov    rdx,rax
    6e26:	48 8d 05 73 88 00 00 	lea    rax,[rip+0x8873]        # f6a0 <toks>
    6e2d:	8b 04 02             	mov    eax,DWORD PTR [rdx+rax*1]
    6e30:	83 f8 18             	cmp    eax,0x18
    6e33:	75 09                	jne    6e3e <PARSE+0x145f>
    6e35:	83 45 fc 01          	add    DWORD PTR [rbp-0x4],0x1
    6e39:	e9 2d 01 00 00       	jmp    6f6b <PARSE+0x158c>
    6e3e:	8b 85 88 fb ff ff    	mov    eax,DWORD PTR [rbp-0x478]
    6e44:	3d ff 00 00 00       	cmp    eax,0xff
    6e49:	7e 48                	jle    6e93 <PARSE+0x14b4>
    6e4b:	8b 45 fc             	mov    eax,DWORD PTR [rbp-0x4]
    6e4e:	48 63 d0             	movsxd rdx,eax
    6e51:	48 89 d0             	mov    rax,rdx
    6e54:	48 01 c0             	add    rax,rax
    6e57:	48 01 d0             	add    rax,rdx
    6e5a:	48 c1 e0 03          	shl    rax,0x3
    6e5e:	48 89 c2             	mov    rdx,rax
    6e61:	48 8d 05 48 88 00 00 	lea    rax,[rip+0x8848]        # f6b0 <toks+0x10>
    6e68:	8b 14 02             	mov    edx,DWORD PTR [rdx+rax*1]
    6e6b:	48 8b 05 ee 87 00 00 	mov    rax,QWORD PTR [rip+0x87ee]        # f660 <stderr@GLIBC_2.2.5>
    6e72:	48 8d 0d 1f 5e 00 00 	lea    rcx,[rip+0x5e1f]        # cc98 <_IO_stdin_used+0xc98>
    6e79:	48 89 ce             	mov    rsi,rcx
    6e7c:	48 89 c7             	mov    rdi,rax
    6e7f:	b8 00 00 00 00       	mov    eax,0x0
    6e84:	e8 77 b2 ff ff       	call   2100 <fprintf@plt>
    6e89:	bf 01 00 00 00       	mov    edi,0x1
    6e8e:	e8 cd b2 ff ff       	call   2160 <exit@plt>
    6e93:	8b 45 fc             	mov    eax,DWORD PTR [rbp-0x4]
    6e96:	48 63 d0             	movsxd rdx,eax
    6e99:	48 89 d0             	mov    rax,rdx
    6e9c:	48 01 c0             	add    rax,rax
    6e9f:	48 01 d0             	add    rax,rdx
    6ea2:	48 c1 e0 03          	shl    rax,0x3
    6ea6:	48 89 c2             	mov    rdx,rax
    6ea9:	48 8d 05 f0 87 00 00 	lea    rax,[rip+0x87f0]        # f6a0 <toks>
    6eb0:	8b 04 02             	mov    eax,DWORD PTR [rdx+rax*1]
    6eb3:	83 f8 01             	cmp    eax,0x1
    6eb6:	75 4d                	jne    6f05 <PARSE+0x1526>
    6eb8:	8b 45 fc             	mov    eax,DWORD PTR [rbp-0x4]
    6ebb:	48 63 d0             	movsxd rdx,eax
    6ebe:	48 89 d0             	mov    rax,rdx
    6ec1:	48 01 c0             	add    rax,rax
    6ec4:	48 01 d0             	add    rax,rdx
    6ec7:	48 c1 e0 03          	shl    rax,0x3
    6ecb:	48 89 c2             	mov    rdx,rax
    6ece:	48 8d 05 d3 87 00 00 	lea    rax,[rip+0x87d3]        # f6a8 <toks+0x8>
    6ed5:	48 8b 04 02          	mov    rax,QWORD PTR [rdx+rax*1]
    6ed9:	48 89 c7             	mov    rdi,rax
    6edc:	e8 6f b2 ff ff       	call   2150 <atoi@plt>
    6ee1:	89 c2                	mov    edx,eax
    6ee3:	8b 85 88 fb ff ff    	mov    eax,DWORD PTR [rbp-0x478]
    6ee9:	8d 48 01             	lea    ecx,[rax+0x1]
    6eec:	89 8d 88 fb ff ff    	mov    DWORD PTR [rbp-0x478],ecx
    6ef2:	48 98                	cdqe
    6ef4:	48 83 c0 40          	add    rax,0x40
    6ef8:	89 94 85 88 f6 ff ff 	mov    DWORD PTR [rbp+rax*4-0x978],edx
    6eff:	83 45 fc 01          	add    DWORD PTR [rbp-0x4],0x1
    6f03:	eb 66                	jmp    6f6b <PARSE+0x158c>
    6f05:	8b 45 fc             	mov    eax,DWORD PTR [rbp-0x4]
    6f08:	48 63 d0             	movsxd rdx,eax
    6f0b:	48 89 d0             	mov    rax,rdx
    6f0e:	48 01 c0             	add    rax,rax
    6f11:	48 01 d0             	add    rax,rdx
    6f14:	48 c1 e0 03          	shl    rax,0x3
    6f18:	48 89 c2             	mov    rdx,rax
    6f1b:	48 8d 05 86 87 00 00 	lea    rax,[rip+0x8786]        # f6a8 <toks+0x8>
    6f22:	48 8b 0c 02          	mov    rcx,QWORD PTR [rdx+rax*1]
    6f26:	8b 45 fc             	mov    eax,DWORD PTR [rbp-0x4]
    6f29:	48 63 d0             	movsxd rdx,eax
    6f2c:	48 89 d0             	mov    rax,rdx
    6f2f:	48 01 c0             	add    rax,rax
    6f32:	48 01 d0             	add    rax,rdx
    6f35:	48 c1 e0 03          	shl    rax,0x3
    6f39:	48 89 c2             	mov    rdx,rax
    6f3c:	48 8d 05 6d 87 00 00 	lea    rax,[rip+0x876d]        # f6b0 <toks+0x10>
    6f43:	8b 14 02             	mov    edx,DWORD PTR [rdx+rax*1]
    6f46:	48 8b 05 13 87 00 00 	mov    rax,QWORD PTR [rip+0x8713]        # f660 <stderr@GLIBC_2.2.5>
    6f4d:	48 8d 35 6c 5d 00 00 	lea    rsi,[rip+0x5d6c]        # ccc0 <_IO_stdin_used+0xcc0>
    6f54:	48 89 c7             	mov    rdi,rax
    6f57:	b8 00 00 00 00       	mov    eax,0x0
    6f5c:	e8 9f b1 ff ff       	call   2100 <fprintf@plt>
    6f61:	bf 01 00 00 00       	mov    edi,0x1
    6f66:	e8 f5 b1 ff ff       	call   2160 <exit@plt>
    6f6b:	8b 05 2f e7 00 00    	mov    eax,DWORD PTR [rip+0xe72f]        # 156a0 <toks_count>
    6f71:	39 45 fc             	cmp    DWORD PTR [rbp-0x4],eax
    6f74:	7d 4e                	jge    6fc4 <PARSE+0x15e5>
    6f76:	8b 45 fc             	mov    eax,DWORD PTR [rbp-0x4]
    6f79:	48 63 d0             	movsxd rdx,eax
    6f7c:	48 89 d0             	mov    rax,rdx
    6f7f:	48 01 c0             	add    rax,rax
    6f82:	48 01 d0             	add    rax,rdx
    6f85:	48 c1 e0 03          	shl    rax,0x3
    6f89:	48 89 c2             	mov    rdx,rax
    6f8c:	48 8d 05 0d 87 00 00 	lea    rax,[rip+0x870d]        # f6a0 <toks>
    6f93:	8b 04 02             	mov    eax,DWORD PTR [rdx+rax*1]
    6f96:	83 f8 0c             	cmp    eax,0xc
    6f99:	74 29                	je     6fc4 <PARSE+0x15e5>
    6f9b:	8b 45 fc             	mov    eax,DWORD PTR [rbp-0x4]
    6f9e:	48 63 d0             	movsxd rdx,eax
    6fa1:	48 89 d0             	mov    rax,rdx
    6fa4:	48 01 c0             	add    rax,rax
    6fa7:	48 01 d0             	add    rax,rdx
    6faa:	48 c1 e0 03          	shl    rax,0x3
    6fae:	48 89 c2             	mov    rdx,rax
    6fb1:	48 8d 05 e8 86 00 00 	lea    rax,[rip+0x86e8]        # f6a0 <toks>
    6fb8:	8b 04 02             	mov    eax,DWORD PTR [rdx+rax*1]
    6fbb:	83 f8 0d             	cmp    eax,0xd
    6fbe:	0f 85 4c fe ff ff    	jne    6e10 <PARSE+0x1431>
    6fc4:	8b 05 f6 46 26 00    	mov    eax,DWORD PTR [rip+0x2646f6]        # 26b6c0 <ast_count>
    6fca:	8d 50 01             	lea    edx,[rax+0x1]
    6fcd:	89 15 ed 46 26 00    	mov    DWORD PTR [rip+0x2646ed],edx        # 26b6c0 <ast_count>
    6fd3:	48 98                	cdqe
    6fd5:	48 69 c0 58 09 00 00 	imul   rax,rax,0x958
    6fdc:	48 8d 15 dd e6 00 00 	lea    rdx,[rip+0xe6dd]        # 156c0 <ast>
    6fe3:	48 01 c2             	add    rdx,rax
    6fe6:	48 8d 85 80 f6 ff ff 	lea    rax,[rbp-0x980]
    6fed:	b9 2b 01 00 00       	mov    ecx,0x12b
    6ff2:	48 89 d7             	mov    rdi,rdx
    6ff5:	48 89 c6             	mov    rsi,rax
    6ff8:	f3 48 a5             	rep movs QWORD PTR es:[rdi],QWORD PTR ds:[rsi]
    6ffb:	8b 05 9f e6 00 00    	mov    eax,DWORD PTR [rip+0xe69f]        # 156a0 <toks_count>
    7001:	39 45 fc             	cmp    DWORD PTR [rbp-0x4],eax
    7004:	0f 8d d6 0b 00 00    	jge    7be0 <PARSE+0x2201>
    700a:	8b 45 fc             	mov    eax,DWORD PTR [rbp-0x4]
    700d:	48 63 d0             	movsxd rdx,eax
    7010:	48 89 d0             	mov    rax,rdx
    7013:	48 01 c0             	add    rax,rax
    7016:	48 01 d0             	add    rax,rdx
    7019:	48 c1 e0 03          	shl    rax,0x3
    701d:	48 89 c2             	mov    rdx,rax
    7020:	48 8d 05 79 86 00 00 	lea    rax,[rip+0x8679]        # f6a0 <toks>
    7027:	8b 04 02             	mov    eax,DWORD PTR [rdx+rax*1]
    702a:	83 f8 0c             	cmp    eax,0xc
    702d:	0f 85 ad 0b 00 00    	jne    7be0 <PARSE+0x2201>
    7033:	83 45 fc 01          	add    DWORD PTR [rbp-0x4],0x1
    7037:	e9 a4 0b 00 00       	jmp    7be0 <PARSE+0x2201>
    703c:	48 8b 45 e8          	mov    rax,QWORD PTR [rbp-0x18]
    7040:	8b 00                	mov    eax,DWORD PTR [rax]
    7042:	83 f8 14             	cmp    eax,0x14
    7045:	0f 85 c1 02 00 00    	jne    730c <PARSE+0x192d>
    704b:	83 7d fc 00          	cmp    DWORD PTR [rbp-0x4],0x0
    704f:	74 2c                	je     707d <PARSE+0x169e>
    7051:	8b 45 fc             	mov    eax,DWORD PTR [rbp-0x4]
    7054:	83 e8 01             	sub    eax,0x1
    7057:	48 63 d0             	movsxd rdx,eax
    705a:	48 89 d0             	mov    rax,rdx
    705d:	48 01 c0             	add    rax,rax
    7060:	48 01 d0             	add    rax,rdx
    7063:	48 c1 e0 03          	shl    rax,0x3
    7067:	48 89 c2             	mov    rdx,rax
    706a:	48 8d 05 2f 86 00 00 	lea    rax,[rip+0x862f]        # f6a0 <toks>
    7071:	8b 04 02             	mov    eax,DWORD PTR [rdx+rax*1]
    7074:	83 f8 02             	cmp    eax,0x2
    7077:	0f 85 8f 02 00 00    	jne    730c <PARSE+0x192d>
    707d:	c7 85 80 f6 ff ff 07 	mov    DWORD PTR [rbp-0x980],0x7
    7084:	00 00 00 
    7087:	c7 45 88 00 00 00 00 	mov    DWORD PTR [rbp-0x78],0x0
    708e:	83 45 fc 01          	add    DWORD PTR [rbp-0x4],0x1
    7092:	e9 ee 01 00 00       	jmp    7285 <PARSE+0x18a6>
    7097:	8b 45 fc             	mov    eax,DWORD PTR [rbp-0x4]
    709a:	48 63 d0             	movsxd rdx,eax
    709d:	48 89 d0             	mov    rax,rdx
    70a0:	48 01 c0             	add    rax,rax
    70a3:	48 01 d0             	add    rax,rdx
    70a6:	48 c1 e0 03          	shl    rax,0x3
    70aa:	48 89 c2             	mov    rdx,rax
    70ad:	48 8d 05 ec 85 00 00 	lea    rax,[rip+0x85ec]        # f6a0 <toks>
    70b4:	8b 04 02             	mov    eax,DWORD PTR [rdx+rax*1]
    70b7:	83 f8 0c             	cmp    eax,0xc
    70ba:	0f 84 d4 01 00 00    	je     7294 <PARSE+0x18b5>
    70c0:	8b 45 fc             	mov    eax,DWORD PTR [rbp-0x4]
    70c3:	48 63 d0             	movsxd rdx,eax
    70c6:	48 89 d0             	mov    rax,rdx
    70c9:	48 01 c0             	add    rax,rax
    70cc:	48 01 d0             	add    rax,rdx
    70cf:	48 c1 e0 03          	shl    rax,0x3
    70d3:	48 89 c2             	mov    rdx,rax
    70d6:	48 8d 05 c3 85 00 00 	lea    rax,[rip+0x85c3]        # f6a0 <toks>
    70dd:	8b 04 02             	mov    eax,DWORD PTR [rdx+rax*1]
    70e0:	83 f8 0d             	cmp    eax,0xd
    70e3:	0f 84 ab 01 00 00    	je     7294 <PARSE+0x18b5>
    70e9:	8b 45 fc             	mov    eax,DWORD PTR [rbp-0x4]
    70ec:	48 63 d0             	movsxd rdx,eax
    70ef:	48 89 d0             	mov    rax,rdx
    70f2:	48 01 c0             	add    rax,rax
    70f5:	48 01 d0             	add    rax,rdx
    70f8:	48 c1 e0 03          	shl    rax,0x3
    70fc:	48 89 c2             	mov    rdx,rax
    70ff:	48 8d 05 9a 85 00 00 	lea    rax,[rip+0x859a]        # f6a0 <toks>
    7106:	8b 04 02             	mov    eax,DWORD PTR [rdx+rax*1]
    7109:	83 f8 18             	cmp    eax,0x18
    710c:	75 09                	jne    7117 <PARSE+0x1738>
    710e:	83 45 fc 01          	add    DWORD PTR [rbp-0x4],0x1
    7112:	e9 6e 01 00 00       	jmp    7285 <PARSE+0x18a6>
    7117:	8b 45 88             	mov    eax,DWORD PTR [rbp-0x78]
    711a:	3d ff 00 00 00       	cmp    eax,0xff
    711f:	7e 48                	jle    7169 <PARSE+0x178a>
    7121:	8b 45 fc             	mov    eax,DWORD PTR [rbp-0x4]
    7124:	48 63 d0             	movsxd rdx,eax
    7127:	48 89 d0             	mov    rax,rdx
    712a:	48 01 c0             	add    rax,rax
    712d:	48 01 d0             	add    rax,rdx
    7130:	48 c1 e0 03          	shl    rax,0x3
    7134:	48 89 c2             	mov    rdx,rax
    7137:	48 8d 05 72 85 00 00 	lea    rax,[rip+0x8572]        # f6b0 <toks+0x10>
    713e:	8b 14 02             	mov    edx,DWORD PTR [rdx+rax*1]
    7141:	48 8b 05 18 85 00 00 	mov    rax,QWORD PTR [rip+0x8518]        # f660 <stderr@GLIBC_2.2.5>
    7148:	48 8d 0d a9 5b 00 00 	lea    rcx,[rip+0x5ba9]        # ccf8 <_IO_stdin_used+0xcf8>
    714f:	48 89 ce             	mov    rsi,rcx
    7152:	48 89 c7             	mov    rdi,rax
    7155:	b8 00 00 00 00       	mov    eax,0x0
    715a:	e8 a1 af ff ff       	call   2100 <fprintf@plt>
    715f:	bf 01 00 00 00       	mov    edi,0x1
    7164:	e8 f7 af ff ff       	call   2160 <exit@plt>
    7169:	8b 45 fc             	mov    eax,DWORD PTR [rbp-0x4]
    716c:	48 63 d0             	movsxd rdx,eax
    716f:	48 89 d0             	mov    rax,rdx
    7172:	48 01 c0             	add    rax,rax
    7175:	48 01 d0             	add    rax,rdx
    7178:	48 c1 e0 03          	shl    rax,0x3
    717c:	48 89 c2             	mov    rdx,rax
    717f:	48 8d 05 1a 85 00 00 	lea    rax,[rip+0x851a]        # f6a0 <toks>
    7186:	8b 04 02             	mov    eax,DWORD PTR [rdx+rax*1]
    7189:	83 f8 02             	cmp    eax,0x2
    718c:	75 42                	jne    71d0 <PARSE+0x17f1>
    718e:	8b 55 88             	mov    edx,DWORD PTR [rbp-0x78]
    7191:	8d 42 01             	lea    eax,[rdx+0x1]
    7194:	89 45 88             	mov    DWORD PTR [rbp-0x78],eax
    7197:	8b 45 fc             	mov    eax,DWORD PTR [rbp-0x4]
    719a:	48 63 c8             	movsxd rcx,eax
    719d:	48 89 c8             	mov    rax,rcx
    71a0:	48 01 c0             	add    rax,rax
    71a3:	48 01 c8             	add    rax,rcx
    71a6:	48 c1 e0 03          	shl    rax,0x3
    71aa:	48 89 c1             	mov    rcx,rax
    71ad:	48 8d 05 f4 84 00 00 	lea    rax,[rip+0x84f4]        # f6a8 <toks+0x8>
    71b4:	48 8b 04 01          	mov    rax,QWORD PTR [rcx+rax*1]
    71b8:	48 63 d2             	movsxd rdx,edx
    71bb:	48 83 c2 20          	add    rdx,0x20
    71bf:	48 89 84 d5 88 f6 ff 	mov    QWORD PTR [rbp+rdx*8-0x978],rax
    71c6:	ff 
    71c7:	83 45 fc 01          	add    DWORD PTR [rbp-0x4],0x1
    71cb:	e9 b5 00 00 00       	jmp    7285 <PARSE+0x18a6>
    71d0:	8b 45 fc             	mov    eax,DWORD PTR [rbp-0x4]
    71d3:	48 63 d0             	movsxd rdx,eax
    71d6:	48 89 d0             	mov    rax,rdx
    71d9:	48 01 c0             	add    rax,rax
    71dc:	48 01 d0             	add    rax,rdx
    71df:	48 c1 e0 03          	shl    rax,0x3
    71e3:	48 89 c2             	mov    rdx,rax
    71e6:	48 8d 05 b3 84 00 00 	lea    rax,[rip+0x84b3]        # f6a0 <toks>
    71ed:	8b 04 02             	mov    eax,DWORD PTR [rdx+rax*1]
    71f0:	83 f8 01             	cmp    eax,0x1
    71f3:	75 48                	jne    723d <PARSE+0x185e>
    71f5:	8b 45 fc             	mov    eax,DWORD PTR [rbp-0x4]
    71f8:	48 63 d0             	movsxd rdx,eax
    71fb:	48 89 d0             	mov    rax,rdx
    71fe:	48 01 c0             	add    rax,rax
    7201:	48 01 d0             	add    rax,rdx
    7204:	48 c1 e0 03          	shl    rax,0x3
    7208:	48 89 c2             	mov    rdx,rax
    720b:	48 8d 05 96 84 00 00 	lea    rax,[rip+0x8496]        # f6a8 <toks+0x8>
    7212:	48 8b 04 02          	mov    rax,QWORD PTR [rdx+rax*1]
    7216:	48 89 c7             	mov    rdi,rax
    7219:	e8 32 af ff ff       	call   2150 <atoi@plt>
    721e:	85 c0                	test   eax,eax
    7220:	75 1b                	jne    723d <PARSE+0x185e>
    7222:	8b 45 88             	mov    eax,DWORD PTR [rbp-0x78]
    7225:	48 98                	cdqe
    7227:	48 83 c0 20          	add    rax,0x20
    722b:	48 c7 84 c5 88 f6 ff 	mov    QWORD PTR [rbp+rax*8-0x978],0x0
    7232:	ff 00 00 00 00 
    7237:	83 45 fc 01          	add    DWORD PTR [rbp-0x4],0x1
    723b:	eb 48                	jmp    7285 <PARSE+0x18a6>
    723d:	8b 45 fc             	mov    eax,DWORD PTR [rbp-0x4]
    7240:	48 63 d0             	movsxd rdx,eax
    7243:	48 89 d0             	mov    rax,rdx
    7246:	48 01 c0             	add    rax,rax
    7249:	48 01 d0             	add    rax,rdx
    724c:	48 c1 e0 03          	shl    rax,0x3
    7250:	48 89 c2             	mov    rdx,rax
    7253:	48 8d 05 56 84 00 00 	lea    rax,[rip+0x8456]        # f6b0 <toks+0x10>
    725a:	8b 14 02             	mov    edx,DWORD PTR [rdx+rax*1]
    725d:	48 8b 05 fc 83 00 00 	mov    rax,QWORD PTR [rip+0x83fc]        # f660 <stderr@GLIBC_2.2.5>
    7264:	48 8d 0d b5 5a 00 00 	lea    rcx,[rip+0x5ab5]        # cd20 <_IO_stdin_used+0xd20>
    726b:	48 89 ce             	mov    rsi,rcx
    726e:	48 89 c7             	mov    rdi,rax
    7271:	b8 00 00 00 00       	mov    eax,0x0
    7276:	e8 85 ae ff ff       	call   2100 <fprintf@plt>
    727b:	bf 01 00 00 00       	mov    edi,0x1
    7280:	e8 db ae ff ff       	call   2160 <exit@plt>
    7285:	8b 05 15 e4 00 00    	mov    eax,DWORD PTR [rip+0xe415]        # 156a0 <toks_count>
    728b:	39 45 fc             	cmp    DWORD PTR [rbp-0x4],eax
    728e:	0f 8c 03 fe ff ff    	jl     7097 <PARSE+0x16b8>
    7294:	8b 05 26 44 26 00    	mov    eax,DWORD PTR [rip+0x264426]        # 26b6c0 <ast_count>
    729a:	8d 50 01             	lea    edx,[rax+0x1]
    729d:	89 15 1d 44 26 00    	mov    DWORD PTR [rip+0x26441d],edx        # 26b6c0 <ast_count>
    72a3:	48 98                	cdqe
    72a5:	48 69 c0 58 09 00 00 	imul   rax,rax,0x958
    72ac:	48 8d 15 0d e4 00 00 	lea    rdx,[rip+0xe40d]        # 156c0 <ast>
    72b3:	48 01 c2             	add    rdx,rax
    72b6:	48 8d 85 80 f6 ff ff 	lea    rax,[rbp-0x980]
    72bd:	b9 2b 01 00 00       	mov    ecx,0x12b
    72c2:	48 89 d7             	mov    rdi,rdx
    72c5:	48 89 c6             	mov    rsi,rax
    72c8:	f3 48 a5             	rep movs QWORD PTR es:[rdi],QWORD PTR ds:[rsi]
    72cb:	8b 05 cf e3 00 00    	mov    eax,DWORD PTR [rip+0xe3cf]        # 156a0 <toks_count>
    72d1:	39 45 fc             	cmp    DWORD PTR [rbp-0x4],eax
    72d4:	0f 8d 4f 09 00 00    	jge    7c29 <PARSE+0x224a>
    72da:	8b 45 fc             	mov    eax,DWORD PTR [rbp-0x4]
    72dd:	48 63 d0             	movsxd rdx,eax
    72e0:	48 89 d0             	mov    rax,rdx
    72e3:	48 01 c0             	add    rax,rax
    72e6:	48 01 d0             	add    rax,rdx
    72e9:	48 c1 e0 03          	shl    rax,0x3
    72ed:	48 89 c2             	mov    rdx,rax
    72f0:	48 8d 05 a9 83 00 00 	lea    rax,[rip+0x83a9]        # f6a0 <toks>
    72f7:	8b 04 02             	mov    eax,DWORD PTR [rdx+rax*1]
    72fa:	83 f8 0c             	cmp    eax,0xc
    72fd:	0f 85 26 09 00 00    	jne    7c29 <PARSE+0x224a>
    7303:	83 45 fc 01          	add    DWORD PTR [rbp-0x4],0x1
    7307:	e9 1d 09 00 00       	jmp    7c29 <PARSE+0x224a>
    730c:	48 8b 45 e8          	mov    rax,QWORD PTR [rbp-0x18]
    7310:	8b 00                	mov    eax,DWORD PTR [rax]
    7312:	83 f8 15             	cmp    eax,0x15
    7315:	0f 85 73 02 00 00    	jne    758e <PARSE+0x1baf>
    731b:	83 7d fc 00          	cmp    DWORD PTR [rbp-0x4],0x0
    731f:	74 2c                	je     734d <PARSE+0x196e>
    7321:	8b 45 fc             	mov    eax,DWORD PTR [rbp-0x4]
    7324:	83 e8 01             	sub    eax,0x1
    7327:	48 63 d0             	movsxd rdx,eax
    732a:	48 89 d0             	mov    rax,rdx
    732d:	48 01 c0             	add    rax,rax
    7330:	48 01 d0             	add    rax,rdx
    7333:	48 c1 e0 03          	shl    rax,0x3
    7337:	48 89 c2             	mov    rdx,rax
    733a:	48 8d 05 5f 83 00 00 	lea    rax,[rip+0x835f]        # f6a0 <toks>
    7341:	8b 04 02             	mov    eax,DWORD PTR [rdx+rax*1]
    7344:	83 f8 02             	cmp    eax,0x2
    7347:	0f 85 41 02 00 00    	jne    758e <PARSE+0x1baf>
    734d:	c7 85 80 f6 ff ff 08 	mov    DWORD PTR [rbp-0x980],0x8
    7354:	00 00 00 
    7357:	c7 45 88 00 00 00 00 	mov    DWORD PTR [rbp-0x78],0x0
    735e:	83 45 fc 01          	add    DWORD PTR [rbp-0x4],0x1
    7362:	e9 56 01 00 00       	jmp    74bd <PARSE+0x1ade>
    7367:	8b 45 fc             	mov    eax,DWORD PTR [rbp-0x4]
    736a:	48 63 d0             	movsxd rdx,eax
    736d:	48 89 d0             	mov    rax,rdx
    7370:	48 01 c0             	add    rax,rax
    7373:	48 01 d0             	add    rax,rdx
    7376:	48 c1 e0 03          	shl    rax,0x3
    737a:	48 89 c2             	mov    rdx,rax
    737d:	48 8d 05 1c 83 00 00 	lea    rax,[rip+0x831c]        # f6a0 <toks>
    7384:	8b 04 02             	mov    eax,DWORD PTR [rdx+rax*1]
    7387:	83 f8 18             	cmp    eax,0x18
    738a:	75 09                	jne    7395 <PARSE+0x19b6>
    738c:	83 45 fc 01          	add    DWORD PTR [rbp-0x4],0x1
    7390:	e9 28 01 00 00       	jmp    74bd <PARSE+0x1ade>
    7395:	8b 45 88             	mov    eax,DWORD PTR [rbp-0x78]
    7398:	3d ff 00 00 00       	cmp    eax,0xff
    739d:	7e 48                	jle    73e7 <PARSE+0x1a08>
    739f:	8b 45 fc             	mov    eax,DWORD PTR [rbp-0x4]
    73a2:	48 63 d0             	movsxd rdx,eax
    73a5:	48 89 d0             	mov    rax,rdx
    73a8:	48 01 c0             	add    rax,rax
    73ab:	48 01 d0             	add    rax,rdx
    73ae:	48 c1 e0 03          	shl    rax,0x3
    73b2:	48 89 c2             	mov    rdx,rax
    73b5:	48 8d 05 f4 82 00 00 	lea    rax,[rip+0x82f4]        # f6b0 <toks+0x10>
    73bc:	8b 14 02             	mov    edx,DWORD PTR [rdx+rax*1]
    73bf:	48 8b 05 9a 82 00 00 	mov    rax,QWORD PTR [rip+0x829a]        # f660 <stderr@GLIBC_2.2.5>
    73c6:	48 8d 0d 93 59 00 00 	lea    rcx,[rip+0x5993]        # cd60 <_IO_stdin_used+0xd60>
    73cd:	48 89 ce             	mov    rsi,rcx
    73d0:	48 89 c7             	mov    rdi,rax
    73d3:	b8 00 00 00 00       	mov    eax,0x0
    73d8:	e8 23 ad ff ff       	call   2100 <fprintf@plt>
    73dd:	bf 01 00 00 00       	mov    edi,0x1
    73e2:	e8 79 ad ff ff       	call   2160 <exit@plt>
    73e7:	8b 45 fc             	mov    eax,DWORD PTR [rbp-0x4]
    73ea:	48 63 d0             	movsxd rdx,eax
    73ed:	48 89 d0             	mov    rax,rdx
    73f0:	48 01 c0             	add    rax,rax
    73f3:	48 01 d0             	add    rax,rdx
    73f6:	48 c1 e0 03          	shl    rax,0x3
    73fa:	48 89 c2             	mov    rdx,rax
    73fd:	48 8d 05 9c 82 00 00 	lea    rax,[rip+0x829c]        # f6a0 <toks>
    7404:	8b 04 02             	mov    eax,DWORD PTR [rdx+rax*1]
    7407:	83 f8 01             	cmp    eax,0x1
    740a:	75 4b                	jne    7457 <PARSE+0x1a78>
    740c:	8b 45 fc             	mov    eax,DWORD PTR [rbp-0x4]
    740f:	48 63 d0             	movsxd rdx,eax
    7412:	48 89 d0             	mov    rax,rdx
    7415:	48 01 c0             	add    rax,rax
    7418:	48 01 d0             	add    rax,rdx
    741b:	48 c1 e0 03          	shl    rax,0x3
    741f:	48 89 c2             	mov    rdx,rax
    7422:	48 8d 05 7f 82 00 00 	lea    rax,[rip+0x827f]        # f6a8 <toks+0x8>
    7429:	48 8b 04 02          	mov    rax,QWORD PTR [rdx+rax*1]
    742d:	48 89 c7             	mov    rdi,rax
    7430:	e8 1b ad ff ff       	call   2150 <atoi@plt>
    7435:	89 c2                	mov    edx,eax
    7437:	8b 45 88             	mov    eax,DWORD PTR [rbp-0x78]
    743a:	8d 48 01             	lea    ecx,[rax+0x1]
    743d:	89 4d 88             	mov    DWORD PTR [rbp-0x78],ecx
    7440:	48 63 d2             	movsxd rdx,edx
    7443:	48 98                	cdqe
    7445:	48 83 c0 20          	add    rax,0x20
    7449:	48 89 94 c5 88 f6 ff 	mov    QWORD PTR [rbp+rax*8-0x978],rdx
    7450:	ff 
    7451:	83 45 fc 01          	add    DWORD PTR [rbp-0x4],0x1
    7455:	eb 66                	jmp    74bd <PARSE+0x1ade>
    7457:	8b 45 fc             	mov    eax,DWORD PTR [rbp-0x4]
    745a:	48 63 d0             	movsxd rdx,eax
    745d:	48 89 d0             	mov    rax,rdx
    7460:	48 01 c0             	add    rax,rax
    7463:	48 01 d0             	add    rax,rdx
    7466:	48 c1 e0 03          	shl    rax,0x3
    746a:	48 89 c2             	mov    rdx,rax
    746d:	48 8d 05 34 82 00 00 	lea    rax,[rip+0x8234]        # f6a8 <toks+0x8>
    7474:	48 8b 0c 02          	mov    rcx,QWORD PTR [rdx+rax*1]
    7478:	8b 45 fc             	mov    eax,DWORD PTR [rbp-0x4]
    747b:	48 63 d0             	movsxd rdx,eax
    747e:	48 89 d0             	mov    rax,rdx
    7481:	48 01 c0             	add    rax,rax
    7484:	48 01 d0             	add    rax,rdx
    7487:	48 c1 e0 03          	shl    rax,0x3
    748b:	48 89 c2             	mov    rdx,rax
    748e:	48 8d 05 1b 82 00 00 	lea    rax,[rip+0x821b]        # f6b0 <toks+0x10>
    7495:	8b 14 02             	mov    edx,DWORD PTR [rdx+rax*1]
    7498:	48 8b 05 c1 81 00 00 	mov    rax,QWORD PTR [rip+0x81c1]        # f660 <stderr@GLIBC_2.2.5>
    749f:	48 8d 35 e2 58 00 00 	lea    rsi,[rip+0x58e2]        # cd88 <_IO_stdin_used+0xd88>
    74a6:	48 89 c7             	mov    rdi,rax
    74a9:	b8 00 00 00 00       	mov    eax,0x0
    74ae:	e8 4d ac ff ff       	call   2100 <fprintf@plt>
    74b3:	bf 01 00 00 00       	mov    edi,0x1
    74b8:	e8 a3 ac ff ff       	call   2160 <exit@plt>
    74bd:	8b 05 dd e1 00 00    	mov    eax,DWORD PTR [rip+0xe1dd]        # 156a0 <toks_count>
    74c3:	39 45 fc             	cmp    DWORD PTR [rbp-0x4],eax
    74c6:	7d 4e                	jge    7516 <PARSE+0x1b37>
    74c8:	8b 45 fc             	mov    eax,DWORD PTR [rbp-0x4]
    74cb:	48 63 d0             	movsxd rdx,eax
    74ce:	48 89 d0             	mov    rax,rdx
    74d1:	48 01 c0             	add    rax,rax
    74d4:	48 01 d0             	add    rax,rdx
    74d7:	48 c1 e0 03          	shl    rax,0x3
    74db:	48 89 c2             	mov    rdx,rax
    74de:	48 8d 05 bb 81 00 00 	lea    rax,[rip+0x81bb]        # f6a0 <toks>
    74e5:	8b 04 02             	mov    eax,DWORD PTR [rdx+rax*1]
    74e8:	83 f8 0c             	cmp    eax,0xc
    74eb:	74 29                	je     7516 <PARSE+0x1b37>
    74ed:	8b 45 fc             	mov    eax,DWORD PTR [rbp-0x4]
    74f0:	48 63 d0             	movsxd rdx,eax
    74f3:	48 89 d0             	mov    rax,rdx
    74f6:	48 01 c0             	add    rax,rax
    74f9:	48 01 d0             	add    rax,rdx
    74fc:	48 c1 e0 03          	shl    rax,0x3
    7500:	48 89 c2             	mov    rdx,rax
    7503:	48 8d 05 96 81 00 00 	lea    rax,[rip+0x8196]        # f6a0 <toks>
    750a:	8b 04 02             	mov    eax,DWORD PTR [rdx+rax*1]
    750d:	83 f8 0d             	cmp    eax,0xd
    7510:	0f 85 51 fe ff ff    	jne    7367 <PARSE+0x1988>
    7516:	8b 05 a4 41 26 00    	mov    eax,DWORD PTR [rip+0x2641a4]        # 26b6c0 <ast_count>
    751c:	8d 50 01             	lea    edx,[rax+0x1]
    751f:	89 15 9b 41 26 00    	mov    DWORD PTR [rip+0x26419b],edx        # 26b6c0 <ast_count>
    7525:	48 98                	cdqe
    7527:	48 69 c0 58 09 00 00 	imul   rax,rax,0x958
    752e:	48 8d 15 8b e1 00 00 	lea    rdx,[rip+0xe18b]        # 156c0 <ast>
    7535:	48 01 c2             	add    rdx,rax
    7538:	48 8d 85 80 f6 ff ff 	lea    rax,[rbp-0x980]
    753f:	b9 2b 01 00 00       	mov    ecx,0x12b
    7544:	48 89 d7             	mov    rdi,rdx
    7547:	48 89 c6             	mov    rsi,rax
    754a:	f3 48 a5             	rep movs QWORD PTR es:[rdi],QWORD PTR ds:[rsi]
    754d:	8b 05 4d e1 00 00    	mov    eax,DWORD PTR [rip+0xe14d]        # 156a0 <toks_count>
    7553:	39 45 fc             	cmp    DWORD PTR [rbp-0x4],eax
    7556:	0f 8d 87 06 00 00    	jge    7be3 <PARSE+0x2204>
    755c:	8b 45 fc             	mov    eax,DWORD PTR [rbp-0x4]
    755f:	48 63 d0             	movsxd rdx,eax
    7562:	48 89 d0             	mov    rax,rdx
    7565:	48 01 c0             	add    rax,rax
    7568:	48 01 d0             	add    rax,rdx
    756b:	48 c1 e0 03          	shl    rax,0x3
    756f:	48 89 c2             	mov    rdx,rax
    7572:	48 8d 05 27 81 00 00 	lea    rax,[rip+0x8127]        # f6a0 <toks>
    7579:	8b 04 02             	mov    eax,DWORD PTR [rdx+rax*1]
    757c:	83 f8 0c             	cmp    eax,0xc
    757f:	0f 85 5e 06 00 00    	jne    7be3 <PARSE+0x2204>
    7585:	83 45 fc 01          	add    DWORD PTR [rbp-0x4],0x1
    7589:	e9 55 06 00 00       	jmp    7be3 <PARSE+0x2204>
    758e:	48 8b 45 e8          	mov    rax,QWORD PTR [rbp-0x18]
    7592:	8b 00                	mov    eax,DWORD PTR [rax]
    7594:	83 f8 16             	cmp    eax,0x16
    7597:	0f 85 c1 02 00 00    	jne    785e <PARSE+0x1e7f>
    759d:	83 7d fc 00          	cmp    DWORD PTR [rbp-0x4],0x0
    75a1:	74 2c                	je     75cf <PARSE+0x1bf0>
    75a3:	8b 45 fc             	mov    eax,DWORD PTR [rbp-0x4]
    75a6:	83 e8 01             	sub    eax,0x1
    75a9:	48 63 d0             	movsxd rdx,eax
    75ac:	48 89 d0             	mov    rax,rdx
    75af:	48 01 c0             	add    rax,rax
    75b2:	48 01 d0             	add    rax,rdx
    75b5:	48 c1 e0 03          	shl    rax,0x3
    75b9:	48 89 c2             	mov    rdx,rax
    75bc:	48 8d 05 dd 80 00 00 	lea    rax,[rip+0x80dd]        # f6a0 <toks>
    75c3:	8b 04 02             	mov    eax,DWORD PTR [rdx+rax*1]
    75c6:	83 f8 02             	cmp    eax,0x2
    75c9:	0f 85 8f 02 00 00    	jne    785e <PARSE+0x1e7f>
    75cf:	c7 85 80 f6 ff ff 09 	mov    DWORD PTR [rbp-0x980],0x9
    75d6:	00 00 00 
    75d9:	c7 45 88 00 00 00 00 	mov    DWORD PTR [rbp-0x78],0x0
    75e0:	83 45 fc 01          	add    DWORD PTR [rbp-0x4],0x1
    75e4:	e9 ee 01 00 00       	jmp    77d7 <PARSE+0x1df8>
    75e9:	8b 45 fc             	mov    eax,DWORD PTR [rbp-0x4]
    75ec:	48 63 d0             	movsxd rdx,eax
    75ef:	48 89 d0             	mov    rax,rdx
    75f2:	48 01 c0             	add    rax,rax
    75f5:	48 01 d0             	add    rax,rdx
    75f8:	48 c1 e0 03          	shl    rax,0x3
    75fc:	48 89 c2             	mov    rdx,rax
    75ff:	48 8d 05 9a 80 00 00 	lea    rax,[rip+0x809a]        # f6a0 <toks>
    7606:	8b 04 02             	mov    eax,DWORD PTR [rdx+rax*1]
    7609:	83 f8 0c             	cmp    eax,0xc
    760c:	0f 84 d4 01 00 00    	je     77e6 <PARSE+0x1e07>
    7612:	8b 45 fc             	mov    eax,DWORD PTR [rbp-0x4]
    7615:	48 63 d0             	movsxd rdx,eax
    7618:	48 89 d0             	mov    rax,rdx
    761b:	48 01 c0             	add    rax,rax
    761e:	48 01 d0             	add    rax,rdx
    7621:	48 c1 e0 03          	shl    rax,0x3
    7625:	48 89 c2             	mov    rdx,rax
    7628:	48 8d 05 71 80 00 00 	lea    rax,[rip+0x8071]        # f6a0 <toks>
    762f:	8b 04 02             	mov    eax,DWORD PTR [rdx+rax*1]
    7632:	83 f8 0d             	cmp    eax,0xd
    7635:	0f 84 ab 01 00 00    	je     77e6 <PARSE+0x1e07>
    763b:	8b 45 fc             	mov    eax,DWORD PTR [rbp-0x4]
    763e:	48 63 d0             	movsxd rdx,eax
    7641:	48 89 d0             	mov    rax,rdx
    7644:	48 01 c0             	add    rax,rax
    7647:	48 01 d0             	add    rax,rdx
    764a:	48 c1 e0 03          	shl    rax,0x3
    764e:	48 89 c2             	mov    rdx,rax
    7651:	48 8d 05 48 80 00 00 	lea    rax,[rip+0x8048]        # f6a0 <toks>
    7658:	8b 04 02             	mov    eax,DWORD PTR [rdx+rax*1]
    765b:	83 f8 18             	cmp    eax,0x18
    765e:	75 09                	jne    7669 <PARSE+0x1c8a>
    7660:	83 45 fc 01          	add    DWORD PTR [rbp-0x4],0x1
    7664:	e9 6e 01 00 00       	jmp    77d7 <PARSE+0x1df8>
    7669:	8b 45 88             	mov    eax,DWORD PTR [rbp-0x78]
    766c:	3d ff 00 00 00       	cmp    eax,0xff
    7671:	7e 48                	jle    76bb <PARSE+0x1cdc>
    7673:	8b 45 fc             	mov    eax,DWORD PTR [rbp-0x4]
    7676:	48 63 d0             	movsxd rdx,eax
    7679:	48 89 d0             	mov    rax,rdx
    767c:	48 01 c0             	add    rax,rax
    767f:	48 01 d0             	add    rax,rdx
    7682:	48 c1 e0 03          	shl    rax,0x3
    7686:	48 89 c2             	mov    rdx,rax
    7689:	48 8d 05 20 80 00 00 	lea    rax,[rip+0x8020]        # f6b0 <toks+0x10>
    7690:	8b 14 02             	mov    edx,DWORD PTR [rdx+rax*1]
    7693:	48 8b 05 c6 7f 00 00 	mov    rax,QWORD PTR [rip+0x7fc6]        # f660 <stderr@GLIBC_2.2.5>
    769a:	48 8d 0d 1f 57 00 00 	lea    rcx,[rip+0x571f]        # cdc0 <_IO_stdin_used+0xdc0>
    76a1:	48 89 ce             	mov    rsi,rcx
    76a4:	48 89 c7             	mov    rdi,rax
    76a7:	b8 00 00 00 00       	mov    eax,0x0
    76ac:	e8 4f aa ff ff       	call   2100 <fprintf@plt>
    76b1:	bf 01 00 00 00       	mov    edi,0x1
    76b6:	e8 a5 aa ff ff       	call   2160 <exit@plt>
    76bb:	8b 45 fc             	mov    eax,DWORD PTR [rbp-0x4]
    76be:	48 63 d0             	movsxd rdx,eax
    76c1:	48 89 d0             	mov    rax,rdx
    76c4:	48 01 c0             	add    rax,rax
    76c7:	48 01 d0             	add    rax,rdx
    76ca:	48 c1 e0 03          	shl    rax,0x3
    76ce:	48 89 c2             	mov    rdx,rax
    76d1:	48 8d 05 c8 7f 00 00 	lea    rax,[rip+0x7fc8]        # f6a0 <toks>
    76d8:	8b 04 02             	mov    eax,DWORD PTR [rdx+rax*1]
    76db:	83 f8 02             	cmp    eax,0x2
    76de:	75 42                	jne    7722 <PARSE+0x1d43>
    76e0:	8b 55 88             	mov    edx,DWORD PTR [rbp-0x78]
    76e3:	8d 42 01             	lea    eax,[rdx+0x1]
    76e6:	89 45 88             	mov    DWORD PTR [rbp-0x78],eax
    76e9:	8b 45 fc             	mov    eax,DWORD PTR [rbp-0x4]
    76ec:	48 63 c8             	movsxd rcx,eax
    76ef:	48 89 c8             	mov    rax,rcx
    76f2:	48 01 c0             	add    rax,rax
    76f5:	48 01 c8             	add    rax,rcx
    76f8:	48 c1 e0 03          	shl    rax,0x3
    76fc:	48 89 c1             	mov    rcx,rax
    76ff:	48 8d 05 a2 7f 00 00 	lea    rax,[rip+0x7fa2]        # f6a8 <toks+0x8>
    7706:	48 8b 04 01          	mov    rax,QWORD PTR [rcx+rax*1]
    770a:	48 63 d2             	movsxd rdx,edx
    770d:	48 83 c2 20          	add    rdx,0x20
    7711:	48 89 84 d5 88 f6 ff 	mov    QWORD PTR [rbp+rdx*8-0x978],rax
    7718:	ff 
    7719:	83 45 fc 01          	add    DWORD PTR [rbp-0x4],0x1
    771d:	e9 b5 00 00 00       	jmp    77d7 <PARSE+0x1df8>
    7722:	8b 45 fc             	mov    eax,DWORD PTR [rbp-0x4]
    7725:	48 63 d0             	movsxd rdx,eax
    7728:	48 89 d0             	mov    rax,rdx
    772b:	48 01 c0             	add    rax,rax
    772e:	48 01 d0             	add    rax,rdx
    7731:	48 c1 e0 03          	shl    rax,0x3
    7735:	48 89 c2             	mov    rdx,rax
    7738:	48 8d 05 61 7f 00 00 	lea    rax,[rip+0x7f61]        # f6a0 <toks>
    773f:	8b 04 02             	mov    eax,DWORD PTR [rdx+rax*1]
    7742:	83 f8 01             	cmp    eax,0x1
    7745:	75 48                	jne    778f <PARSE+0x1db0>
    7747:	8b 45 fc             	mov    eax,DWORD PTR [rbp-0x4]
    774a:	48 63 d0             	movsxd rdx,eax
    774d:	48 89 d0             	mov    rax,rdx
    7750:	48 01 c0             	add    rax,rax
    7753:	48 01 d0             	add    rax,rdx
    7756:	48 c1 e0 03          	shl    rax,0x3
    775a:	48 89 c2             	mov    rdx,rax
    775d:	48 8d 05 44 7f 00 00 	lea    rax,[rip+0x7f44]        # f6a8 <toks+0x8>
    7764:	48 8b 04 02          	mov    rax,QWORD PTR [rdx+rax*1]
    7768:	48 89 c7             	mov    rdi,rax
    776b:	e8 e0 a9 ff ff       	call   2150 <atoi@plt>
    7770:	85 c0                	test   eax,eax
    7772:	75 1b                	jne    778f <PARSE+0x1db0>
    7774:	8b 45 88             	mov    eax,DWORD PTR [rbp-0x78]
    7777:	48 98                	cdqe
    7779:	48 83 c0 20          	add    rax,0x20
    777d:	48 c7 84 c5 88 f6 ff 	mov    QWORD PTR [rbp+rax*8-0x978],0x0
    7784:	ff 00 00 00 00 
    7789:	83 45 fc 01          	add    DWORD PTR [rbp-0x4],0x1
    778d:	eb 48                	jmp    77d7 <PARSE+0x1df8>
    778f:	8b 45 fc             	mov    eax,DWORD PTR [rbp-0x4]
    7792:	48 63 d0             	movsxd rdx,eax
    7795:	48 89 d0             	mov    rax,rdx
    7798:	48 01 c0             	add    rax,rax
    779b:	48 01 d0             	add    rax,rdx
    779e:	48 c1 e0 03          	shl    rax,0x3
    77a2:	48 89 c2             	mov    rdx,rax
    77a5:	48 8d 05 04 7f 00 00 	lea    rax,[rip+0x7f04]        # f6b0 <toks+0x10>
    77ac:	8b 14 02             	mov    edx,DWORD PTR [rdx+rax*1]
    77af:	48 8b 05 aa 7e 00 00 	mov    rax,QWORD PTR [rip+0x7eaa]        # f660 <stderr@GLIBC_2.2.5>
    77b6:	48 8d 0d 2b 56 00 00 	lea    rcx,[rip+0x562b]        # cde8 <_IO_stdin_used+0xde8>
    77bd:	48 89 ce             	mov    rsi,rcx
    77c0:	48 89 c7             	mov    rdi,rax
    77c3:	b8 00 00 00 00       	mov    eax,0x0
    77c8:	e8 33 a9 ff ff       	call   2100 <fprintf@plt>
    77cd:	bf 01 00 00 00       	mov    edi,0x1
    77d2:	e8 89 a9 ff ff       	call   2160 <exit@plt>
    77d7:	8b 05 c3 de 00 00    	mov    eax,DWORD PTR [rip+0xdec3]        # 156a0 <toks_count>
    77dd:	39 45 fc             	cmp    DWORD PTR [rbp-0x4],eax
    77e0:	0f 8c 03 fe ff ff    	jl     75e9 <PARSE+0x1c0a>
    77e6:	8b 05 d4 3e 26 00    	mov    eax,DWORD PTR [rip+0x263ed4]        # 26b6c0 <ast_count>
    77ec:	8d 50 01             	lea    edx,[rax+0x1]
    77ef:	89 15 cb 3e 26 00    	mov    DWORD PTR [rip+0x263ecb],edx        # 26b6c0 <ast_count>
    77f5:	48 98                	cdqe
    77f7:	48 69 c0 58 09 00 00 	imul   rax,rax,0x958
    77fe:	48 8d 15 bb de 00 00 	lea    rdx,[rip+0xdebb]        # 156c0 <ast>
    7805:	48 01 c2             	add    rdx,rax
    7808:	48 8d 85 80 f6 ff ff 	lea    rax,[rbp-0x980]
    780f:	b9 2b 01 00 00       	mov    ecx,0x12b
    7814:	48 89 d7             	mov    rdi,rdx
    7817:	48 89 c6             	mov    rsi,rax
    781a:	f3 48 a5             	rep movs QWORD PTR es:[rdi],QWORD PTR ds:[rsi]
    781d:	8b 05 7d de 00 00    	mov    eax,DWORD PTR [rip+0xde7d]        # 156a0 <toks_count>
    7823:	39 45 fc             	cmp    DWORD PTR [rbp-0x4],eax
    7826:	0f 8d 00 04 00 00    	jge    7c2c <PARSE+0x224d>
    782c:	8b 45 fc             	mov    eax,DWORD PTR [rbp-0x4]
    782f:	48 63 d0             	movsxd rdx,eax
    7832:	48 89 d0             	mov    rax,rdx
    7835:	48 01 c0             	add    rax,rax
    7838:	48 01 d0             	add    rax,rdx
    783b:	48 c1 e0 03          	shl    rax,0x3
    783f:	48 89 c2             	mov    rdx,rax
    7842:	48 8d 05 57 7e 00 00 	lea    rax,[rip+0x7e57]        # f6a0 <toks>
    7849:	8b 04 02             	mov    eax,DWORD PTR [rdx+rax*1]
    784c:	83 f8 0c             	cmp    eax,0xc
    784f:	0f 85 d7 03 00 00    	jne    7c2c <PARSE+0x224d>
    7855:	83 45 fc 01          	add    DWORD PTR [rbp-0x4],0x1
    7859:	e9 ce 03 00 00       	jmp    7c2c <PARSE+0x224d>
    785e:	48 8b 45 e8          	mov    rax,QWORD PTR [rbp-0x18]
    7862:	8b 00                	mov    eax,DWORD PTR [rax]
    7864:	83 f8 19             	cmp    eax,0x19
    7867:	74 25                	je     788e <PARSE+0x1eaf>
    7869:	48 8b 45 e8          	mov    rax,QWORD PTR [rbp-0x18]
    786d:	8b 00                	mov    eax,DWORD PTR [rax]
    786f:	83 f8 1a             	cmp    eax,0x1a
    7872:	74 1a                	je     788e <PARSE+0x1eaf>
    7874:	48 8b 45 e8          	mov    rax,QWORD PTR [rbp-0x18]
    7878:	8b 00                	mov    eax,DWORD PTR [rax]
    787a:	83 f8 1b             	cmp    eax,0x1b
    787d:	74 0f                	je     788e <PARSE+0x1eaf>
    787f:	48 8b 45 e8          	mov    rax,QWORD PTR [rbp-0x18]
    7883:	8b 00                	mov    eax,DWORD PTR [rax]
    7885:	83 f8 1c             	cmp    eax,0x1c
    7888:	0f 85 87 02 00 00    	jne    7b15 <PARSE+0x2136>
    788e:	48 8b 45 e8          	mov    rax,QWORD PTR [rbp-0x18]
    7892:	48 89 45 e0          	mov    QWORD PTR [rbp-0x20],rax
    7896:	8b 45 fc             	mov    eax,DWORD PTR [rbp-0x4]
    7899:	83 e8 01             	sub    eax,0x1
    789c:	48 63 d0             	movsxd rdx,eax
    789f:	48 89 d0             	mov    rax,rdx
    78a2:	48 01 c0             	add    rax,rax
    78a5:	48 01 d0             	add    rax,rdx
    78a8:	48 c1 e0 03          	shl    rax,0x3
    78ac:	48 89 c2             	mov    rdx,rax
    78af:	48 8d 05 ea 7d 00 00 	lea    rax,[rip+0x7dea]        # f6a0 <toks>
    78b6:	8b 04 02             	mov    eax,DWORD PTR [rdx+rax*1]
    78b9:	83 f8 02             	cmp    eax,0x2
    78bc:	75 2c                	jne    78ea <PARSE+0x1f0b>
    78be:	8b 45 fc             	mov    eax,DWORD PTR [rbp-0x4]
    78c1:	83 c0 01             	add    eax,0x1
    78c4:	48 63 d0             	movsxd rdx,eax
    78c7:	48 89 d0             	mov    rax,rdx
    78ca:	48 01 c0             	add    rax,rax
    78cd:	48 01 d0             	add    rax,rdx
    78d0:	48 c1 e0 03          	shl    rax,0x3
    78d4:	48 89 c2             	mov    rdx,rax
    78d7:	48 8d 05 c2 7d 00 00 	lea    rax,[rip+0x7dc2]        # f6a0 <toks>
    78de:	8b 04 02             	mov    eax,DWORD PTR [rdx+rax*1]
    78e1:	83 f8 01             	cmp    eax,0x1
    78e4:	0f 84 82 00 00 00    	je     796c <PARSE+0x1f8d>
    78ea:	48 8b 45 e0          	mov    rax,QWORD PTR [rbp-0x20]
    78ee:	8b 00                	mov    eax,DWORD PTR [rax]
    78f0:	83 f8 19             	cmp    eax,0x19
    78f3:	74 45                	je     793a <PARSE+0x1f5b>
    78f5:	48 8b 45 e0          	mov    rax,QWORD PTR [rbp-0x20]
    78f9:	8b 00                	mov    eax,DWORD PTR [rax]
    78fb:	83 f8 1a             	cmp    eax,0x1a
    78fe:	74 31                	je     7931 <PARSE+0x1f52>
    7900:	48 8b 45 e0          	mov    rax,QWORD PTR [rbp-0x20]
    7904:	8b 00                	mov    eax,DWORD PTR [rax]
    7906:	83 f8 1b             	cmp    eax,0x1b
    7909:	74 1d                	je     7928 <PARSE+0x1f49>
    790b:	48 8b 45 e0          	mov    rax,QWORD PTR [rbp-0x20]
    790f:	8b 00                	mov    eax,DWORD PTR [rax]
    7911:	83 f8 1c             	cmp    eax,0x1c
    7914:	75 09                	jne    791f <PARSE+0x1f40>
    7916:	48 8d 05 09 55 00 00 	lea    rax,[rip+0x5509]        # ce26 <_IO_stdin_used+0xe26>
    791d:	eb 22                	jmp    7941 <PARSE+0x1f62>
    791f:	48 8d 05 c6 4e 00 00 	lea    rax,[rip+0x4ec6]        # c7ec <_IO_stdin_used+0x7ec>
    7926:	eb 19                	jmp    7941 <PARSE+0x1f62>
    7928:	48 8d 05 8f 4d 00 00 	lea    rax,[rip+0x4d8f]        # c6be <_IO_stdin_used+0x6be>
    792f:	eb 10                	jmp    7941 <PARSE+0x1f62>
    7931:	48 8d 05 8b 4d 00 00 	lea    rax,[rip+0x4d8b]        # c6c3 <_IO_stdin_used+0x6c3>
    7938:	eb 07                	jmp    7941 <PARSE+0x1f62>
    793a:	48 8d 05 73 4d 00 00 	lea    rax,[rip+0x4d73]        # c6b4 <_IO_stdin_used+0x6b4>
    7941:	48 8b 0d 18 7d 00 00 	mov    rcx,QWORD PTR [rip+0x7d18]        # f660 <stderr@GLIBC_2.2.5>
    7948:	48 89 c2             	mov    rdx,rax
    794b:	48 8d 05 de 54 00 00 	lea    rax,[rip+0x54de]        # ce30 <_IO_stdin_used+0xe30>
    7952:	48 89 c6             	mov    rsi,rax
    7955:	48 89 cf             	mov    rdi,rcx
    7958:	b8 00 00 00 00       	mov    eax,0x0
    795d:	e8 9e a7 ff ff       	call   2100 <fprintf@plt>
    7962:	bf 01 00 00 00       	mov    edi,0x1
    7967:	e8 f4 a7 ff ff       	call   2160 <exit@plt>
    796c:	48 8b 45 e8          	mov    rax,QWORD PTR [rbp-0x18]
    7970:	8b 00                	mov    eax,DWORD PTR [rax]
    7972:	83 f8 1c             	cmp    eax,0x1c
    7975:	0f 84 e1 00 00 00    	je     7a5c <PARSE+0x207d>
    797b:	83 f8 1c             	cmp    eax,0x1c
    797e:	0f 8f 14 01 00 00    	jg     7a98 <PARSE+0x20b9>
    7984:	83 f8 1b             	cmp    eax,0x1b
    7987:	0f 84 93 00 00 00    	je     7a20 <PARSE+0x2041>
    798d:	83 f8 1b             	cmp    eax,0x1b
    7990:	0f 8f 02 01 00 00    	jg     7a98 <PARSE+0x20b9>
    7996:	83 f8 19             	cmp    eax,0x19
    7999:	74 0a                	je     79a5 <PARSE+0x1fc6>
    799b:	83 f8 1a             	cmp    eax,0x1a
    799e:	74 44                	je     79e4 <PARSE+0x2005>
    79a0:	e9 f3 00 00 00       	jmp    7a98 <PARSE+0x20b9>
    79a5:	c7 85 80 f6 ff ff 0a 	mov    DWORD PTR [rbp-0x980],0xa
    79ac:	00 00 00 
    79af:	8b 45 fc             	mov    eax,DWORD PTR [rbp-0x4]
    79b2:	48 63 d0             	movsxd rdx,eax
    79b5:	48 89 d0             	mov    rax,rdx
    79b8:	48 01 c0             	add    rax,rax
    79bb:	48 01 d0             	add    rax,rdx
    79be:	48 c1 e0 03          	shl    rax,0x3
    79c2:	48 89 c2             	mov    rdx,rax
    79c5:	48 8d 05 dc 7c 00 00 	lea    rax,[rip+0x7cdc]        # f6a8 <toks+0x8>
    79cc:	48 8b 04 02          	mov    rax,QWORD PTR [rdx+rax*1]
    79d0:	48 89 c7             	mov    rdi,rax
    79d3:	e8 13 af ff ff       	call   28eb <eval_expr>
    79d8:	48 89 85 88 f7 ff ff 	mov    QWORD PTR [rbp-0x878],rax
    79df:	e9 b5 00 00 00       	jmp    7a99 <PARSE+0x20ba>
    79e4:	c7 85 80 f6 ff ff 0b 	mov    DWORD PTR [rbp-0x980],0xb
    79eb:	00 00 00 
    79ee:	8b 45 fc             	mov    eax,DWORD PTR [rbp-0x4]
    79f1:	48 63 d0             	movsxd rdx,eax
    79f4:	48 89 d0             	mov    rax,rdx
    79f7:	48 01 c0             	add    rax,rax
    79fa:	48 01 d0             	add    rax,rdx
    79fd:	48 c1 e0 03          	shl    rax,0x3
    7a01:	48 89 c2             	mov    rdx,rax
    7a04:	48 8d 05 9d 7c 00 00 	lea    rax,[rip+0x7c9d]        # f6a8 <toks+0x8>
    7a0b:	48 8b 04 02          	mov    rax,QWORD PTR [rdx+rax*1]
    7a0f:	48 89 c7             	mov    rdi,rax
    7a12:	e8 d4 ae ff ff       	call   28eb <eval_expr>
    7a17:	48 89 85 88 f7 ff ff 	mov    QWORD PTR [rbp-0x878],rax
    7a1e:	eb 79                	jmp    7a99 <PARSE+0x20ba>
    7a20:	c7 85 80 f6 ff ff 0c 	mov    DWORD PTR [rbp-0x980],0xc
    7a27:	00 00 00 
    7a2a:	8b 45 fc             	mov    eax,DWORD PTR [rbp-0x4]
    7a2d:	48 63 d0             	movsxd rdx,eax
    7a30:	48 89 d0             	mov    rax,rdx
    7a33:	48 01 c0             	add    rax,rax
    7a36:	48 01 d0             	add    rax,rdx
    7a39:	48 c1 e0 03          	shl    rax,0x3
    7a3d:	48 89 c2             	mov    rdx,rax
    7a40:	48 8d 05 61 7c 00 00 	lea    rax,[rip+0x7c61]        # f6a8 <toks+0x8>
    7a47:	48 8b 04 02          	mov    rax,QWORD PTR [rdx+rax*1]
    7a4b:	48 89 c7             	mov    rdi,rax
    7a4e:	e8 98 ae ff ff       	call   28eb <eval_expr>
    7a53:	48 89 85 88 f7 ff ff 	mov    QWORD PTR [rbp-0x878],rax
    7a5a:	eb 3d                	jmp    7a99 <PARSE+0x20ba>
    7a5c:	c7 85 80 f6 ff ff 0d 	mov    DWORD PTR [rbp-0x980],0xd
    7a63:	00 00 00 
    7a66:	8b 45 fc             	mov    eax,DWORD PTR [rbp-0x4]
    7a69:	48 63 d0             	movsxd rdx,eax
    7a6c:	48 89 d0             	mov    rax,rdx
    7a6f:	48 01 c0             	add    rax,rax
    7a72:	48 01 d0             	add    rax,rdx
    7a75:	48 c1 e0 03          	shl    rax,0x3
    7a79:	48 89 c2             	mov    rdx,rax
    7a7c:	48 8d 05 25 7c 00 00 	lea    rax,[rip+0x7c25]        # f6a8 <toks+0x8>
    7a83:	48 8b 04 02          	mov    rax,QWORD PTR [rdx+rax*1]
    7a87:	48 89 c7             	mov    rdi,rax
    7a8a:	e8 5c ae ff ff       	call   28eb <eval_expr>
    7a8f:	48 89 85 88 f7 ff ff 	mov    QWORD PTR [rbp-0x878],rax
    7a96:	eb 01                	jmp    7a99 <PARSE+0x20ba>
    7a98:	90                   	nop
    7a99:	83 45 fc 01          	add    DWORD PTR [rbp-0x4],0x1
    7a9d:	8b 05 1d 3c 26 00    	mov    eax,DWORD PTR [rip+0x263c1d]        # 26b6c0 <ast_count>
    7aa3:	8d 50 01             	lea    edx,[rax+0x1]
    7aa6:	89 15 14 3c 26 00    	mov    DWORD PTR [rip+0x263c14],edx        # 26b6c0 <ast_count>
    7aac:	48 98                	cdqe
    7aae:	48 69 c0 58 09 00 00 	imul   rax,rax,0x958
    7ab5:	48 8d 15 04 dc 00 00 	lea    rdx,[rip+0xdc04]        # 156c0 <ast>
    7abc:	48 01 c2             	add    rdx,rax
    7abf:	48 8d 85 80 f6 ff ff 	lea    rax,[rbp-0x980]
    7ac6:	b9 2b 01 00 00       	mov    ecx,0x12b
    7acb:	48 89 d7             	mov    rdi,rdx
    7ace:	48 89 c6             	mov    rsi,rax
    7ad1:	f3 48 a5             	rep movs QWORD PTR es:[rdi],QWORD PTR ds:[rsi]
    7ad4:	8b 05 c6 db 00 00    	mov    eax,DWORD PTR [rip+0xdbc6]        # 156a0 <toks_count>
    7ada:	39 45 fc             	cmp    DWORD PTR [rbp-0x4],eax
    7add:	0f 8d 4c 01 00 00    	jge    7c2f <PARSE+0x2250>
    7ae3:	8b 45 fc             	mov    eax,DWORD PTR [rbp-0x4]
    7ae6:	48 63 d0             	movsxd rdx,eax
    7ae9:	48 89 d0             	mov    rax,rdx
    7aec:	48 01 c0             	add    rax,rax
    7aef:	48 01 d0             	add    rax,rdx
    7af2:	48 c1 e0 03          	shl    rax,0x3
    7af6:	48 89 c2             	mov    rdx,rax
    7af9:	48 8d 05 a0 7b 00 00 	lea    rax,[rip+0x7ba0]        # f6a0 <toks>
    7b00:	8b 04 02             	mov    eax,DWORD PTR [rdx+rax*1]
    7b03:	83 f8 0c             	cmp    eax,0xc
    7b06:	0f 85 23 01 00 00    	jne    7c2f <PARSE+0x2250>
    7b0c:	83 45 fc 01          	add    DWORD PTR [rbp-0x4],0x1
    7b10:	e9 1a 01 00 00       	jmp    7c2f <PARSE+0x2250>
    7b15:	48 8b 45 e8          	mov    rax,QWORD PTR [rbp-0x18]
    7b19:	8b 00                	mov    eax,DWORD PTR [rax]
    7b1b:	83 f8 0e             	cmp    eax,0xe
    7b1e:	0f 85 c0 00 00 00    	jne    7be4 <PARSE+0x2205>
    7b24:	c7 85 80 f6 ff ff 10 	mov    DWORD PTR [rbp-0x980],0x10
    7b2b:	00 00 00 
    7b2e:	8b 45 fc             	mov    eax,DWORD PTR [rbp-0x4]
    7b31:	8d 50 01             	lea    edx,[rax+0x1]
    7b34:	89 55 fc             	mov    DWORD PTR [rbp-0x4],edx
    7b37:	48 63 d0             	movsxd rdx,eax
    7b3a:	48 89 d0             	mov    rax,rdx
    7b3d:	48 01 c0             	add    rax,rax
    7b40:	48 01 d0             	add    rax,rdx
    7b43:	48 c1 e0 03          	shl    rax,0x3
    7b47:	48 89 c2             	mov    rdx,rax
    7b4a:	48 8d 05 57 7b 00 00 	lea    rax,[rip+0x7b57]        # f6a8 <toks+0x8>
    7b51:	48 8b 04 02          	mov    rax,QWORD PTR [rdx+rax*1]
    7b55:	48 8d 95 80 f6 ff ff 	lea    rdx,[rbp-0x980]
    7b5c:	48 8d 8a 08 01 00 00 	lea    rcx,[rdx+0x108]
    7b63:	ba 40 00 00 00       	mov    edx,0x40
    7b68:	48 89 c6             	mov    rsi,rax
    7b6b:	48 89 cf             	mov    rdi,rcx
    7b6e:	e8 ed a4 ff ff       	call   2060 <strncpy@plt>
    7b73:	8b 05 47 3b 26 00    	mov    eax,DWORD PTR [rip+0x263b47]        # 26b6c0 <ast_count>
    7b79:	8d 50 01             	lea    edx,[rax+0x1]
    7b7c:	89 15 3e 3b 26 00    	mov    DWORD PTR [rip+0x263b3e],edx        # 26b6c0 <ast_count>
    7b82:	48 98                	cdqe
    7b84:	48 69 c0 58 09 00 00 	imul   rax,rax,0x958
    7b8b:	48 8d 15 2e db 00 00 	lea    rdx,[rip+0xdb2e]        # 156c0 <ast>
    7b92:	48 01 c2             	add    rdx,rax
    7b95:	48 8d 85 80 f6 ff ff 	lea    rax,[rbp-0x980]
    7b9c:	b9 2b 01 00 00       	mov    ecx,0x12b
    7ba1:	48 89 d7             	mov    rdi,rdx
    7ba4:	48 89 c6             	mov    rsi,rax
    7ba7:	f3 48 a5             	rep movs QWORD PTR es:[rdi],QWORD PTR ds:[rsi]
    7baa:	8b 05 f0 da 00 00    	mov    eax,DWORD PTR [rip+0xdaf0]        # 156a0 <toks_count>
    7bb0:	39 45 fc             	cmp    DWORD PTR [rbp-0x4],eax
    7bb3:	7d 2f                	jge    7be4 <PARSE+0x2205>
    7bb5:	8b 45 fc             	mov    eax,DWORD PTR [rbp-0x4]
    7bb8:	48 63 d0             	movsxd rdx,eax
    7bbb:	48 89 d0             	mov    rax,rdx
    7bbe:	48 01 c0             	add    rax,rax
    7bc1:	48 01 d0             	add    rax,rdx
    7bc4:	48 c1 e0 03          	shl    rax,0x3
    7bc8:	48 89 c2             	mov    rdx,rax
    7bcb:	48 8d 05 ce 7a 00 00 	lea    rax,[rip+0x7ace]        # f6a0 <toks>
    7bd2:	8b 04 02             	mov    eax,DWORD PTR [rdx+rax*1]
    7bd5:	83 f8 0c             	cmp    eax,0xc
    7bd8:	75 0a                	jne    7be4 <PARSE+0x2205>
    7bda:	83 45 fc 01          	add    DWORD PTR [rbp-0x4],0x1
    7bde:	eb 04                	jmp    7be4 <PARSE+0x2205>
    7be0:	90                   	nop
    7be1:	eb 01                	jmp    7be4 <PARSE+0x2205>
    7be3:	90                   	nop
    7be4:	8b 05 b6 da 00 00    	mov    eax,DWORD PTR [rip+0xdab6]        # 156a0 <toks_count>
    7bea:	39 45 fc             	cmp    DWORD PTR [rbp-0x4],eax
    7bed:	7d 41                	jge    7c30 <PARSE+0x2251>
    7bef:	8b 45 fc             	mov    eax,DWORD PTR [rbp-0x4]
    7bf2:	48 63 d0             	movsxd rdx,eax
    7bf5:	48 89 d0             	mov    rax,rdx
    7bf8:	48 01 c0             	add    rax,rax
    7bfb:	48 01 d0             	add    rax,rdx
    7bfe:	48 c1 e0 03          	shl    rax,0x3
    7c02:	48 89 c2             	mov    rdx,rax
    7c05:	48 8d 05 94 7a 00 00 	lea    rax,[rip+0x7a94]        # f6a0 <toks>
    7c0c:	8b 04 02             	mov    eax,DWORD PTR [rdx+rax*1]
    7c0f:	83 f8 0d             	cmp    eax,0xd
    7c12:	74 1c                	je     7c30 <PARSE+0x2251>
    7c14:	83 45 fc 01          	add    DWORD PTR [rbp-0x4],0x1
    7c18:	eb 16                	jmp    7c30 <PARSE+0x2251>
    7c1a:	90                   	nop
    7c1b:	eb 13                	jmp    7c30 <PARSE+0x2251>
    7c1d:	90                   	nop
    7c1e:	eb 10                	jmp    7c30 <PARSE+0x2251>
    7c20:	90                   	nop
    7c21:	eb 0d                	jmp    7c30 <PARSE+0x2251>
    7c23:	90                   	nop
    7c24:	eb 0a                	jmp    7c30 <PARSE+0x2251>
    7c26:	90                   	nop
    7c27:	eb 07                	jmp    7c30 <PARSE+0x2251>
    7c29:	90                   	nop
    7c2a:	eb 04                	jmp    7c30 <PARSE+0x2251>
    7c2c:	90                   	nop
    7c2d:	eb 01                	jmp    7c30 <PARSE+0x2251>
    7c2f:	90                   	nop
    7c30:	8b 05 6a da 00 00    	mov    eax,DWORD PTR [rip+0xda6a]        # 156a0 <toks_count>
    7c36:	39 45 fc             	cmp    DWORD PTR [rbp-0x4],eax
    7c39:	7d 29                	jge    7c64 <PARSE+0x2285>
    7c3b:	8b 45 fc             	mov    eax,DWORD PTR [rbp-0x4]
    7c3e:	48 63 d0             	movsxd rdx,eax
    7c41:	48 89 d0             	mov    rax,rdx
    7c44:	48 01 c0             	add    rax,rax
    7c47:	48 01 d0             	add    rax,rdx
    7c4a:	48 c1 e0 03          	shl    rax,0x3
    7c4e:	48 89 c2             	mov    rdx,rax
    7c51:	48 8d 05 48 7a 00 00 	lea    rax,[rip+0x7a48]        # f6a0 <toks>
    7c58:	8b 04 02             	mov    eax,DWORD PTR [rdx+rax*1]
    7c5b:	83 f8 0d             	cmp    eax,0xd
    7c5e:	0f 85 92 dd ff ff    	jne    59f6 <PARSE+0x17>
    7c64:	e8 82 ad ff ff       	call   29eb <del_all_toks>
    7c69:	48 8d 05 50 da 00 00 	lea    rax,[rip+0xda50]        # 156c0 <ast>
    7c70:	c9                   	leave
    7c71:	c3                   	ret

0000000000007c72 <indexof>:
indexof():
    7c72:	55                   	push   rbp
    7c73:	48 89 e5             	mov    rbp,rsp
    7c76:	48 83 ec 10          	sub    rsp,0x10
    7c7a:	48 89 7d f8          	mov    QWORD PTR [rbp-0x8],rdi
    7c7e:	48 89 75 f0          	mov    QWORD PTR [rbp-0x10],rsi
    7c82:	48 8b 55 f0          	mov    rdx,QWORD PTR [rbp-0x10]
    7c86:	48 8b 45 f8          	mov    rax,QWORD PTR [rbp-0x8]
    7c8a:	48 89 d6             	mov    rsi,rdx
    7c8d:	48 89 c7             	mov    rdi,rax
    7c90:	e8 55 a6 ff ff       	call   22ea <is2arrin>
    7c95:	85 c0                	test   eax,eax
    7c97:	75 0a                	jne    7ca3 <indexof+0x31>
    7c99:	b8 ff ff ff ff       	mov    eax,0xffffffff
    7c9e:	e9 b5 07 00 00       	jmp    8458 <indexof+0x7e6>
    7ca3:	48 8b 45 f0          	mov    rax,QWORD PTR [rbp-0x10]
    7ca7:	48 8d 15 6c 45 00 00 	lea    rdx,[rip+0x456c]        # c21a <_IO_stdin_used+0x21a>
    7cae:	48 89 d6             	mov    rsi,rdx
    7cb1:	48 89 c7             	mov    rdi,rax
    7cb4:	e8 97 a3 ff ff       	call   2050 <strcasecmp@plt>
    7cb9:	85 c0                	test   eax,eax
    7cbb:	0f 84 92 07 00 00    	je     8453 <indexof+0x7e1>
    7cc1:	48 8b 45 f0          	mov    rax,QWORD PTR [rbp-0x10]
    7cc5:	48 8d 15 72 45 00 00 	lea    rdx,[rip+0x4572]        # c23e <_IO_stdin_used+0x23e>
    7ccc:	48 89 d6             	mov    rsi,rdx
    7ccf:	48 89 c7             	mov    rdi,rax
    7cd2:	e8 79 a3 ff ff       	call   2050 <strcasecmp@plt>
    7cd7:	85 c0                	test   eax,eax
    7cd9:	0f 84 74 07 00 00    	je     8453 <indexof+0x7e1>
    7cdf:	48 8b 45 f0          	mov    rax,QWORD PTR [rbp-0x10]
    7ce3:	48 8d 15 ea 44 00 00 	lea    rdx,[rip+0x44ea]        # c1d4 <_IO_stdin_used+0x1d4>
    7cea:	48 89 d6             	mov    rsi,rdx
    7ced:	48 89 c7             	mov    rdi,rax
    7cf0:	e8 5b a3 ff ff       	call   2050 <strcasecmp@plt>
    7cf5:	85 c0                	test   eax,eax
    7cf7:	0f 84 56 07 00 00    	je     8453 <indexof+0x7e1>
    7cfd:	48 8b 45 f0          	mov    rax,QWORD PTR [rbp-0x10]
    7d01:	48 8d 15 8e 44 00 00 	lea    rdx,[rip+0x448e]        # c196 <_IO_stdin_used+0x196>
    7d08:	48 89 d6             	mov    rsi,rdx
    7d0b:	48 89 c7             	mov    rdi,rax
    7d0e:	e8 3d a3 ff ff       	call   2050 <strcasecmp@plt>
    7d13:	85 c0                	test   eax,eax
    7d15:	0f 84 38 07 00 00    	je     8453 <indexof+0x7e1>
    7d1b:	48 8b 45 f0          	mov    rax,QWORD PTR [rbp-0x10]
    7d1f:	48 8d 15 2e 44 00 00 	lea    rdx,[rip+0x442e]        # c154 <_IO_stdin_used+0x154>
    7d26:	48 89 d6             	mov    rsi,rdx
    7d29:	48 89 c7             	mov    rdi,rax
    7d2c:	e8 1f a3 ff ff       	call   2050 <strcasecmp@plt>
    7d31:	85 c0                	test   eax,eax
    7d33:	0f 84 1a 07 00 00    	je     8453 <indexof+0x7e1>
    7d39:	48 8b 45 f0          	mov    rax,QWORD PTR [rbp-0x10]
    7d3d:	48 8d 15 b0 44 00 00 	lea    rdx,[rip+0x44b0]        # c1f4 <_IO_stdin_used+0x1f4>
    7d44:	48 89 d6             	mov    rsi,rdx
    7d47:	48 89 c7             	mov    rdi,rax
    7d4a:	e8 01 a3 ff ff       	call   2050 <strcasecmp@plt>
    7d4f:	85 c0                	test   eax,eax
    7d51:	0f 84 fc 06 00 00    	je     8453 <indexof+0x7e1>
    7d57:	48 8b 45 f0          	mov    rax,QWORD PTR [rbp-0x10]
    7d5b:	48 8d 15 4c 44 00 00 	lea    rdx,[rip+0x444c]        # c1ae <_IO_stdin_used+0x1ae>
    7d62:	48 89 d6             	mov    rsi,rdx
    7d65:	48 89 c7             	mov    rdi,rax
    7d68:	e8 e3 a2 ff ff       	call   2050 <strcasecmp@plt>
    7d6d:	85 c0                	test   eax,eax
    7d6f:	0f 84 de 06 00 00    	je     8453 <indexof+0x7e1>
    7d75:	48 8b 45 f0          	mov    rax,QWORD PTR [rbp-0x10]
    7d79:	48 8d 15 f0 43 00 00 	lea    rdx,[rip+0x43f0]        # c170 <_IO_stdin_used+0x170>
    7d80:	48 89 d6             	mov    rsi,rdx
    7d83:	48 89 c7             	mov    rdi,rax
    7d86:	e8 c5 a2 ff ff       	call   2050 <strcasecmp@plt>
    7d8b:	85 c0                	test   eax,eax
    7d8d:	0f 84 c0 06 00 00    	je     8453 <indexof+0x7e1>
    7d93:	48 8b 45 f0          	mov    rax,QWORD PTR [rbp-0x10]
    7d97:	48 8d 15 80 44 00 00 	lea    rdx,[rip+0x4480]        # c21e <_IO_stdin_used+0x21e>
    7d9e:	48 89 d6             	mov    rsi,rdx
    7da1:	48 89 c7             	mov    rdi,rax
    7da4:	e8 a7 a2 ff ff       	call   2050 <strcasecmp@plt>
    7da9:	85 c0                	test   eax,eax
    7dab:	0f 84 99 06 00 00    	je     844a <indexof+0x7d8>
    7db1:	48 8b 45 f0          	mov    rax,QWORD PTR [rbp-0x10]
    7db5:	48 8d 15 85 44 00 00 	lea    rdx,[rip+0x4485]        # c241 <_IO_stdin_used+0x241>
    7dbc:	48 89 d6             	mov    rsi,rdx
    7dbf:	48 89 c7             	mov    rdi,rax
    7dc2:	e8 89 a2 ff ff       	call   2050 <strcasecmp@plt>
    7dc7:	85 c0                	test   eax,eax
    7dc9:	0f 84 7b 06 00 00    	je     844a <indexof+0x7d8>
    7dcf:	48 8b 45 f0          	mov    rax,QWORD PTR [rbp-0x10]
    7dd3:	48 8d 15 fe 43 00 00 	lea    rdx,[rip+0x43fe]        # c1d8 <_IO_stdin_used+0x1d8>
    7dda:	48 89 d6             	mov    rsi,rdx
    7ddd:	48 89 c7             	mov    rdi,rax
    7de0:	e8 6b a2 ff ff       	call   2050 <strcasecmp@plt>
    7de5:	85 c0                	test   eax,eax
    7de7:	0f 84 5d 06 00 00    	je     844a <indexof+0x7d8>
    7ded:	48 8b 45 f0          	mov    rax,QWORD PTR [rbp-0x10]
    7df1:	48 8d 15 a1 43 00 00 	lea    rdx,[rip+0x43a1]        # c199 <_IO_stdin_used+0x199>
    7df8:	48 89 d6             	mov    rsi,rdx
    7dfb:	48 89 c7             	mov    rdi,rax
    7dfe:	e8 4d a2 ff ff       	call   2050 <strcasecmp@plt>
    7e03:	85 c0                	test   eax,eax
    7e05:	0f 84 3f 06 00 00    	je     844a <indexof+0x7d8>
    7e0b:	48 8b 45 f0          	mov    rax,QWORD PTR [rbp-0x10]
    7e0f:	48 8d 15 41 43 00 00 	lea    rdx,[rip+0x4341]        # c157 <_IO_stdin_used+0x157>
    7e16:	48 89 d6             	mov    rsi,rdx
    7e19:	48 89 c7             	mov    rdi,rax
    7e1c:	e8 2f a2 ff ff       	call   2050 <strcasecmp@plt>
    7e21:	85 c0                	test   eax,eax
    7e23:	0f 84 21 06 00 00    	je     844a <indexof+0x7d8>
    7e29:	48 8b 45 f0          	mov    rax,QWORD PTR [rbp-0x10]
    7e2d:	48 8d 15 c4 43 00 00 	lea    rdx,[rip+0x43c4]        # c1f8 <_IO_stdin_used+0x1f8>
    7e34:	48 89 d6             	mov    rsi,rdx
    7e37:	48 89 c7             	mov    rdi,rax
    7e3a:	e8 11 a2 ff ff       	call   2050 <strcasecmp@plt>
    7e3f:	85 c0                	test   eax,eax
    7e41:	0f 84 03 06 00 00    	je     844a <indexof+0x7d8>
    7e47:	48 8b 45 f0          	mov    rax,QWORD PTR [rbp-0x10]
    7e4b:	48 8d 15 60 43 00 00 	lea    rdx,[rip+0x4360]        # c1b2 <_IO_stdin_used+0x1b2>
    7e52:	48 89 d6             	mov    rsi,rdx
    7e55:	48 89 c7             	mov    rdi,rax
    7e58:	e8 f3 a1 ff ff       	call   2050 <strcasecmp@plt>
    7e5d:	85 c0                	test   eax,eax
    7e5f:	0f 84 e5 05 00 00    	je     844a <indexof+0x7d8>
    7e65:	48 8b 45 f0          	mov    rax,QWORD PTR [rbp-0x10]
    7e69:	48 8d 15 04 43 00 00 	lea    rdx,[rip+0x4304]        # c174 <_IO_stdin_used+0x174>
    7e70:	48 89 d6             	mov    rsi,rdx
    7e73:	48 89 c7             	mov    rdi,rax
    7e76:	e8 d5 a1 ff ff       	call   2050 <strcasecmp@plt>
    7e7b:	85 c0                	test   eax,eax
    7e7d:	0f 84 c7 05 00 00    	je     844a <indexof+0x7d8>
    7e83:	48 8b 45 f0          	mov    rax,QWORD PTR [rbp-0x10]
    7e87:	48 8d 15 94 43 00 00 	lea    rdx,[rip+0x4394]        # c222 <_IO_stdin_used+0x222>
    7e8e:	48 89 d6             	mov    rsi,rdx
    7e91:	48 89 c7             	mov    rdi,rax
    7e94:	e8 b7 a1 ff ff       	call   2050 <strcasecmp@plt>
    7e99:	85 c0                	test   eax,eax
    7e9b:	0f 84 a0 05 00 00    	je     8441 <indexof+0x7cf>
    7ea1:	48 8b 45 f0          	mov    rax,QWORD PTR [rbp-0x10]
    7ea5:	48 8d 15 98 43 00 00 	lea    rdx,[rip+0x4398]        # c244 <_IO_stdin_used+0x244>
    7eac:	48 89 d6             	mov    rsi,rdx
    7eaf:	48 89 c7             	mov    rdi,rax
    7eb2:	e8 99 a1 ff ff       	call   2050 <strcasecmp@plt>
    7eb7:	85 c0                	test   eax,eax
    7eb9:	0f 84 82 05 00 00    	je     8441 <indexof+0x7cf>
    7ebf:	48 8b 45 f0          	mov    rax,QWORD PTR [rbp-0x10]
    7ec3:	48 8d 15 12 43 00 00 	lea    rdx,[rip+0x4312]        # c1dc <_IO_stdin_used+0x1dc>
    7eca:	48 89 d6             	mov    rsi,rdx
    7ecd:	48 89 c7             	mov    rdi,rax
    7ed0:	e8 7b a1 ff ff       	call   2050 <strcasecmp@plt>
    7ed5:	85 c0                	test   eax,eax
    7ed7:	0f 84 64 05 00 00    	je     8441 <indexof+0x7cf>
    7edd:	48 8b 45 f0          	mov    rax,QWORD PTR [rbp-0x10]
    7ee1:	48 8d 15 b4 42 00 00 	lea    rdx,[rip+0x42b4]        # c19c <_IO_stdin_used+0x19c>
    7ee8:	48 89 d6             	mov    rsi,rdx
    7eeb:	48 89 c7             	mov    rdi,rax
    7eee:	e8 5d a1 ff ff       	call   2050 <strcasecmp@plt>
    7ef3:	85 c0                	test   eax,eax
    7ef5:	0f 84 46 05 00 00    	je     8441 <indexof+0x7cf>
    7efb:	48 8b 45 f0          	mov    rax,QWORD PTR [rbp-0x10]
    7eff:	48 8d 15 54 42 00 00 	lea    rdx,[rip+0x4254]        # c15a <_IO_stdin_used+0x15a>
    7f06:	48 89 d6             	mov    rsi,rdx
    7f09:	48 89 c7             	mov    rdi,rax
    7f0c:	e8 3f a1 ff ff       	call   2050 <strcasecmp@plt>
    7f11:	85 c0                	test   eax,eax
    7f13:	0f 84 28 05 00 00    	je     8441 <indexof+0x7cf>
    7f19:	48 8b 45 f0          	mov    rax,QWORD PTR [rbp-0x10]
    7f1d:	48 8d 15 d8 42 00 00 	lea    rdx,[rip+0x42d8]        # c1fc <_IO_stdin_used+0x1fc>
    7f24:	48 89 d6             	mov    rsi,rdx
    7f27:	48 89 c7             	mov    rdi,rax
    7f2a:	e8 21 a1 ff ff       	call   2050 <strcasecmp@plt>
    7f2f:	85 c0                	test   eax,eax
    7f31:	0f 84 0a 05 00 00    	je     8441 <indexof+0x7cf>
    7f37:	48 8b 45 f0          	mov    rax,QWORD PTR [rbp-0x10]
    7f3b:	48 8d 15 74 42 00 00 	lea    rdx,[rip+0x4274]        # c1b6 <_IO_stdin_used+0x1b6>
    7f42:	48 89 d6             	mov    rsi,rdx
    7f45:	48 89 c7             	mov    rdi,rax
    7f48:	e8 03 a1 ff ff       	call   2050 <strcasecmp@plt>
    7f4d:	85 c0                	test   eax,eax
    7f4f:	0f 84 ec 04 00 00    	je     8441 <indexof+0x7cf>
    7f55:	48 8b 45 f0          	mov    rax,QWORD PTR [rbp-0x10]
    7f59:	48 8d 15 18 42 00 00 	lea    rdx,[rip+0x4218]        # c178 <_IO_stdin_used+0x178>
    7f60:	48 89 d6             	mov    rsi,rdx
    7f63:	48 89 c7             	mov    rdi,rax
    7f66:	e8 e5 a0 ff ff       	call   2050 <strcasecmp@plt>
    7f6b:	85 c0                	test   eax,eax
    7f6d:	0f 84 ce 04 00 00    	je     8441 <indexof+0x7cf>
    7f73:	48 8b 45 f0          	mov    rax,QWORD PTR [rbp-0x10]
    7f77:	48 8d 15 a8 42 00 00 	lea    rdx,[rip+0x42a8]        # c226 <_IO_stdin_used+0x226>
    7f7e:	48 89 d6             	mov    rsi,rdx
    7f81:	48 89 c7             	mov    rdi,rax
    7f84:	e8 c7 a0 ff ff       	call   2050 <strcasecmp@plt>
    7f89:	85 c0                	test   eax,eax
    7f8b:	0f 84 a7 04 00 00    	je     8438 <indexof+0x7c6>
    7f91:	48 8b 45 f0          	mov    rax,QWORD PTR [rbp-0x10]
    7f95:	48 8d 15 ac 42 00 00 	lea    rdx,[rip+0x42ac]        # c248 <_IO_stdin_used+0x248>
    7f9c:	48 89 d6             	mov    rsi,rdx
    7f9f:	48 89 c7             	mov    rdi,rax
    7fa2:	e8 a9 a0 ff ff       	call   2050 <strcasecmp@plt>
    7fa7:	85 c0                	test   eax,eax
    7fa9:	0f 84 89 04 00 00    	je     8438 <indexof+0x7c6>
    7faf:	48 8b 45 f0          	mov    rax,QWORD PTR [rbp-0x10]
    7fb3:	48 8d 15 26 42 00 00 	lea    rdx,[rip+0x4226]        # c1e0 <_IO_stdin_used+0x1e0>
    7fba:	48 89 d6             	mov    rsi,rdx
    7fbd:	48 89 c7             	mov    rdi,rax
    7fc0:	e8 8b a0 ff ff       	call   2050 <strcasecmp@plt>
    7fc5:	85 c0                	test   eax,eax
    7fc7:	0f 84 6b 04 00 00    	je     8438 <indexof+0x7c6>
    7fcd:	48 8b 45 f0          	mov    rax,QWORD PTR [rbp-0x10]
    7fd1:	48 8d 15 c7 41 00 00 	lea    rdx,[rip+0x41c7]        # c19f <_IO_stdin_used+0x19f>
    7fd8:	48 89 d6             	mov    rsi,rdx
    7fdb:	48 89 c7             	mov    rdi,rax
    7fde:	e8 6d a0 ff ff       	call   2050 <strcasecmp@plt>
    7fe3:	85 c0                	test   eax,eax
    7fe5:	0f 84 4d 04 00 00    	je     8438 <indexof+0x7c6>
    7feb:	48 8b 45 f0          	mov    rax,QWORD PTR [rbp-0x10]
    7fef:	48 8d 15 67 41 00 00 	lea    rdx,[rip+0x4167]        # c15d <_IO_stdin_used+0x15d>
    7ff6:	48 89 d6             	mov    rsi,rdx
    7ff9:	48 89 c7             	mov    rdi,rax
    7ffc:	e8 4f a0 ff ff       	call   2050 <strcasecmp@plt>
    8001:	85 c0                	test   eax,eax
    8003:	0f 84 2f 04 00 00    	je     8438 <indexof+0x7c6>
    8009:	48 8b 45 f0          	mov    rax,QWORD PTR [rbp-0x10]
    800d:	48 8d 15 ed 41 00 00 	lea    rdx,[rip+0x41ed]        # c201 <_IO_stdin_used+0x201>
    8014:	48 89 d6             	mov    rsi,rdx
    8017:	48 89 c7             	mov    rdi,rax
    801a:	e8 31 a0 ff ff       	call   2050 <strcasecmp@plt>
    801f:	85 c0                	test   eax,eax
    8021:	0f 84 11 04 00 00    	je     8438 <indexof+0x7c6>
    8027:	48 8b 45 f0          	mov    rax,QWORD PTR [rbp-0x10]
    802b:	48 8d 15 89 41 00 00 	lea    rdx,[rip+0x4189]        # c1bb <_IO_stdin_used+0x1bb>
    8032:	48 89 d6             	mov    rsi,rdx
    8035:	48 89 c7             	mov    rdi,rax
    8038:	e8 13 a0 ff ff       	call   2050 <strcasecmp@plt>
    803d:	85 c0                	test   eax,eax
    803f:	0f 84 f3 03 00 00    	je     8438 <indexof+0x7c6>
    8045:	48 8b 45 f0          	mov    rax,QWORD PTR [rbp-0x10]
    8049:	48 8d 15 2d 41 00 00 	lea    rdx,[rip+0x412d]        # c17d <_IO_stdin_used+0x17d>
    8050:	48 89 d6             	mov    rsi,rdx
    8053:	48 89 c7             	mov    rdi,rax
    8056:	e8 f5 9f ff ff       	call   2050 <strcasecmp@plt>
    805b:	85 c0                	test   eax,eax
    805d:	0f 84 d5 03 00 00    	je     8438 <indexof+0x7c6>
    8063:	48 8b 45 f0          	mov    rax,QWORD PTR [rbp-0x10]
    8067:	48 8d 15 bc 41 00 00 	lea    rdx,[rip+0x41bc]        # c22a <_IO_stdin_used+0x22a>
    806e:	48 89 d6             	mov    rsi,rdx
    8071:	48 89 c7             	mov    rdi,rax
    8074:	e8 d7 9f ff ff       	call   2050 <strcasecmp@plt>
    8079:	85 c0                	test   eax,eax
    807b:	0f 84 ae 03 00 00    	je     842f <indexof+0x7bd>
    8081:	48 8b 45 f0          	mov    rax,QWORD PTR [rbp-0x10]
    8085:	48 8d 15 c0 41 00 00 	lea    rdx,[rip+0x41c0]        # c24c <_IO_stdin_used+0x24c>
    808c:	48 89 d6             	mov    rsi,rdx
    808f:	48 89 c7             	mov    rdi,rax
    8092:	e8 b9 9f ff ff       	call   2050 <strcasecmp@plt>
    8097:	85 c0                	test   eax,eax
    8099:	0f 84 90 03 00 00    	je     842f <indexof+0x7bd>
    809f:	48 8b 45 f0          	mov    rax,QWORD PTR [rbp-0x10]
    80a3:	48 8d 15 3a 41 00 00 	lea    rdx,[rip+0x413a]        # c1e4 <_IO_stdin_used+0x1e4>
    80aa:	48 89 d6             	mov    rsi,rdx
    80ad:	48 89 c7             	mov    rdi,rax
    80b0:	e8 9b 9f ff ff       	call   2050 <strcasecmp@plt>
    80b5:	85 c0                	test   eax,eax
    80b7:	0f 84 72 03 00 00    	je     842f <indexof+0x7bd>
    80bd:	48 8b 45 f0          	mov    rax,QWORD PTR [rbp-0x10]
    80c1:	48 8d 15 da 40 00 00 	lea    rdx,[rip+0x40da]        # c1a2 <_IO_stdin_used+0x1a2>
    80c8:	48 89 d6             	mov    rsi,rdx
    80cb:	48 89 c7             	mov    rdi,rax
    80ce:	e8 7d 9f ff ff       	call   2050 <strcasecmp@plt>
    80d3:	85 c0                	test   eax,eax
    80d5:	0f 84 54 03 00 00    	je     842f <indexof+0x7bd>
    80db:	48 8b 45 f0          	mov    rax,QWORD PTR [rbp-0x10]
    80df:	48 8d 15 7a 40 00 00 	lea    rdx,[rip+0x407a]        # c160 <_IO_stdin_used+0x160>
    80e6:	48 89 d6             	mov    rsi,rdx
    80e9:	48 89 c7             	mov    rdi,rax
    80ec:	e8 5f 9f ff ff       	call   2050 <strcasecmp@plt>
    80f1:	85 c0                	test   eax,eax
    80f3:	0f 84 36 03 00 00    	je     842f <indexof+0x7bd>
    80f9:	48 8b 45 f0          	mov    rax,QWORD PTR [rbp-0x10]
    80fd:	48 8d 15 02 41 00 00 	lea    rdx,[rip+0x4102]        # c206 <_IO_stdin_used+0x206>
    8104:	48 89 d6             	mov    rsi,rdx
    8107:	48 89 c7             	mov    rdi,rax
    810a:	e8 41 9f ff ff       	call   2050 <strcasecmp@plt>
    810f:	85 c0                	test   eax,eax
    8111:	0f 84 18 03 00 00    	je     842f <indexof+0x7bd>
    8117:	48 8b 45 f0          	mov    rax,QWORD PTR [rbp-0x10]
    811b:	48 8d 15 9e 40 00 00 	lea    rdx,[rip+0x409e]        # c1c0 <_IO_stdin_used+0x1c0>
    8122:	48 89 d6             	mov    rsi,rdx
    8125:	48 89 c7             	mov    rdi,rax
    8128:	e8 23 9f ff ff       	call   2050 <strcasecmp@plt>
    812d:	85 c0                	test   eax,eax
    812f:	0f 84 fa 02 00 00    	je     842f <indexof+0x7bd>
    8135:	48 8b 45 f0          	mov    rax,QWORD PTR [rbp-0x10]
    8139:	48 8d 15 42 40 00 00 	lea    rdx,[rip+0x4042]        # c182 <_IO_stdin_used+0x182>
    8140:	48 89 d6             	mov    rsi,rdx
    8143:	48 89 c7             	mov    rdi,rax
    8146:	e8 05 9f ff ff       	call   2050 <strcasecmp@plt>
    814b:	85 c0                	test   eax,eax
    814d:	0f 84 dc 02 00 00    	je     842f <indexof+0x7bd>
    8153:	48 8b 45 f0          	mov    rax,QWORD PTR [rbp-0x10]
    8157:	48 8d 15 d0 40 00 00 	lea    rdx,[rip+0x40d0]        # c22e <_IO_stdin_used+0x22e>
    815e:	48 89 d6             	mov    rsi,rdx
    8161:	48 89 c7             	mov    rdi,rax
    8164:	e8 e7 9e ff ff       	call   2050 <strcasecmp@plt>
    8169:	85 c0                	test   eax,eax
    816b:	0f 84 b5 02 00 00    	je     8426 <indexof+0x7b4>
    8171:	48 8b 45 f0          	mov    rax,QWORD PTR [rbp-0x10]
    8175:	48 8d 15 d4 40 00 00 	lea    rdx,[rip+0x40d4]        # c250 <_IO_stdin_used+0x250>
    817c:	48 89 d6             	mov    rsi,rdx
    817f:	48 89 c7             	mov    rdi,rax
    8182:	e8 c9 9e ff ff       	call   2050 <strcasecmp@plt>
    8187:	85 c0                	test   eax,eax
    8189:	0f 84 97 02 00 00    	je     8426 <indexof+0x7b4>
    818f:	48 8b 45 f0          	mov    rax,QWORD PTR [rbp-0x10]
    8193:	48 8d 15 4e 40 00 00 	lea    rdx,[rip+0x404e]        # c1e8 <_IO_stdin_used+0x1e8>
    819a:	48 89 d6             	mov    rsi,rdx
    819d:	48 89 c7             	mov    rdi,rax
    81a0:	e8 ab 9e ff ff       	call   2050 <strcasecmp@plt>
    81a5:	85 c0                	test   eax,eax
    81a7:	0f 84 79 02 00 00    	je     8426 <indexof+0x7b4>
    81ad:	48 8b 45 f0          	mov    rax,QWORD PTR [rbp-0x10]
    81b1:	48 8d 15 ed 3f 00 00 	lea    rdx,[rip+0x3fed]        # c1a5 <_IO_stdin_used+0x1a5>
    81b8:	48 89 d6             	mov    rsi,rdx
    81bb:	48 89 c7             	mov    rdi,rax
    81be:	e8 8d 9e ff ff       	call   2050 <strcasecmp@plt>
    81c3:	85 c0                	test   eax,eax
    81c5:	0f 84 5b 02 00 00    	je     8426 <indexof+0x7b4>
    81cb:	48 8b 45 f0          	mov    rax,QWORD PTR [rbp-0x10]
    81cf:	48 8d 15 8e 3f 00 00 	lea    rdx,[rip+0x3f8e]        # c164 <_IO_stdin_used+0x164>
    81d6:	48 89 d6             	mov    rsi,rdx
    81d9:	48 89 c7             	mov    rdi,rax
    81dc:	e8 6f 9e ff ff       	call   2050 <strcasecmp@plt>
    81e1:	85 c0                	test   eax,eax
    81e3:	0f 84 3d 02 00 00    	je     8426 <indexof+0x7b4>
    81e9:	48 8b 45 f0          	mov    rax,QWORD PTR [rbp-0x10]
    81ed:	48 8d 15 17 40 00 00 	lea    rdx,[rip+0x4017]        # c20b <_IO_stdin_used+0x20b>
    81f4:	48 89 d6             	mov    rsi,rdx
    81f7:	48 89 c7             	mov    rdi,rax
    81fa:	e8 51 9e ff ff       	call   2050 <strcasecmp@plt>
    81ff:	85 c0                	test   eax,eax
    8201:	0f 84 1f 02 00 00    	je     8426 <indexof+0x7b4>
    8207:	48 8b 45 f0          	mov    rax,QWORD PTR [rbp-0x10]
    820b:	48 8d 15 b3 3f 00 00 	lea    rdx,[rip+0x3fb3]        # c1c5 <_IO_stdin_used+0x1c5>
    8212:	48 89 d6             	mov    rsi,rdx
    8215:	48 89 c7             	mov    rdi,rax
    8218:	e8 33 9e ff ff       	call   2050 <strcasecmp@plt>
    821d:	85 c0                	test   eax,eax
    821f:	0f 84 01 02 00 00    	je     8426 <indexof+0x7b4>
    8225:	48 8b 45 f0          	mov    rax,QWORD PTR [rbp-0x10]
    8229:	48 8d 15 57 3f 00 00 	lea    rdx,[rip+0x3f57]        # c187 <_IO_stdin_used+0x187>
    8230:	48 89 d6             	mov    rsi,rdx
    8233:	48 89 c7             	mov    rdi,rax
    8236:	e8 15 9e ff ff       	call   2050 <strcasecmp@plt>
    823b:	85 c0                	test   eax,eax
    823d:	0f 84 e3 01 00 00    	je     8426 <indexof+0x7b4>
    8243:	48 8b 45 f0          	mov    rax,QWORD PTR [rbp-0x10]
    8247:	48 8d 15 e4 3f 00 00 	lea    rdx,[rip+0x3fe4]        # c232 <_IO_stdin_used+0x232>
    824e:	48 89 d6             	mov    rsi,rdx
    8251:	48 89 c7             	mov    rdi,rax
    8254:	e8 f7 9d ff ff       	call   2050 <strcasecmp@plt>
    8259:	85 c0                	test   eax,eax
    825b:	0f 84 bc 01 00 00    	je     841d <indexof+0x7ab>
    8261:	48 8b 45 f0          	mov    rax,QWORD PTR [rbp-0x10]
    8265:	48 8d 15 e8 3f 00 00 	lea    rdx,[rip+0x3fe8]        # c254 <_IO_stdin_used+0x254>
    826c:	48 89 d6             	mov    rsi,rdx
    826f:	48 89 c7             	mov    rdi,rax
    8272:	e8 d9 9d ff ff       	call   2050 <strcasecmp@plt>
    8277:	85 c0                	test   eax,eax
    8279:	0f 84 9e 01 00 00    	je     841d <indexof+0x7ab>
    827f:	48 8b 45 f0          	mov    rax,QWORD PTR [rbp-0x10]
    8283:	48 8d 15 62 3f 00 00 	lea    rdx,[rip+0x3f62]        # c1ec <_IO_stdin_used+0x1ec>
    828a:	48 89 d6             	mov    rsi,rdx
    828d:	48 89 c7             	mov    rdi,rax
    8290:	e8 bb 9d ff ff       	call   2050 <strcasecmp@plt>
    8295:	85 c0                	test   eax,eax
    8297:	0f 84 80 01 00 00    	je     841d <indexof+0x7ab>
    829d:	48 8b 45 f0          	mov    rax,QWORD PTR [rbp-0x10]
    82a1:	48 8d 15 00 3f 00 00 	lea    rdx,[rip+0x3f00]        # c1a8 <_IO_stdin_used+0x1a8>
    82a8:	48 89 d6             	mov    rsi,rdx
    82ab:	48 89 c7             	mov    rdi,rax
    82ae:	e8 9d 9d ff ff       	call   2050 <strcasecmp@plt>
    82b3:	85 c0                	test   eax,eax
    82b5:	0f 84 62 01 00 00    	je     841d <indexof+0x7ab>
    82bb:	48 8b 45 f0          	mov    rax,QWORD PTR [rbp-0x10]
    82bf:	48 8d 15 a2 3e 00 00 	lea    rdx,[rip+0x3ea2]        # c168 <_IO_stdin_used+0x168>
    82c6:	48 89 d6             	mov    rsi,rdx
    82c9:	48 89 c7             	mov    rdi,rax
    82cc:	e8 7f 9d ff ff       	call   2050 <strcasecmp@plt>
    82d1:	85 c0                	test   eax,eax
    82d3:	0f 84 44 01 00 00    	je     841d <indexof+0x7ab>
    82d9:	48 8b 45 f0          	mov    rax,QWORD PTR [rbp-0x10]
    82dd:	48 8d 15 2c 3f 00 00 	lea    rdx,[rip+0x3f2c]        # c210 <_IO_stdin_used+0x210>
    82e4:	48 89 d6             	mov    rsi,rdx
    82e7:	48 89 c7             	mov    rdi,rax
    82ea:	e8 61 9d ff ff       	call   2050 <strcasecmp@plt>
    82ef:	85 c0                	test   eax,eax
    82f1:	0f 84 26 01 00 00    	je     841d <indexof+0x7ab>
    82f7:	48 8b 45 f0          	mov    rax,QWORD PTR [rbp-0x10]
    82fb:	48 8d 15 c8 3e 00 00 	lea    rdx,[rip+0x3ec8]        # c1ca <_IO_stdin_used+0x1ca>
    8302:	48 89 d6             	mov    rsi,rdx
    8305:	48 89 c7             	mov    rdi,rax
    8308:	e8 43 9d ff ff       	call   2050 <strcasecmp@plt>
    830d:	85 c0                	test   eax,eax
    830f:	0f 84 08 01 00 00    	je     841d <indexof+0x7ab>
    8315:	48 8b 45 f0          	mov    rax,QWORD PTR [rbp-0x10]
    8319:	48 8d 15 6c 3e 00 00 	lea    rdx,[rip+0x3e6c]        # c18c <_IO_stdin_used+0x18c>
    8320:	48 89 d6             	mov    rsi,rdx
    8323:	48 89 c7             	mov    rdi,rax
    8326:	e8 25 9d ff ff       	call   2050 <strcasecmp@plt>
    832b:	85 c0                	test   eax,eax
    832d:	0f 84 ea 00 00 00    	je     841d <indexof+0x7ab>
    8333:	48 8b 45 f0          	mov    rax,QWORD PTR [rbp-0x10]
    8337:	48 8d 15 f8 3e 00 00 	lea    rdx,[rip+0x3ef8]        # c236 <_IO_stdin_used+0x236>
    833e:	48 89 d6             	mov    rsi,rdx
    8341:	48 89 c7             	mov    rdi,rax
    8344:	e8 07 9d ff ff       	call   2050 <strcasecmp@plt>
    8349:	85 c0                	test   eax,eax
    834b:	0f 84 be 00 00 00    	je     840f <indexof+0x79d>
    8351:	48 8b 45 f0          	mov    rax,QWORD PTR [rbp-0x10]
    8355:	48 8d 15 fc 3e 00 00 	lea    rdx,[rip+0x3efc]        # c258 <_IO_stdin_used+0x258>
    835c:	48 89 d6             	mov    rsi,rdx
    835f:	48 89 c7             	mov    rdi,rax
    8362:	e8 e9 9c ff ff       	call   2050 <strcasecmp@plt>
    8367:	85 c0                	test   eax,eax
    8369:	0f 84 a0 00 00 00    	je     840f <indexof+0x79d>
    836f:	48 8b 45 f0          	mov    rax,QWORD PTR [rbp-0x10]
    8373:	48 8d 15 76 3e 00 00 	lea    rdx,[rip+0x3e76]        # c1f0 <_IO_stdin_used+0x1f0>
    837a:	48 89 d6             	mov    rsi,rdx
    837d:	48 89 c7             	mov    rdi,rax
    8380:	e8 cb 9c ff ff       	call   2050 <strcasecmp@plt>
    8385:	85 c0                	test   eax,eax
    8387:	0f 84 82 00 00 00    	je     840f <indexof+0x79d>
    838d:	48 8b 45 f0          	mov    rax,QWORD PTR [rbp-0x10]
    8391:	48 8d 15 13 3e 00 00 	lea    rdx,[rip+0x3e13]        # c1ab <_IO_stdin_used+0x1ab>
    8398:	48 89 d6             	mov    rsi,rdx
    839b:	48 89 c7             	mov    rdi,rax
    839e:	e8 ad 9c ff ff       	call   2050 <strcasecmp@plt>
    83a3:	85 c0                	test   eax,eax
    83a5:	74 68                	je     840f <indexof+0x79d>
    83a7:	48 8b 45 f0          	mov    rax,QWORD PTR [rbp-0x10]
    83ab:	48 8d 15 ba 3d 00 00 	lea    rdx,[rip+0x3dba]        # c16c <_IO_stdin_used+0x16c>
    83b2:	48 89 d6             	mov    rsi,rdx
    83b5:	48 89 c7             	mov    rdi,rax
    83b8:	e8 93 9c ff ff       	call   2050 <strcasecmp@plt>
    83bd:	85 c0                	test   eax,eax
    83bf:	74 4e                	je     840f <indexof+0x79d>
    83c1:	48 8b 45 f0          	mov    rax,QWORD PTR [rbp-0x10]
    83c5:	48 8d 15 49 3e 00 00 	lea    rdx,[rip+0x3e49]        # c215 <_IO_stdin_used+0x215>
    83cc:	48 89 d6             	mov    rsi,rdx
    83cf:	48 89 c7             	mov    rdi,rax
    83d2:	e8 79 9c ff ff       	call   2050 <strcasecmp@plt>
    83d7:	85 c0                	test   eax,eax
    83d9:	74 34                	je     840f <indexof+0x79d>
    83db:	48 8b 45 f0          	mov    rax,QWORD PTR [rbp-0x10]
    83df:	48 8d 15 e9 3d 00 00 	lea    rdx,[rip+0x3de9]        # c1cf <_IO_stdin_used+0x1cf>
    83e6:	48 89 d6             	mov    rsi,rdx
    83e9:	48 89 c7             	mov    rdi,rax
    83ec:	e8 5f 9c ff ff       	call   2050 <strcasecmp@plt>
    83f1:	85 c0                	test   eax,eax
    83f3:	74 1a                	je     840f <indexof+0x79d>
    83f5:	48 8b 45 f0          	mov    rax,QWORD PTR [rbp-0x10]
    83f9:	48 8d 15 91 3d 00 00 	lea    rdx,[rip+0x3d91]        # c191 <_IO_stdin_used+0x191>
    8400:	48 89 d6             	mov    rsi,rdx
    8403:	48 89 c7             	mov    rdi,rax
    8406:	e8 45 9c ff ff       	call   2050 <strcasecmp@plt>
    840b:	85 c0                	test   eax,eax
    840d:	75 07                	jne    8416 <indexof+0x7a4>
    840f:	b8 07 00 00 00       	mov    eax,0x7
    8414:	eb 0e                	jmp    8424 <indexof+0x7b2>
    8416:	b8 ff ff ff ff       	mov    eax,0xffffffff
    841b:	eb 07                	jmp    8424 <indexof+0x7b2>
    841d:	b8 06 00 00 00       	mov    eax,0x6
    8422:	eb 09                	jmp    842d <indexof+0x7bb>
    8424:	eb 07                	jmp    842d <indexof+0x7bb>
    8426:	b8 05 00 00 00       	mov    eax,0x5
    842b:	eb 09                	jmp    8436 <indexof+0x7c4>
    842d:	eb 07                	jmp    8436 <indexof+0x7c4>
    842f:	b8 04 00 00 00       	mov    eax,0x4
    8434:	eb 09                	jmp    843f <indexof+0x7cd>
    8436:	eb 07                	jmp    843f <indexof+0x7cd>
    8438:	b8 03 00 00 00       	mov    eax,0x3
    843d:	eb 09                	jmp    8448 <indexof+0x7d6>
    843f:	eb 07                	jmp    8448 <indexof+0x7d6>
    8441:	b8 02 00 00 00       	mov    eax,0x2
    8446:	eb 09                	jmp    8451 <indexof+0x7df>
    8448:	eb 07                	jmp    8451 <indexof+0x7df>
    844a:	b8 01 00 00 00       	mov    eax,0x1
    844f:	eb 07                	jmp    8458 <indexof+0x7e6>
    8451:	eb 05                	jmp    8458 <indexof+0x7e6>
    8453:	b8 00 00 00 00       	mov    eax,0x0
    8458:	c9                   	leave
    8459:	c3                   	ret

000000000000845a <find_reg64_index>:
find_reg64_index():
    845a:	55                   	push   rbp
    845b:	48 89 e5             	mov    rbp,rsp
    845e:	48 83 ec 20          	sub    rsp,0x20
    8462:	48 89 7d e8          	mov    QWORD PTR [rbp-0x18],rdi
    8466:	c7 45 fc 00 00 00 00 	mov    DWORD PTR [rbp-0x4],0x0
    846d:	eb 34                	jmp    84a3 <find_reg64_index+0x49>
    846f:	8b 45 fc             	mov    eax,DWORD PTR [rbp-0x4]
    8472:	48 98                	cdqe
    8474:	48 8d 14 c5 00 00 00 	lea    rdx,[rax*8+0x0]
    847b:	00 
    847c:	48 8d 05 fd 70 00 00 	lea    rax,[rip+0x70fd]        # f580 <regs64>
    8483:	48 8b 04 02          	mov    rax,QWORD PTR [rdx+rax*1]
    8487:	48 8b 55 e8          	mov    rdx,QWORD PTR [rbp-0x18]
    848b:	48 89 d6             	mov    rsi,rdx
    848e:	48 89 c7             	mov    rdi,rax
    8491:	e8 ba 9b ff ff       	call   2050 <strcasecmp@plt>
    8496:	85 c0                	test   eax,eax
    8498:	75 05                	jne    849f <find_reg64_index+0x45>
    849a:	8b 45 fc             	mov    eax,DWORD PTR [rbp-0x4]
    849d:	eb 55                	jmp    84f4 <find_reg64_index+0x9a>
    849f:	83 45 fc 01          	add    DWORD PTR [rbp-0x4],0x1
    84a3:	83 7d fc 07          	cmp    DWORD PTR [rbp-0x4],0x7
    84a7:	7e c6                	jle    846f <find_reg64_index+0x15>
    84a9:	c7 45 f8 00 00 00 00 	mov    DWORD PTR [rbp-0x8],0x0
    84b0:	eb 37                	jmp    84e9 <find_reg64_index+0x8f>
    84b2:	8b 45 f8             	mov    eax,DWORD PTR [rbp-0x8]
    84b5:	48 98                	cdqe
    84b7:	48 8d 14 c5 00 00 00 	lea    rdx,[rax*8+0x0]
    84be:	00 
    84bf:	48 8d 05 1a 71 00 00 	lea    rax,[rip+0x711a]        # f5e0 <regs64GP>
    84c6:	48 8b 04 02          	mov    rax,QWORD PTR [rdx+rax*1]
    84ca:	48 8b 55 e8          	mov    rdx,QWORD PTR [rbp-0x18]
    84ce:	48 89 d6             	mov    rsi,rdx
    84d1:	48 89 c7             	mov    rdi,rax
    84d4:	e8 77 9b ff ff       	call   2050 <strcasecmp@plt>
    84d9:	85 c0                	test   eax,eax
    84db:	75 08                	jne    84e5 <find_reg64_index+0x8b>
    84dd:	8b 45 f8             	mov    eax,DWORD PTR [rbp-0x8]
    84e0:	83 c0 08             	add    eax,0x8
    84e3:	eb 0f                	jmp    84f4 <find_reg64_index+0x9a>
    84e5:	83 45 f8 01          	add    DWORD PTR [rbp-0x8],0x1
    84e9:	83 7d f8 07          	cmp    DWORD PTR [rbp-0x8],0x7
    84ed:	7e c3                	jle    84b2 <find_reg64_index+0x58>
    84ef:	b8 ff ff ff ff       	mov    eax,0xffffffff
    84f4:	c9                   	leave
    84f5:	c3                   	ret

00000000000084f6 <find_reg32_index>:
find_reg32_index():
    84f6:	55                   	push   rbp
    84f7:	48 89 e5             	mov    rbp,rsp
    84fa:	48 83 ec 20          	sub    rsp,0x20
    84fe:	48 89 7d e8          	mov    QWORD PTR [rbp-0x18],rdi
    8502:	c7 45 fc 00 00 00 00 	mov    DWORD PTR [rbp-0x4],0x0
    8509:	eb 34                	jmp    853f <find_reg32_index+0x49>
    850b:	8b 45 fc             	mov    eax,DWORD PTR [rbp-0x4]
    850e:	48 98                	cdqe
    8510:	48 8d 14 c5 00 00 00 	lea    rdx,[rax*8+0x0]
    8517:	00 
    8518:	48 8d 05 a1 6f 00 00 	lea    rax,[rip+0x6fa1]        # f4c0 <regs32>
    851f:	48 8b 04 02          	mov    rax,QWORD PTR [rdx+rax*1]
    8523:	48 8b 55 e8          	mov    rdx,QWORD PTR [rbp-0x18]
    8527:	48 89 d6             	mov    rsi,rdx
    852a:	48 89 c7             	mov    rdi,rax
    852d:	e8 1e 9b ff ff       	call   2050 <strcasecmp@plt>
    8532:	85 c0                	test   eax,eax
    8534:	75 05                	jne    853b <find_reg32_index+0x45>
    8536:	8b 45 fc             	mov    eax,DWORD PTR [rbp-0x4]
    8539:	eb 55                	jmp    8590 <find_reg32_index+0x9a>
    853b:	83 45 fc 01          	add    DWORD PTR [rbp-0x4],0x1
    853f:	83 7d fc 07          	cmp    DWORD PTR [rbp-0x4],0x7
    8543:	7e c6                	jle    850b <find_reg32_index+0x15>
    8545:	c7 45 f8 00 00 00 00 	mov    DWORD PTR [rbp-0x8],0x0
    854c:	eb 37                	jmp    8585 <find_reg32_index+0x8f>
    854e:	8b 45 f8             	mov    eax,DWORD PTR [rbp-0x8]
    8551:	48 98                	cdqe
    8553:	48 8d 14 c5 00 00 00 	lea    rdx,[rax*8+0x0]
    855a:	00 
    855b:	48 8d 05 be 6f 00 00 	lea    rax,[rip+0x6fbe]        # f520 <regs32GP>
    8562:	48 8b 04 02          	mov    rax,QWORD PTR [rdx+rax*1]
    8566:	48 8b 55 e8          	mov    rdx,QWORD PTR [rbp-0x18]
    856a:	48 89 d6             	mov    rsi,rdx
    856d:	48 89 c7             	mov    rdi,rax
    8570:	e8 db 9a ff ff       	call   2050 <strcasecmp@plt>
    8575:	85 c0                	test   eax,eax
    8577:	75 08                	jne    8581 <find_reg32_index+0x8b>
    8579:	8b 45 f8             	mov    eax,DWORD PTR [rbp-0x8]
    857c:	83 c0 08             	add    eax,0x8
    857f:	eb 0f                	jmp    8590 <find_reg32_index+0x9a>
    8581:	83 45 f8 01          	add    DWORD PTR [rbp-0x8],0x1
    8585:	83 7d f8 07          	cmp    DWORD PTR [rbp-0x8],0x7
    8589:	7e c3                	jle    854e <find_reg32_index+0x58>
    858b:	b8 ff ff ff ff       	mov    eax,0xffffffff
    8590:	c9                   	leave
    8591:	c3                   	ret

0000000000008592 <find_reg16_index>:
find_reg16_index():
    8592:	55                   	push   rbp
    8593:	48 89 e5             	mov    rbp,rsp
    8596:	48 83 ec 20          	sub    rsp,0x20
    859a:	48 89 7d e8          	mov    QWORD PTR [rbp-0x18],rdi
    859e:	c7 45 fc 00 00 00 00 	mov    DWORD PTR [rbp-0x4],0x0
    85a5:	eb 34                	jmp    85db <find_reg16_index+0x49>
    85a7:	8b 45 fc             	mov    eax,DWORD PTR [rbp-0x4]
    85aa:	48 98                	cdqe
    85ac:	48 8d 14 c5 00 00 00 	lea    rdx,[rax*8+0x0]
    85b3:	00 
    85b4:	48 8d 05 45 6e 00 00 	lea    rax,[rip+0x6e45]        # f400 <regs16>
    85bb:	48 8b 04 02          	mov    rax,QWORD PTR [rdx+rax*1]
    85bf:	48 8b 55 e8          	mov    rdx,QWORD PTR [rbp-0x18]
    85c3:	48 89 d6             	mov    rsi,rdx
    85c6:	48 89 c7             	mov    rdi,rax
    85c9:	e8 82 9a ff ff       	call   2050 <strcasecmp@plt>
    85ce:	85 c0                	test   eax,eax
    85d0:	75 05                	jne    85d7 <find_reg16_index+0x45>
    85d2:	8b 45 fc             	mov    eax,DWORD PTR [rbp-0x4]
    85d5:	eb 55                	jmp    862c <find_reg16_index+0x9a>
    85d7:	83 45 fc 01          	add    DWORD PTR [rbp-0x4],0x1
    85db:	83 7d fc 07          	cmp    DWORD PTR [rbp-0x4],0x7
    85df:	7e c6                	jle    85a7 <find_reg16_index+0x15>
    85e1:	c7 45 f8 00 00 00 00 	mov    DWORD PTR [rbp-0x8],0x0
    85e8:	eb 37                	jmp    8621 <find_reg16_index+0x8f>
    85ea:	8b 45 f8             	mov    eax,DWORD PTR [rbp-0x8]
    85ed:	48 98                	cdqe
    85ef:	48 8d 14 c5 00 00 00 	lea    rdx,[rax*8+0x0]
    85f6:	00 
    85f7:	48 8d 05 62 6e 00 00 	lea    rax,[rip+0x6e62]        # f460 <regs16GP>
    85fe:	48 8b 04 02          	mov    rax,QWORD PTR [rdx+rax*1]
    8602:	48 8b 55 e8          	mov    rdx,QWORD PTR [rbp-0x18]
    8606:	48 89 d6             	mov    rsi,rdx
    8609:	48 89 c7             	mov    rdi,rax
    860c:	e8 3f 9a ff ff       	call   2050 <strcasecmp@plt>
    8611:	85 c0                	test   eax,eax
    8613:	75 08                	jne    861d <find_reg16_index+0x8b>
    8615:	8b 45 f8             	mov    eax,DWORD PTR [rbp-0x8]
    8618:	83 c0 08             	add    eax,0x8
    861b:	eb 0f                	jmp    862c <find_reg16_index+0x9a>
    861d:	83 45 f8 01          	add    DWORD PTR [rbp-0x8],0x1
    8621:	83 7d f8 07          	cmp    DWORD PTR [rbp-0x8],0x7
    8625:	7e c3                	jle    85ea <find_reg16_index+0x58>
    8627:	b8 ff ff ff ff       	mov    eax,0xffffffff
    862c:	c9                   	leave
    862d:	c3                   	ret

000000000000862e <find_reg8_index>:
find_reg8_index():
    862e:	55                   	push   rbp
    862f:	48 89 e5             	mov    rbp,rsp
    8632:	48 83 ec 20          	sub    rsp,0x20
    8636:	48 89 7d e8          	mov    QWORD PTR [rbp-0x18],rdi
    863a:	c7 45 fc 00 00 00 00 	mov    DWORD PTR [rbp-0x4],0x0
    8641:	eb 34                	jmp    8677 <find_reg8_index+0x49>
    8643:	8b 45 fc             	mov    eax,DWORD PTR [rbp-0x4]
    8646:	48 98                	cdqe
    8648:	48 8d 14 c5 00 00 00 	lea    rdx,[rax*8+0x0]
    864f:	00 
    8650:	48 8d 05 e9 6c 00 00 	lea    rax,[rip+0x6ce9]        # f340 <regs8>
    8657:	48 8b 04 02          	mov    rax,QWORD PTR [rdx+rax*1]
    865b:	48 8b 55 e8          	mov    rdx,QWORD PTR [rbp-0x18]
    865f:	48 89 d6             	mov    rsi,rdx
    8662:	48 89 c7             	mov    rdi,rax
    8665:	e8 e6 99 ff ff       	call   2050 <strcasecmp@plt>
    866a:	85 c0                	test   eax,eax
    866c:	75 05                	jne    8673 <find_reg8_index+0x45>
    866e:	8b 45 fc             	mov    eax,DWORD PTR [rbp-0x4]
    8671:	eb 55                	jmp    86c8 <find_reg8_index+0x9a>
    8673:	83 45 fc 01          	add    DWORD PTR [rbp-0x4],0x1
    8677:	83 7d fc 07          	cmp    DWORD PTR [rbp-0x4],0x7
    867b:	7e c6                	jle    8643 <find_reg8_index+0x15>
    867d:	c7 45 f8 00 00 00 00 	mov    DWORD PTR [rbp-0x8],0x0
    8684:	eb 37                	jmp    86bd <find_reg8_index+0x8f>
    8686:	8b 45 f8             	mov    eax,DWORD PTR [rbp-0x8]
    8689:	48 98                	cdqe
    868b:	48 8d 14 c5 00 00 00 	lea    rdx,[rax*8+0x0]
    8692:	00 
    8693:	48 8d 05 06 6d 00 00 	lea    rax,[rip+0x6d06]        # f3a0 <regs8GP>
    869a:	48 8b 04 02          	mov    rax,QWORD PTR [rdx+rax*1]
    869e:	48 8b 55 e8          	mov    rdx,QWORD PTR [rbp-0x18]
    86a2:	48 89 d6             	mov    rsi,rdx
    86a5:	48 89 c7             	mov    rdi,rax
    86a8:	e8 a3 99 ff ff       	call   2050 <strcasecmp@plt>
    86ad:	85 c0                	test   eax,eax
    86af:	75 08                	jne    86b9 <find_reg8_index+0x8b>
    86b1:	8b 45 f8             	mov    eax,DWORD PTR [rbp-0x8]
    86b4:	83 c0 08             	add    eax,0x8
    86b7:	eb 0f                	jmp    86c8 <find_reg8_index+0x9a>
    86b9:	83 45 f8 01          	add    DWORD PTR [rbp-0x8],0x1
    86bd:	83 7d f8 07          	cmp    DWORD PTR [rbp-0x8],0x7
    86c1:	7e c3                	jle    8686 <find_reg8_index+0x58>
    86c3:	b8 ff ff ff ff       	mov    eax,0xffffffff
    86c8:	c9                   	leave
    86c9:	c3                   	ret

00000000000086ca <parse_addr_expr>:
parse_addr_expr():
    86ca:	55                   	push   rbp
    86cb:	48 89 e5             	mov    rbp,rsp
    86ce:	48 83 c4 80          	add    rsp,0xffffffffffffff80
    86d2:	48 89 7d 98          	mov    QWORD PTR [rbp-0x68],rdi
    86d6:	48 c7 45 cc 00 00 00 	mov    QWORD PTR [rbp-0x34],0x0
    86dd:	00 
    86de:	c7 45 d4 00 00 00 00 	mov    DWORD PTR [rbp-0x2c],0x0
    86e5:	48 8b 45 98          	mov    rax,QWORD PTR [rbp-0x68]
    86e9:	48 89 45 f8          	mov    QWORD PTR [rbp-0x8],rax
    86ed:	c6 45 f7 00          	mov    BYTE PTR [rbp-0x9],0x0
    86f1:	c6 45 f6 00          	mov    BYTE PTR [rbp-0xa],0x0
    86f5:	c6 45 f5 00          	mov    BYTE PTR [rbp-0xb],0x0
    86f9:	c6 45 f4 00          	mov    BYTE PTR [rbp-0xc],0x0
    86fd:	c6 45 c8 00          	mov    BYTE PTR [rbp-0x38],0x0
    8701:	c6 45 c4 00          	mov    BYTE PTR [rbp-0x3c],0x0
    8705:	c6 45 c1 00          	mov    BYTE PTR [rbp-0x3f],0x0
    8709:	c6 45 a0 00          	mov    BYTE PTR [rbp-0x60],0x0
    870d:	c6 45 c1 31          	mov    BYTE PTR [rbp-0x3f],0x31
    8711:	c6 45 a0 30          	mov    BYTE PTR [rbp-0x60],0x30
    8715:	e9 8f 03 00 00       	jmp    8aa9 <parse_addr_expr+0x3df>
    871a:	48 8b 45 f8          	mov    rax,QWORD PTR [rbp-0x8]
    871e:	0f b6 00             	movzx  eax,BYTE PTR [rax]
    8721:	3c 62                	cmp    al,0x62
    8723:	74 0f                	je     8734 <parse_addr_expr+0x6a>
    8725:	48 8b 45 f8          	mov    rax,QWORD PTR [rbp-0x8]
    8729:	0f b6 00             	movzx  eax,BYTE PTR [rax]
    872c:	3c 42                	cmp    al,0x42
    872e:	0f 85 b9 00 00 00    	jne    87ed <parse_addr_expr+0x123>
    8734:	c6 45 f7 01          	mov    BYTE PTR [rbp-0x9],0x1
    8738:	48 83 45 f8 01       	add    QWORD PTR [rbp-0x8],0x1
    873d:	48 8b 45 f8          	mov    rax,QWORD PTR [rbp-0x8]
    8741:	0f b6 00             	movzx  eax,BYTE PTR [rax]
    8744:	84 c0                	test   al,al
    8746:	74 0b                	je     8753 <parse_addr_expr+0x89>
    8748:	48 8b 45 f8          	mov    rax,QWORD PTR [rbp-0x8]
    874c:	0f b6 00             	movzx  eax,BYTE PTR [rax]
    874f:	3c 3d                	cmp    al,0x3d
    8751:	74 2e                	je     8781 <parse_addr_expr+0xb7>
    8753:	8b 15 2f 6f 00 00    	mov    edx,DWORD PTR [rip+0x6f2f]        # f688 <line>
    8759:	48 8b 05 00 6f 00 00 	mov    rax,QWORD PTR [rip+0x6f00]        # f660 <stderr@GLIBC_2.2.5>
    8760:	48 8d 0d 19 47 00 00 	lea    rcx,[rip+0x4719]        # ce80 <_IO_stdin_used+0xe80>
    8767:	48 89 ce             	mov    rsi,rcx
    876a:	48 89 c7             	mov    rdi,rax
    876d:	b8 00 00 00 00       	mov    eax,0x0
    8772:	e8 89 99 ff ff       	call   2100 <fprintf@plt>
    8777:	bf 01 00 00 00       	mov    edi,0x1
    877c:	e8 df 99 ff ff       	call   2160 <exit@plt>
    8781:	48 83 45 f8 01       	add    QWORD PTR [rbp-0x8],0x1
    8786:	c7 45 f0 00 00 00 00 	mov    DWORD PTR [rbp-0x10],0x0
    878d:	eb 1f                	jmp    87ae <parse_addr_expr+0xe4>
    878f:	48 8b 45 f8          	mov    rax,QWORD PTR [rbp-0x8]
    8793:	48 8d 50 01          	lea    rdx,[rax+0x1]
    8797:	48 89 55 f8          	mov    QWORD PTR [rbp-0x8],rdx
    879b:	8b 55 f0             	mov    edx,DWORD PTR [rbp-0x10]
    879e:	8d 4a 01             	lea    ecx,[rdx+0x1]
    87a1:	89 4d f0             	mov    DWORD PTR [rbp-0x10],ecx
    87a4:	0f b6 08             	movzx  ecx,BYTE PTR [rax]
    87a7:	48 63 c2             	movsxd rax,edx
    87aa:	88 4c 05 c8          	mov    BYTE PTR [rbp+rax*1-0x38],cl
    87ae:	48 8b 45 f8          	mov    rax,QWORD PTR [rbp-0x8]
    87b2:	0f b6 00             	movzx  eax,BYTE PTR [rax]
    87b5:	84 c0                	test   al,al
    87b7:	74 11                	je     87ca <parse_addr_expr+0x100>
    87b9:	48 8b 45 f8          	mov    rax,QWORD PTR [rbp-0x8]
    87bd:	0f b6 00             	movzx  eax,BYTE PTR [rax]
    87c0:	3c 2c                	cmp    al,0x2c
    87c2:	74 06                	je     87ca <parse_addr_expr+0x100>
    87c4:	83 7d f0 02          	cmp    DWORD PTR [rbp-0x10],0x2
    87c8:	7e c5                	jle    878f <parse_addr_expr+0xc5>
    87ca:	8b 45 f0             	mov    eax,DWORD PTR [rbp-0x10]
    87cd:	48 98                	cdqe
    87cf:	c6 44 05 c8 00       	mov    BYTE PTR [rbp+rax*1-0x38],0x0
    87d4:	48 8b 45 f8          	mov    rax,QWORD PTR [rbp-0x8]
    87d8:	0f b6 00             	movzx  eax,BYTE PTR [rax]
    87db:	3c 2c                	cmp    al,0x2c
    87dd:	0f 85 c6 02 00 00    	jne    8aa9 <parse_addr_expr+0x3df>
    87e3:	48 83 45 f8 01       	add    QWORD PTR [rbp-0x8],0x1
    87e8:	e9 bc 02 00 00       	jmp    8aa9 <parse_addr_expr+0x3df>
    87ed:	48 8b 45 f8          	mov    rax,QWORD PTR [rbp-0x8]
    87f1:	0f b6 00             	movzx  eax,BYTE PTR [rax]
    87f4:	3c 69                	cmp    al,0x69
    87f6:	74 0f                	je     8807 <parse_addr_expr+0x13d>
    87f8:	48 8b 45 f8          	mov    rax,QWORD PTR [rbp-0x8]
    87fc:	0f b6 00             	movzx  eax,BYTE PTR [rax]
    87ff:	3c 49                	cmp    al,0x49
    8801:	0f 85 b9 00 00 00    	jne    88c0 <parse_addr_expr+0x1f6>
    8807:	c6 45 f6 01          	mov    BYTE PTR [rbp-0xa],0x1
    880b:	48 83 45 f8 01       	add    QWORD PTR [rbp-0x8],0x1
    8810:	48 8b 45 f8          	mov    rax,QWORD PTR [rbp-0x8]
    8814:	0f b6 00             	movzx  eax,BYTE PTR [rax]
    8817:	84 c0                	test   al,al
    8819:	74 0b                	je     8826 <parse_addr_expr+0x15c>
    881b:	48 8b 45 f8          	mov    rax,QWORD PTR [rbp-0x8]
    881f:	0f b6 00             	movzx  eax,BYTE PTR [rax]
    8822:	3c 3d                	cmp    al,0x3d
    8824:	74 2e                	je     8854 <parse_addr_expr+0x18a>
    8826:	8b 15 5c 6e 00 00    	mov    edx,DWORD PTR [rip+0x6e5c]        # f688 <line>
    882c:	48 8b 05 2d 6e 00 00 	mov    rax,QWORD PTR [rip+0x6e2d]        # f660 <stderr@GLIBC_2.2.5>
    8833:	48 8d 0d 46 46 00 00 	lea    rcx,[rip+0x4646]        # ce80 <_IO_stdin_used+0xe80>
    883a:	48 89 ce             	mov    rsi,rcx
    883d:	48 89 c7             	mov    rdi,rax
    8840:	b8 00 00 00 00       	mov    eax,0x0
    8845:	e8 b6 98 ff ff       	call   2100 <fprintf@plt>
    884a:	bf 01 00 00 00       	mov    edi,0x1
    884f:	e8 0c 99 ff ff       	call   2160 <exit@plt>
    8854:	48 83 45 f8 01       	add    QWORD PTR [rbp-0x8],0x1
    8859:	c7 45 ec 00 00 00 00 	mov    DWORD PTR [rbp-0x14],0x0
    8860:	eb 1f                	jmp    8881 <parse_addr_expr+0x1b7>
    8862:	48 8b 45 f8          	mov    rax,QWORD PTR [rbp-0x8]
    8866:	48 8d 50 01          	lea    rdx,[rax+0x1]
    886a:	48 89 55 f8          	mov    QWORD PTR [rbp-0x8],rdx
    886e:	8b 55 ec             	mov    edx,DWORD PTR [rbp-0x14]
    8871:	8d 4a 01             	lea    ecx,[rdx+0x1]
    8874:	89 4d ec             	mov    DWORD PTR [rbp-0x14],ecx
    8877:	0f b6 08             	movzx  ecx,BYTE PTR [rax]
    887a:	48 63 c2             	movsxd rax,edx
    887d:	88 4c 05 c4          	mov    BYTE PTR [rbp+rax*1-0x3c],cl
    8881:	48 8b 45 f8          	mov    rax,QWORD PTR [rbp-0x8]
    8885:	0f b6 00             	movzx  eax,BYTE PTR [rax]
    8888:	84 c0                	test   al,al
    888a:	74 11                	je     889d <parse_addr_expr+0x1d3>
    888c:	48 8b 45 f8          	mov    rax,QWORD PTR [rbp-0x8]
    8890:	0f b6 00             	movzx  eax,BYTE PTR [rax]
    8893:	3c 2c                	cmp    al,0x2c
    8895:	74 06                	je     889d <parse_addr_expr+0x1d3>
    8897:	83 7d ec 02          	cmp    DWORD PTR [rbp-0x14],0x2
    889b:	7e c5                	jle    8862 <parse_addr_expr+0x198>
    889d:	8b 45 ec             	mov    eax,DWORD PTR [rbp-0x14]
    88a0:	48 98                	cdqe
    88a2:	c6 44 05 c4 00       	mov    BYTE PTR [rbp+rax*1-0x3c],0x0
    88a7:	48 8b 45 f8          	mov    rax,QWORD PTR [rbp-0x8]
    88ab:	0f b6 00             	movzx  eax,BYTE PTR [rax]
    88ae:	3c 2c                	cmp    al,0x2c
    88b0:	0f 85 f3 01 00 00    	jne    8aa9 <parse_addr_expr+0x3df>
    88b6:	48 83 45 f8 01       	add    QWORD PTR [rbp-0x8],0x1
    88bb:	e9 e9 01 00 00       	jmp    8aa9 <parse_addr_expr+0x3df>
    88c0:	48 8b 45 f8          	mov    rax,QWORD PTR [rbp-0x8]
    88c4:	0f b6 00             	movzx  eax,BYTE PTR [rax]
    88c7:	3c 73                	cmp    al,0x73
    88c9:	74 0f                	je     88da <parse_addr_expr+0x210>
    88cb:	48 8b 45 f8          	mov    rax,QWORD PTR [rbp-0x8]
    88cf:	0f b6 00             	movzx  eax,BYTE PTR [rax]
    88d2:	3c 53                	cmp    al,0x53
    88d4:	0f 85 cc 00 00 00    	jne    89a6 <parse_addr_expr+0x2dc>
    88da:	c6 45 f5 01          	mov    BYTE PTR [rbp-0xb],0x1
    88de:	48 83 45 f8 01       	add    QWORD PTR [rbp-0x8],0x1
    88e3:	48 8b 45 f8          	mov    rax,QWORD PTR [rbp-0x8]
    88e7:	0f b6 00             	movzx  eax,BYTE PTR [rax]
    88ea:	84 c0                	test   al,al
    88ec:	74 0b                	je     88f9 <parse_addr_expr+0x22f>
    88ee:	48 8b 45 f8          	mov    rax,QWORD PTR [rbp-0x8]
    88f2:	0f b6 00             	movzx  eax,BYTE PTR [rax]
    88f5:	3c 3d                	cmp    al,0x3d
    88f7:	74 2e                	je     8927 <parse_addr_expr+0x25d>
    88f9:	8b 15 89 6d 00 00    	mov    edx,DWORD PTR [rip+0x6d89]        # f688 <line>
    88ff:	48 8b 05 5a 6d 00 00 	mov    rax,QWORD PTR [rip+0x6d5a]        # f660 <stderr@GLIBC_2.2.5>
    8906:	48 8d 0d 73 45 00 00 	lea    rcx,[rip+0x4573]        # ce80 <_IO_stdin_used+0xe80>
    890d:	48 89 ce             	mov    rsi,rcx
    8910:	48 89 c7             	mov    rdi,rax
    8913:	b8 00 00 00 00       	mov    eax,0x0
    8918:	e8 e3 97 ff ff       	call   2100 <fprintf@plt>
    891d:	bf 01 00 00 00       	mov    edi,0x1
    8922:	e8 39 98 ff ff       	call   2160 <exit@plt>
    8927:	48 83 45 f8 01       	add    QWORD PTR [rbp-0x8],0x1
    892c:	c7 45 e8 00 00 00 00 	mov    DWORD PTR [rbp-0x18],0x0
    8933:	eb 1f                	jmp    8954 <parse_addr_expr+0x28a>
    8935:	48 8b 45 f8          	mov    rax,QWORD PTR [rbp-0x8]
    8939:	48 8d 50 01          	lea    rdx,[rax+0x1]
    893d:	48 89 55 f8          	mov    QWORD PTR [rbp-0x8],rdx
    8941:	8b 55 e8             	mov    edx,DWORD PTR [rbp-0x18]
    8944:	8d 4a 01             	lea    ecx,[rdx+0x1]
    8947:	89 4d e8             	mov    DWORD PTR [rbp-0x18],ecx
    894a:	0f b6 08             	movzx  ecx,BYTE PTR [rax]
    894d:	48 63 c2             	movsxd rax,edx
    8950:	88 4c 05 c1          	mov    BYTE PTR [rbp+rax*1-0x3f],cl
    8954:	e8 37 98 ff ff       	call   2190 <__ctype_b_loc@plt>
    8959:	48 8b 10             	mov    rdx,QWORD PTR [rax]
    895c:	48 8b 45 f8          	mov    rax,QWORD PTR [rbp-0x8]
    8960:	0f b6 00             	movzx  eax,BYTE PTR [rax]
    8963:	0f b6 c0             	movzx  eax,al
    8966:	48 01 c0             	add    rax,rax
    8969:	48 01 d0             	add    rax,rdx
    896c:	0f b7 00             	movzx  eax,WORD PTR [rax]
    896f:	0f b7 c0             	movzx  eax,ax
    8972:	25 00 08 00 00       	and    eax,0x800
    8977:	85 c0                	test   eax,eax
    8979:	74 08                	je     8983 <parse_addr_expr+0x2b9>
    897b:	8b 45 e8             	mov    eax,DWORD PTR [rbp-0x18]
    897e:	83 f8 01             	cmp    eax,0x1
    8981:	76 b2                	jbe    8935 <parse_addr_expr+0x26b>
    8983:	8b 45 e8             	mov    eax,DWORD PTR [rbp-0x18]
    8986:	48 98                	cdqe
    8988:	c6 44 05 c1 00       	mov    BYTE PTR [rbp+rax*1-0x3f],0x0
    898d:	48 8b 45 f8          	mov    rax,QWORD PTR [rbp-0x8]
    8991:	0f b6 00             	movzx  eax,BYTE PTR [rax]
    8994:	3c 2c                	cmp    al,0x2c
    8996:	0f 85 0d 01 00 00    	jne    8aa9 <parse_addr_expr+0x3df>
    899c:	48 83 45 f8 01       	add    QWORD PTR [rbp-0x8],0x1
    89a1:	e9 03 01 00 00       	jmp    8aa9 <parse_addr_expr+0x3df>
    89a6:	48 8b 45 f8          	mov    rax,QWORD PTR [rbp-0x8]
    89aa:	0f b6 00             	movzx  eax,BYTE PTR [rax]
    89ad:	3c 64                	cmp    al,0x64
    89af:	74 0f                	je     89c0 <parse_addr_expr+0x2f6>
    89b1:	48 8b 45 f8          	mov    rax,QWORD PTR [rbp-0x8]
    89b5:	0f b6 00             	movzx  eax,BYTE PTR [rax]
    89b8:	3c 44                	cmp    al,0x44
    89ba:	0f 85 b4 00 00 00    	jne    8a74 <parse_addr_expr+0x3aa>
    89c0:	c6 45 f4 01          	mov    BYTE PTR [rbp-0xc],0x1
    89c4:	48 83 45 f8 01       	add    QWORD PTR [rbp-0x8],0x1
    89c9:	48 8b 45 f8          	mov    rax,QWORD PTR [rbp-0x8]
    89cd:	0f b6 00             	movzx  eax,BYTE PTR [rax]
    89d0:	84 c0                	test   al,al
    89d2:	74 0b                	je     89df <parse_addr_expr+0x315>
    89d4:	48 8b 45 f8          	mov    rax,QWORD PTR [rbp-0x8]
    89d8:	0f b6 00             	movzx  eax,BYTE PTR [rax]
    89db:	3c 3d                	cmp    al,0x3d
    89dd:	74 2e                	je     8a0d <parse_addr_expr+0x343>
    89df:	8b 15 a3 6c 00 00    	mov    edx,DWORD PTR [rip+0x6ca3]        # f688 <line>
    89e5:	48 8b 05 74 6c 00 00 	mov    rax,QWORD PTR [rip+0x6c74]        # f660 <stderr@GLIBC_2.2.5>
    89ec:	48 8d 0d 8d 44 00 00 	lea    rcx,[rip+0x448d]        # ce80 <_IO_stdin_used+0xe80>
    89f3:	48 89 ce             	mov    rsi,rcx
    89f6:	48 89 c7             	mov    rdi,rax
    89f9:	b8 00 00 00 00       	mov    eax,0x0
    89fe:	e8 fd 96 ff ff       	call   2100 <fprintf@plt>
    8a03:	bf 01 00 00 00       	mov    edi,0x1
    8a08:	e8 53 97 ff ff       	call   2160 <exit@plt>
    8a0d:	48 83 45 f8 01       	add    QWORD PTR [rbp-0x8],0x1
    8a12:	c7 45 e4 00 00 00 00 	mov    DWORD PTR [rbp-0x1c],0x0
    8a19:	eb 1f                	jmp    8a3a <parse_addr_expr+0x370>
    8a1b:	48 8b 45 f8          	mov    rax,QWORD PTR [rbp-0x8]
    8a1f:	48 8d 50 01          	lea    rdx,[rax+0x1]
    8a23:	48 89 55 f8          	mov    QWORD PTR [rbp-0x8],rdx
    8a27:	8b 55 e4             	mov    edx,DWORD PTR [rbp-0x1c]
    8a2a:	8d 4a 01             	lea    ecx,[rdx+0x1]
    8a2d:	89 4d e4             	mov    DWORD PTR [rbp-0x1c],ecx
    8a30:	0f b6 08             	movzx  ecx,BYTE PTR [rax]
    8a33:	48 63 c2             	movsxd rax,edx
    8a36:	88 4c 05 a0          	mov    BYTE PTR [rbp+rax*1-0x60],cl
    8a3a:	48 8b 45 f8          	mov    rax,QWORD PTR [rbp-0x8]
    8a3e:	0f b6 00             	movzx  eax,BYTE PTR [rax]
    8a41:	84 c0                	test   al,al
    8a43:	74 13                	je     8a58 <parse_addr_expr+0x38e>
    8a45:	48 8b 45 f8          	mov    rax,QWORD PTR [rbp-0x8]
    8a49:	0f b6 00             	movzx  eax,BYTE PTR [rax]
    8a4c:	3c 2c                	cmp    al,0x2c
    8a4e:	74 08                	je     8a58 <parse_addr_expr+0x38e>
    8a50:	8b 45 e4             	mov    eax,DWORD PTR [rbp-0x1c]
    8a53:	83 f8 1e             	cmp    eax,0x1e
    8a56:	76 c3                	jbe    8a1b <parse_addr_expr+0x351>
    8a58:	8b 45 e4             	mov    eax,DWORD PTR [rbp-0x1c]
    8a5b:	48 98                	cdqe
    8a5d:	c6 44 05 a0 00       	mov    BYTE PTR [rbp+rax*1-0x60],0x0
    8a62:	48 8b 45 f8          	mov    rax,QWORD PTR [rbp-0x8]
    8a66:	0f b6 00             	movzx  eax,BYTE PTR [rax]
    8a69:	3c 2c                	cmp    al,0x2c
    8a6b:	75 3c                	jne    8aa9 <parse_addr_expr+0x3df>
    8a6d:	48 83 45 f8 01       	add    QWORD PTR [rbp-0x8],0x1
    8a72:	eb 35                	jmp    8aa9 <parse_addr_expr+0x3df>
    8a74:	48 8b 45 f8          	mov    rax,QWORD PTR [rbp-0x8]
    8a78:	0f b6 00             	movzx  eax,BYTE PTR [rax]
    8a7b:	0f b6 c8             	movzx  ecx,al
    8a7e:	8b 15 04 6c 00 00    	mov    edx,DWORD PTR [rip+0x6c04]        # f688 <line>
    8a84:	48 8b 05 d5 6b 00 00 	mov    rax,QWORD PTR [rip+0x6bd5]        # f660 <stderr@GLIBC_2.2.5>
    8a8b:	48 8d 35 16 44 00 00 	lea    rsi,[rip+0x4416]        # cea8 <_IO_stdin_used+0xea8>
    8a92:	48 89 c7             	mov    rdi,rax
    8a95:	b8 00 00 00 00       	mov    eax,0x0
    8a9a:	e8 61 96 ff ff       	call   2100 <fprintf@plt>
    8a9f:	bf 01 00 00 00       	mov    edi,0x1
    8aa4:	e8 b7 96 ff ff       	call   2160 <exit@plt>
    8aa9:	48 8b 45 f8          	mov    rax,QWORD PTR [rbp-0x8]
    8aad:	0f b6 00             	movzx  eax,BYTE PTR [rax]
    8ab0:	84 c0                	test   al,al
    8ab2:	0f 85 62 fc ff ff    	jne    871a <parse_addr_expr+0x50>
    8ab8:	0f b6 45 f7          	movzx  eax,BYTE PTR [rbp-0x9]
    8abc:	88 45 d4             	mov    BYTE PTR [rbp-0x2c],al
    8abf:	0f b6 45 f6          	movzx  eax,BYTE PTR [rbp-0xa]
    8ac3:	88 45 d5             	mov    BYTE PTR [rbp-0x2b],al
    8ac6:	0f b6 45 f4          	movzx  eax,BYTE PTR [rbp-0xc]
    8aca:	88 45 d6             	mov    BYTE PTR [rbp-0x2a],al
    8acd:	48 8d 45 c1          	lea    rax,[rbp-0x3f]
    8ad1:	48 89 c7             	mov    rdi,rax
    8ad4:	e8 12 9e ff ff       	call   28eb <eval_expr>
    8ad9:	88 45 ce             	mov    BYTE PTR [rbp-0x32],al
    8adc:	48 8d 45 a0          	lea    rax,[rbp-0x60]
    8ae0:	48 89 c7             	mov    rdi,rax
    8ae3:	e8 03 9e ff ff       	call   28eb <eval_expr>
    8ae8:	89 45 d0             	mov    DWORD PTR [rbp-0x30],eax
    8aeb:	80 7d f5 00          	cmp    BYTE PTR [rbp-0xb],0x0
    8aef:	74 36                	je     8b27 <parse_addr_expr+0x45d>
    8af1:	0f b6 45 d5          	movzx  eax,BYTE PTR [rbp-0x2b]
    8af5:	84 c0                	test   al,al
    8af7:	75 2e                	jne    8b27 <parse_addr_expr+0x45d>
    8af9:	8b 15 89 6b 00 00    	mov    edx,DWORD PTR [rip+0x6b89]        # f688 <line>
    8aff:	48 8b 05 5a 6b 00 00 	mov    rax,QWORD PTR [rip+0x6b5a]        # f660 <stderr@GLIBC_2.2.5>
    8b06:	48 8d 0d c3 43 00 00 	lea    rcx,[rip+0x43c3]        # ced0 <_IO_stdin_used+0xed0>
    8b0d:	48 89 ce             	mov    rsi,rcx
    8b10:	48 89 c7             	mov    rdi,rax
    8b13:	b8 00 00 00 00       	mov    eax,0x0
    8b18:	e8 e3 95 ff ff       	call   2100 <fprintf@plt>
    8b1d:	bf 01 00 00 00       	mov    edi,0x1
    8b22:	e8 39 96 ff ff       	call   2160 <exit@plt>
    8b27:	0f b6 45 d5          	movzx  eax,BYTE PTR [rbp-0x2b]
    8b2b:	84 c0                	test   al,al
    8b2d:	74 48                	je     8b77 <parse_addr_expr+0x4ad>
    8b2f:	48 8d 45 c4          	lea    rax,[rbp-0x3c]
    8b33:	48 8d 15 f0 36 00 00 	lea    rdx,[rip+0x36f0]        # c22a <_IO_stdin_used+0x22a>
    8b3a:	48 89 d6             	mov    rsi,rdx
    8b3d:	48 89 c7             	mov    rdi,rax
    8b40:	e8 0b 95 ff ff       	call   2050 <strcasecmp@plt>
    8b45:	85 c0                	test   eax,eax
    8b47:	75 2e                	jne    8b77 <parse_addr_expr+0x4ad>
    8b49:	8b 15 39 6b 00 00    	mov    edx,DWORD PTR [rip+0x6b39]        # f688 <line>
    8b4f:	48 8b 05 0a 6b 00 00 	mov    rax,QWORD PTR [rip+0x6b0a]        # f660 <stderr@GLIBC_2.2.5>
    8b56:	48 8d 0d ab 43 00 00 	lea    rcx,[rip+0x43ab]        # cf08 <_IO_stdin_used+0xf08>
    8b5d:	48 89 ce             	mov    rsi,rcx
    8b60:	48 89 c7             	mov    rdi,rax
    8b63:	b8 00 00 00 00       	mov    eax,0x0
    8b68:	e8 93 95 ff ff       	call   2100 <fprintf@plt>
    8b6d:	bf 01 00 00 00       	mov    edi,0x1
    8b72:	e8 e9 95 ff ff       	call   2160 <exit@plt>
    8b77:	0f b6 45 ce          	movzx  eax,BYTE PTR [rbp-0x32]
    8b7b:	84 c0                	test   al,al
    8b7d:	74 52                	je     8bd1 <parse_addr_expr+0x507>
    8b7f:	0f b6 45 ce          	movzx  eax,BYTE PTR [rbp-0x32]
    8b83:	3c 01                	cmp    al,0x1
    8b85:	74 4a                	je     8bd1 <parse_addr_expr+0x507>
    8b87:	0f b6 45 ce          	movzx  eax,BYTE PTR [rbp-0x32]
    8b8b:	3c 02                	cmp    al,0x2
    8b8d:	74 42                	je     8bd1 <parse_addr_expr+0x507>
    8b8f:	0f b6 45 ce          	movzx  eax,BYTE PTR [rbp-0x32]
    8b93:	3c 04                	cmp    al,0x4
    8b95:	74 3a                	je     8bd1 <parse_addr_expr+0x507>
    8b97:	0f b6 45 ce          	movzx  eax,BYTE PTR [rbp-0x32]
    8b9b:	3c 08                	cmp    al,0x8
    8b9d:	74 32                	je     8bd1 <parse_addr_expr+0x507>
    8b9f:	0f b6 45 ce          	movzx  eax,BYTE PTR [rbp-0x32]
    8ba3:	0f b6 c8             	movzx  ecx,al
    8ba6:	8b 15 dc 6a 00 00    	mov    edx,DWORD PTR [rip+0x6adc]        # f688 <line>
    8bac:	48 8b 05 ad 6a 00 00 	mov    rax,QWORD PTR [rip+0x6aad]        # f660 <stderr@GLIBC_2.2.5>
    8bb3:	48 8d 35 86 43 00 00 	lea    rsi,[rip+0x4386]        # cf40 <_IO_stdin_used+0xf40>
    8bba:	48 89 c7             	mov    rdi,rax
    8bbd:	b8 00 00 00 00       	mov    eax,0x0
    8bc2:	e8 39 95 ff ff       	call   2100 <fprintf@plt>
    8bc7:	bf 01 00 00 00       	mov    edi,0x1
    8bcc:	e8 8f 95 ff ff       	call   2160 <exit@plt>
    8bd1:	0f b6 45 d4          	movzx  eax,BYTE PTR [rbp-0x2c]
    8bd5:	84 c0                	test   al,al
    8bd7:	75 47                	jne    8c20 <parse_addr_expr+0x556>
    8bd9:	0f b6 45 d5          	movzx  eax,BYTE PTR [rbp-0x2b]
    8bdd:	84 c0                	test   al,al
    8bdf:	75 3f                	jne    8c20 <parse_addr_expr+0x556>
    8be1:	48 8d 45 a0          	lea    rax,[rbp-0x60]
    8be5:	48 89 c7             	mov    rdi,rax
    8be8:	e8 fe 9c ff ff       	call   28eb <eval_expr>
    8bed:	48 85 c0             	test   rax,rax
    8bf0:	75 2e                	jne    8c20 <parse_addr_expr+0x556>
    8bf2:	8b 15 90 6a 00 00    	mov    edx,DWORD PTR [rip+0x6a90]        # f688 <line>
    8bf8:	48 8b 05 61 6a 00 00 	mov    rax,QWORD PTR [rip+0x6a61]        # f660 <stderr@GLIBC_2.2.5>
    8bff:	48 8d 0d 7a 43 00 00 	lea    rcx,[rip+0x437a]        # cf80 <_IO_stdin_used+0xf80>
    8c06:	48 89 ce             	mov    rsi,rcx
    8c09:	48 89 c7             	mov    rdi,rax
    8c0c:	b8 00 00 00 00       	mov    eax,0x0
    8c11:	e8 ea 94 ff ff       	call   2100 <fprintf@plt>
    8c16:	bf 01 00 00 00       	mov    edi,0x1
    8c1b:	e8 40 95 ff ff       	call   2160 <exit@plt>
    8c20:	0f b6 45 d4          	movzx  eax,BYTE PTR [rbp-0x2c]
    8c24:	84 c0                	test   al,al
    8c26:	74 0c                	je     8c34 <parse_addr_expr+0x56a>
    8c28:	48 8d 45 c8          	lea    rax,[rbp-0x38]
    8c2c:	48 89 c7             	mov    rdi,rax
    8c2f:	e8 26 f8 ff ff       	call   845a <find_reg64_index>
    8c34:	0f b6 45 d5          	movzx  eax,BYTE PTR [rbp-0x2b]
    8c38:	84 c0                	test   al,al
    8c3a:	74 0c                	je     8c48 <parse_addr_expr+0x57e>
    8c3c:	48 8d 45 c4          	lea    rax,[rbp-0x3c]
    8c40:	48 89 c7             	mov    rdi,rax
    8c43:	e8 12 f8 ff ff       	call   845a <find_reg64_index>
    8c48:	48 8d 45 c8          	lea    rax,[rbp-0x38]
    8c4c:	48 89 c7             	mov    rdi,rax
    8c4f:	e8 06 f8 ff ff       	call   845a <find_reg64_index>
    8c54:	88 45 cc             	mov    BYTE PTR [rbp-0x34],al
    8c57:	0f b6 45 d5          	movzx  eax,BYTE PTR [rbp-0x2b]
    8c5b:	84 c0                	test   al,al
    8c5d:	74 0e                	je     8c6d <parse_addr_expr+0x5a3>
    8c5f:	48 8d 45 c4          	lea    rax,[rbp-0x3c]
    8c63:	48 89 c7             	mov    rdi,rax
    8c66:	e8 ef f7 ff ff       	call   845a <find_reg64_index>
    8c6b:	eb 05                	jmp    8c72 <parse_addr_expr+0x5a8>
    8c6d:	b8 04 00 00 00       	mov    eax,0x4
    8c72:	88 45 cd             	mov    BYTE PTR [rbp-0x33],al
    8c75:	48 8b 45 cc          	mov    rax,QWORD PTR [rbp-0x34]
    8c79:	48 89 45 d8          	mov    QWORD PTR [rbp-0x28],rax
    8c7d:	8b 45 d4             	mov    eax,DWORD PTR [rbp-0x2c]
    8c80:	89 45 e0             	mov    DWORD PTR [rbp-0x20],eax
    8c83:	48 8b 45 d8          	mov    rax,QWORD PTR [rbp-0x28]
    8c87:	8b 4d e0             	mov    ecx,DWORD PTR [rbp-0x20]
    8c8a:	48 89 ca             	mov    rdx,rcx
    8c8d:	c9                   	leave
    8c8e:	c3                   	ret

0000000000008c8f <encode_mov_reg_imm>:
encode_mov_reg_imm():
    8c8f:	55                   	push   rbp
    8c90:	48 89 e5             	mov    rbp,rsp
    8c93:	48 83 ec 28          	sub    rsp,0x28
    8c97:	48 89 7d e8          	mov    QWORD PTR [rbp-0x18],rdi
    8c9b:	48 89 55 d8          	mov    QWORD PTR [rbp-0x28],rdx
    8c9f:	89 c8                	mov    eax,ecx
    8ca1:	89 f2                	mov    edx,esi
    8ca3:	88 55 e4             	mov    BYTE PTR [rbp-0x1c],dl
    8ca6:	88 45 e0             	mov    BYTE PTR [rbp-0x20],al
    8ca9:	c6 45 fb 66          	mov    BYTE PTR [rbp-0x5],0x66
    8cad:	c6 45 ff 00          	mov    BYTE PTR [rbp-0x1],0x0
    8cb1:	c6 45 fe 00          	mov    BYTE PTR [rbp-0x2],0x0
    8cb5:	c6 45 fd 00          	mov    BYTE PTR [rbp-0x3],0x0
    8cb9:	0f b6 45 e4          	movzx  eax,BYTE PTR [rbp-0x1c]
    8cbd:	88 45 fc             	mov    BYTE PTR [rbp-0x4],al
    8cc0:	80 7d e4 07          	cmp    BYTE PTR [rbp-0x1c],0x7
    8cc4:	76 08                	jbe    8cce <encode_mov_reg_imm+0x3f>
    8cc6:	c6 45 ff 41          	mov    BYTE PTR [rbp-0x1],0x41
    8cca:	80 6d fc 08          	sub    BYTE PTR [rbp-0x4],0x8
    8cce:	80 7d e0 08          	cmp    BYTE PTR [rbp-0x20],0x8
    8cd2:	75 16                	jne    8cea <encode_mov_reg_imm+0x5b>
    8cd4:	c6 45 fe b0          	mov    BYTE PTR [rbp-0x2],0xb0
    8cd8:	80 7d e4 03          	cmp    BYTE PTR [rbp-0x1c],0x3
    8cdc:	76 4c                	jbe    8d2a <encode_mov_reg_imm+0x9b>
    8cde:	80 7d e4 07          	cmp    BYTE PTR [rbp-0x1c],0x7
    8ce2:	77 46                	ja     8d2a <encode_mov_reg_imm+0x9b>
    8ce4:	80 4d ff 40          	or     BYTE PTR [rbp-0x1],0x40
    8ce8:	eb 40                	jmp    8d2a <encode_mov_reg_imm+0x9b>
    8cea:	80 7d e0 10          	cmp    BYTE PTR [rbp-0x20],0x10
    8cee:	75 20                	jne    8d10 <encode_mov_reg_imm+0x81>
    8cf0:	c6 45 fe b8          	mov    BYTE PTR [rbp-0x2],0xb8
    8cf4:	0f b6 45 fd          	movzx  eax,BYTE PTR [rbp-0x3]
    8cf8:	8d 50 01             	lea    edx,[rax+0x1]
    8cfb:	88 55 fd             	mov    BYTE PTR [rbp-0x3],dl
    8cfe:	0f b6 d0             	movzx  edx,al
    8d01:	48 8b 45 e8          	mov    rax,QWORD PTR [rbp-0x18]
    8d05:	48 01 c2             	add    rdx,rax
    8d08:	0f b6 45 fb          	movzx  eax,BYTE PTR [rbp-0x5]
    8d0c:	88 02                	mov    BYTE PTR [rdx],al
    8d0e:	eb 1a                	jmp    8d2a <encode_mov_reg_imm+0x9b>
    8d10:	80 7d e0 20          	cmp    BYTE PTR [rbp-0x20],0x20
    8d14:	75 06                	jne    8d1c <encode_mov_reg_imm+0x8d>
    8d16:	c6 45 fe b8          	mov    BYTE PTR [rbp-0x2],0xb8
    8d1a:	eb 0e                	jmp    8d2a <encode_mov_reg_imm+0x9b>
    8d1c:	80 7d e0 40          	cmp    BYTE PTR [rbp-0x20],0x40
    8d20:	75 08                	jne    8d2a <encode_mov_reg_imm+0x9b>
    8d22:	80 4d ff 48          	or     BYTE PTR [rbp-0x1],0x48
    8d26:	c6 45 fe b8          	mov    BYTE PTR [rbp-0x2],0xb8
    8d2a:	0f b6 45 fc          	movzx  eax,BYTE PTR [rbp-0x4]
    8d2e:	00 45 fe             	add    BYTE PTR [rbp-0x2],al
    8d31:	80 7d ff 00          	cmp    BYTE PTR [rbp-0x1],0x0
    8d35:	74 1a                	je     8d51 <encode_mov_reg_imm+0xc2>
    8d37:	0f b6 45 fd          	movzx  eax,BYTE PTR [rbp-0x3]
    8d3b:	8d 50 01             	lea    edx,[rax+0x1]
    8d3e:	88 55 fd             	mov    BYTE PTR [rbp-0x3],dl
    8d41:	0f b6 d0             	movzx  edx,al
    8d44:	48 8b 45 e8          	mov    rax,QWORD PTR [rbp-0x18]
    8d48:	48 01 c2             	add    rdx,rax
    8d4b:	0f b6 45 ff          	movzx  eax,BYTE PTR [rbp-0x1]
    8d4f:	88 02                	mov    BYTE PTR [rdx],al
    8d51:	0f b6 45 fd          	movzx  eax,BYTE PTR [rbp-0x3]
    8d55:	8d 50 01             	lea    edx,[rax+0x1]
    8d58:	88 55 fd             	mov    BYTE PTR [rbp-0x3],dl
    8d5b:	0f b6 d0             	movzx  edx,al
    8d5e:	48 8b 45 e8          	mov    rax,QWORD PTR [rbp-0x18]
    8d62:	48 01 c2             	add    rdx,rax
    8d65:	0f b6 45 fe          	movzx  eax,BYTE PTR [rbp-0x2]
    8d69:	88 02                	mov    BYTE PTR [rdx],al
    8d6b:	0f b6 45 e0          	movzx  eax,BYTE PTR [rbp-0x20]
    8d6f:	83 f8 40             	cmp    eax,0x40
    8d72:	0f 84 80 00 00 00    	je     8df8 <encode_mov_reg_imm+0x169>
    8d78:	83 f8 40             	cmp    eax,0x40
    8d7b:	0f 8f 96 00 00 00    	jg     8e17 <encode_mov_reg_imm+0x188>
    8d81:	83 f8 20             	cmp    eax,0x20
    8d84:	74 53                	je     8dd9 <encode_mov_reg_imm+0x14a>
    8d86:	83 f8 20             	cmp    eax,0x20
    8d89:	0f 8f 88 00 00 00    	jg     8e17 <encode_mov_reg_imm+0x188>
    8d8f:	83 f8 08             	cmp    eax,0x8
    8d92:	74 07                	je     8d9b <encode_mov_reg_imm+0x10c>
    8d94:	83 f8 10             	cmp    eax,0x10
    8d97:	74 1e                	je     8db7 <encode_mov_reg_imm+0x128>
    8d99:	eb 7c                	jmp    8e17 <encode_mov_reg_imm+0x188>
    8d9b:	0f b6 45 fd          	movzx  eax,BYTE PTR [rbp-0x3]
    8d9f:	8d 50 01             	lea    edx,[rax+0x1]
    8da2:	88 55 fd             	mov    BYTE PTR [rbp-0x3],dl
    8da5:	0f b6 d0             	movzx  edx,al
    8da8:	48 8b 45 e8          	mov    rax,QWORD PTR [rbp-0x18]
    8dac:	48 01 d0             	add    rax,rdx
    8daf:	48 8b 55 d8          	mov    rdx,QWORD PTR [rbp-0x28]
    8db3:	88 10                	mov    BYTE PTR [rax],dl
    8db5:	eb 60                	jmp    8e17 <encode_mov_reg_imm+0x188>
    8db7:	0f b6 55 fd          	movzx  edx,BYTE PTR [rbp-0x3]
    8dbb:	48 8b 45 e8          	mov    rax,QWORD PTR [rbp-0x18]
    8dbf:	48 01 c2             	add    rdx,rax
    8dc2:	48 8b 45 d8          	mov    rax,QWORD PTR [rbp-0x28]
    8dc6:	0f b7 c0             	movzx  eax,ax
    8dc9:	48 89 d6             	mov    rsi,rdx
    8dcc:	89 c7                	mov    edi,eax
    8dce:	e8 8b a3 ff ff       	call   315e <As16>
    8dd3:	80 45 fd 02          	add    BYTE PTR [rbp-0x3],0x2
    8dd7:	eb 3e                	jmp    8e17 <encode_mov_reg_imm+0x188>
    8dd9:	0f b6 55 fd          	movzx  edx,BYTE PTR [rbp-0x3]
    8ddd:	48 8b 45 e8          	mov    rax,QWORD PTR [rbp-0x18]
    8de1:	48 01 d0             	add    rax,rdx
    8de4:	48 8b 55 d8          	mov    rdx,QWORD PTR [rbp-0x28]
    8de8:	48 89 c6             	mov    rsi,rax
    8deb:	89 d7                	mov    edi,edx
    8ded:	e8 9d a3 ff ff       	call   318f <As32>
    8df2:	80 45 fd 04          	add    BYTE PTR [rbp-0x3],0x4
    8df6:	eb 1f                	jmp    8e17 <encode_mov_reg_imm+0x188>
    8df8:	0f b6 55 fd          	movzx  edx,BYTE PTR [rbp-0x3]
    8dfc:	48 8b 45 e8          	mov    rax,QWORD PTR [rbp-0x18]
    8e00:	48 01 c2             	add    rdx,rax
    8e03:	48 8b 45 d8          	mov    rax,QWORD PTR [rbp-0x28]
    8e07:	48 89 d6             	mov    rsi,rdx
    8e0a:	48 89 c7             	mov    rdi,rax
    8e0d:	e8 cc a3 ff ff       	call   31de <As64>
    8e12:	80 45 fd 08          	add    BYTE PTR [rbp-0x3],0x8
    8e16:	90                   	nop
    8e17:	0f b6 45 fd          	movzx  eax,BYTE PTR [rbp-0x3]
    8e1b:	c9                   	leave
    8e1c:	c3                   	ret

0000000000008e1d <encode_mov_reg_reg>:
encode_mov_reg_reg():
    8e1d:	55                   	push   rbp
    8e1e:	48 89 e5             	mov    rbp,rsp
    8e21:	48 89 7d e8          	mov    QWORD PTR [rbp-0x18],rdi
    8e25:	89 c8                	mov    eax,ecx
    8e27:	89 f1                	mov    ecx,esi
    8e29:	88 4d e4             	mov    BYTE PTR [rbp-0x1c],cl
    8e2c:	88 55 e0             	mov    BYTE PTR [rbp-0x20],dl
    8e2f:	88 45 dc             	mov    BYTE PTR [rbp-0x24],al
    8e32:	c6 45 fa 66          	mov    BYTE PTR [rbp-0x6],0x66
    8e36:	c6 45 ff 00          	mov    BYTE PTR [rbp-0x1],0x0
    8e3a:	c6 45 fe 00          	mov    BYTE PTR [rbp-0x2],0x0
    8e3e:	c6 45 f9 00          	mov    BYTE PTR [rbp-0x7],0x0
    8e42:	c6 45 fd 00          	mov    BYTE PTR [rbp-0x3],0x0
    8e46:	0f b6 45 e4          	movzx  eax,BYTE PTR [rbp-0x1c]
    8e4a:	88 45 fc             	mov    BYTE PTR [rbp-0x4],al
    8e4d:	0f b6 45 e0          	movzx  eax,BYTE PTR [rbp-0x20]
    8e51:	88 45 fb             	mov    BYTE PTR [rbp-0x5],al
    8e54:	80 7d e4 07          	cmp    BYTE PTR [rbp-0x1c],0x7
    8e58:	76 08                	jbe    8e62 <encode_mov_reg_reg+0x45>
    8e5a:	80 4d ff 01          	or     BYTE PTR [rbp-0x1],0x1
    8e5e:	80 6d fc 08          	sub    BYTE PTR [rbp-0x4],0x8
    8e62:	80 7d e0 07          	cmp    BYTE PTR [rbp-0x20],0x7
    8e66:	76 08                	jbe    8e70 <encode_mov_reg_reg+0x53>
    8e68:	80 4d ff 04          	or     BYTE PTR [rbp-0x1],0x4
    8e6c:	80 6d fb 08          	sub    BYTE PTR [rbp-0x5],0x8
    8e70:	0f b6 45 dc          	movzx  eax,BYTE PTR [rbp-0x24]
    8e74:	83 f8 40             	cmp    eax,0x40
    8e77:	74 63                	je     8edc <encode_mov_reg_reg+0xbf>
    8e79:	83 f8 40             	cmp    eax,0x40
    8e7c:	7f 69                	jg     8ee7 <encode_mov_reg_reg+0xca>
    8e7e:	83 f8 20             	cmp    eax,0x20
    8e81:	74 53                	je     8ed6 <encode_mov_reg_reg+0xb9>
    8e83:	83 f8 20             	cmp    eax,0x20
    8e86:	7f 5f                	jg     8ee7 <encode_mov_reg_reg+0xca>
    8e88:	83 f8 08             	cmp    eax,0x8
    8e8b:	74 07                	je     8e94 <encode_mov_reg_reg+0x77>
    8e8d:	83 f8 10             	cmp    eax,0x10
    8e90:	74 24                	je     8eb6 <encode_mov_reg_reg+0x99>
    8e92:	eb 53                	jmp    8ee7 <encode_mov_reg_reg+0xca>
    8e94:	c6 45 fe 88          	mov    BYTE PTR [rbp-0x2],0x88
    8e98:	80 7d e4 03          	cmp    BYTE PTR [rbp-0x1c],0x3
    8e9c:	76 06                	jbe    8ea4 <encode_mov_reg_reg+0x87>
    8e9e:	80 7d e4 07          	cmp    BYTE PTR [rbp-0x1c],0x7
    8ea2:	76 0c                	jbe    8eb0 <encode_mov_reg_reg+0x93>
    8ea4:	80 7d e0 03          	cmp    BYTE PTR [rbp-0x20],0x3
    8ea8:	76 3c                	jbe    8ee6 <encode_mov_reg_reg+0xc9>
    8eaa:	80 7d e0 07          	cmp    BYTE PTR [rbp-0x20],0x7
    8eae:	77 36                	ja     8ee6 <encode_mov_reg_reg+0xc9>
    8eb0:	80 4d ff 40          	or     BYTE PTR [rbp-0x1],0x40
    8eb4:	eb 30                	jmp    8ee6 <encode_mov_reg_reg+0xc9>
    8eb6:	c6 45 fe 89          	mov    BYTE PTR [rbp-0x2],0x89
    8eba:	0f b6 45 fd          	movzx  eax,BYTE PTR [rbp-0x3]
    8ebe:	8d 50 01             	lea    edx,[rax+0x1]
    8ec1:	88 55 fd             	mov    BYTE PTR [rbp-0x3],dl
    8ec4:	0f b6 d0             	movzx  edx,al
    8ec7:	48 8b 45 e8          	mov    rax,QWORD PTR [rbp-0x18]
    8ecb:	48 01 c2             	add    rdx,rax
    8ece:	0f b6 45 fa          	movzx  eax,BYTE PTR [rbp-0x6]
    8ed2:	88 02                	mov    BYTE PTR [rdx],al
    8ed4:	eb 11                	jmp    8ee7 <encode_mov_reg_reg+0xca>
    8ed6:	c6 45 fe 89          	mov    BYTE PTR [rbp-0x2],0x89
    8eda:	eb 0b                	jmp    8ee7 <encode_mov_reg_reg+0xca>
    8edc:	c6 45 fe 89          	mov    BYTE PTR [rbp-0x2],0x89
    8ee0:	80 4d ff 48          	or     BYTE PTR [rbp-0x1],0x48
    8ee4:	eb 01                	jmp    8ee7 <encode_mov_reg_reg+0xca>
    8ee6:	90                   	nop
    8ee7:	80 7d ff 00          	cmp    BYTE PTR [rbp-0x1],0x0
    8eeb:	74 1a                	je     8f07 <encode_mov_reg_reg+0xea>
    8eed:	0f b6 45 fd          	movzx  eax,BYTE PTR [rbp-0x3]
    8ef1:	8d 50 01             	lea    edx,[rax+0x1]
    8ef4:	88 55 fd             	mov    BYTE PTR [rbp-0x3],dl
    8ef7:	0f b6 d0             	movzx  edx,al
    8efa:	48 8b 45 e8          	mov    rax,QWORD PTR [rbp-0x18]
    8efe:	48 01 c2             	add    rdx,rax
    8f01:	0f b6 45 ff          	movzx  eax,BYTE PTR [rbp-0x1]
    8f05:	88 02                	mov    BYTE PTR [rdx],al
    8f07:	0f b6 45 fd          	movzx  eax,BYTE PTR [rbp-0x3]
    8f0b:	8d 50 01             	lea    edx,[rax+0x1]
    8f0e:	88 55 fd             	mov    BYTE PTR [rbp-0x3],dl
    8f11:	0f b6 d0             	movzx  edx,al
    8f14:	48 8b 45 e8          	mov    rax,QWORD PTR [rbp-0x18]
    8f18:	48 01 c2             	add    rdx,rax
    8f1b:	0f b6 45 fe          	movzx  eax,BYTE PTR [rbp-0x2]
    8f1f:	88 02                	mov    BYTE PTR [rdx],al
    8f21:	0f b6 45 fb          	movzx  eax,BYTE PTR [rbp-0x5]
    8f25:	c1 e0 03             	shl    eax,0x3
    8f28:	83 e0 38             	and    eax,0x38
    8f2b:	83 c8 c0             	or     eax,0xffffffc0
    8f2e:	89 c2                	mov    edx,eax
    8f30:	0f b6 45 fc          	movzx  eax,BYTE PTR [rbp-0x4]
    8f34:	83 e0 07             	and    eax,0x7
    8f37:	89 d1                	mov    ecx,edx
    8f39:	09 c1                	or     ecx,eax
    8f3b:	0f b6 45 fd          	movzx  eax,BYTE PTR [rbp-0x3]
    8f3f:	8d 50 01             	lea    edx,[rax+0x1]
    8f42:	88 55 fd             	mov    BYTE PTR [rbp-0x3],dl
    8f45:	0f b6 d0             	movzx  edx,al
    8f48:	48 8b 45 e8          	mov    rax,QWORD PTR [rbp-0x18]
    8f4c:	48 01 d0             	add    rax,rdx
    8f4f:	89 ca                	mov    edx,ecx
    8f51:	88 10                	mov    BYTE PTR [rax],dl
    8f53:	0f b6 45 fd          	movzx  eax,BYTE PTR [rbp-0x3]
    8f57:	5d                   	pop    rbp
    8f58:	c3                   	ret

0000000000008f59 <encode_mov_rm_rm>:
encode_mov_rm_rm():
    8f59:	55                   	push   rbp
    8f5a:	48 89 e5             	mov    rbp,rsp
    8f5d:	48 83 ec 40          	sub    rsp,0x40
    8f61:	48 89 7d d8          	mov    QWORD PTR [rbp-0x28],rdi
    8f65:	48 89 55 c8          	mov    QWORD PTR [rbp-0x38],rdx
    8f69:	89 c8                	mov    eax,ecx
    8f6b:	44 89 c1             	mov    ecx,r8d
    8f6e:	89 f2                	mov    edx,esi
    8f70:	88 55 d4             	mov    BYTE PTR [rbp-0x2c],dl
    8f73:	88 45 d0             	mov    BYTE PTR [rbp-0x30],al
    8f76:	89 c8                	mov    eax,ecx
    8f78:	88 45 c4             	mov    BYTE PTR [rbp-0x3c],al
    8f7b:	c6 45 f3 66          	mov    BYTE PTR [rbp-0xd],0x66
    8f7f:	c6 45 ff 00          	mov    BYTE PTR [rbp-0x1],0x0
    8f83:	c6 45 fe 00          	mov    BYTE PTR [rbp-0x2],0x0
    8f87:	c6 45 fd 00          	mov    BYTE PTR [rbp-0x3],0x0
    8f8b:	c6 45 fc 00          	mov    BYTE PTR [rbp-0x4],0x0
    8f8f:	c6 45 fb 00          	mov    BYTE PTR [rbp-0x5],0x0
    8f93:	c7 45 f4 00 00 00 00 	mov    DWORD PTR [rbp-0xc],0x0
    8f9a:	48 8b 45 c8          	mov    rax,QWORD PTR [rbp-0x38]
    8f9e:	48 89 c7             	mov    rdi,rax
    8fa1:	e8 24 f7 ff ff       	call   86ca <parse_addr_expr>
    8fa6:	48 89 45 e4          	mov    QWORD PTR [rbp-0x1c],rax
    8faa:	8b 45 ec             	mov    eax,DWORD PTR [rbp-0x14]
    8fad:	83 e0 00             	and    eax,0x0
    8fb0:	09 d0                	or     eax,edx
    8fb2:	89 45 ec             	mov    DWORD PTR [rbp-0x14],eax
    8fb5:	0f b6 45 e4          	movzx  eax,BYTE PTR [rbp-0x1c]
    8fb9:	88 45 f2             	mov    BYTE PTR [rbp-0xe],al
    8fbc:	0f b6 45 e5          	movzx  eax,BYTE PTR [rbp-0x1b]
    8fc0:	88 45 f1             	mov    BYTE PTR [rbp-0xf],al
    8fc3:	c6 45 f0 00          	mov    BYTE PTR [rbp-0x10],0x0
    8fc7:	0f b6 45 d0          	movzx  eax,BYTE PTR [rbp-0x30]
    8fcb:	83 f8 40             	cmp    eax,0x40
    8fce:	74 1b                	je     8feb <encode_mov_rm_rm+0x92>
    8fd0:	83 f8 40             	cmp    eax,0x40
    8fd3:	7f 3b                	jg     9010 <encode_mov_rm_rm+0xb7>
    8fd5:	83 f8 20             	cmp    eax,0x20
    8fd8:	74 32                	je     900c <encode_mov_rm_rm+0xb3>
    8fda:	83 f8 20             	cmp    eax,0x20
    8fdd:	7f 31                	jg     9010 <encode_mov_rm_rm+0xb7>
    8fdf:	83 f8 08             	cmp    eax,0x8
    8fe2:	74 2b                	je     900f <encode_mov_rm_rm+0xb6>
    8fe4:	83 f8 10             	cmp    eax,0x10
    8fe7:	74 08                	je     8ff1 <encode_mov_rm_rm+0x98>
    8fe9:	eb 25                	jmp    9010 <encode_mov_rm_rm+0xb7>
    8feb:	80 4d ff 48          	or     BYTE PTR [rbp-0x1],0x48
    8fef:	eb 1f                	jmp    9010 <encode_mov_rm_rm+0xb7>
    8ff1:	8b 45 f4             	mov    eax,DWORD PTR [rbp-0xc]
    8ff4:	8d 50 01             	lea    edx,[rax+0x1]
    8ff7:	89 55 f4             	mov    DWORD PTR [rbp-0xc],edx
    8ffa:	48 63 d0             	movsxd rdx,eax
    8ffd:	48 8b 45 d8          	mov    rax,QWORD PTR [rbp-0x28]
    9001:	48 01 c2             	add    rdx,rax
    9004:	0f b6 45 f3          	movzx  eax,BYTE PTR [rbp-0xd]
    9008:	88 02                	mov    BYTE PTR [rdx],al
    900a:	eb 04                	jmp    9010 <encode_mov_rm_rm+0xb7>
    900c:	90                   	nop
    900d:	eb 01                	jmp    9010 <encode_mov_rm_rm+0xb7>
    900f:	90                   	nop
    9010:	0f b6 45 e6          	movzx  eax,BYTE PTR [rbp-0x1a]
    9014:	0f b6 c0             	movzx  eax,al
    9017:	83 f8 08             	cmp    eax,0x8
    901a:	74 2d                	je     9049 <encode_mov_rm_rm+0xf0>
    901c:	83 f8 08             	cmp    eax,0x8
    901f:	7f 2d                	jg     904e <encode_mov_rm_rm+0xf5>
    9021:	83 f8 04             	cmp    eax,0x4
    9024:	74 1d                	je     9043 <encode_mov_rm_rm+0xea>
    9026:	83 f8 04             	cmp    eax,0x4
    9029:	7f 23                	jg     904e <encode_mov_rm_rm+0xf5>
    902b:	83 f8 01             	cmp    eax,0x1
    902e:	74 07                	je     9037 <encode_mov_rm_rm+0xde>
    9030:	83 f8 02             	cmp    eax,0x2
    9033:	74 08                	je     903d <encode_mov_rm_rm+0xe4>
    9035:	eb 17                	jmp    904e <encode_mov_rm_rm+0xf5>
    9037:	c6 45 f0 00          	mov    BYTE PTR [rbp-0x10],0x0
    903b:	eb 11                	jmp    904e <encode_mov_rm_rm+0xf5>
    903d:	c6 45 f0 01          	mov    BYTE PTR [rbp-0x10],0x1
    9041:	eb 0b                	jmp    904e <encode_mov_rm_rm+0xf5>
    9043:	c6 45 f0 02          	mov    BYTE PTR [rbp-0x10],0x2
    9047:	eb 05                	jmp    904e <encode_mov_rm_rm+0xf5>
    9049:	c6 45 f0 03          	mov    BYTE PTR [rbp-0x10],0x3
    904d:	90                   	nop
    904e:	80 7d d4 07          	cmp    BYTE PTR [rbp-0x2c],0x7
    9052:	76 04                	jbe    9058 <encode_mov_rm_rm+0xff>
    9054:	80 4d ff 04          	or     BYTE PTR [rbp-0x1],0x4
    9058:	80 7d f2 07          	cmp    BYTE PTR [rbp-0xe],0x7
    905c:	76 04                	jbe    9062 <encode_mov_rm_rm+0x109>
    905e:	80 4d ff 01          	or     BYTE PTR [rbp-0x1],0x1
    9062:	80 7d f1 07          	cmp    BYTE PTR [rbp-0xf],0x7
    9066:	76 04                	jbe    906c <encode_mov_rm_rm+0x113>
    9068:	80 4d ff 02          	or     BYTE PTR [rbp-0x1],0x2
    906c:	0f b6 45 ee          	movzx  eax,BYTE PTR [rbp-0x12]
    9070:	84 c0                	test   al,al
    9072:	74 0b                	je     907f <encode_mov_rm_rm+0x126>
    9074:	8b 45 e8             	mov    eax,DWORD PTR [rbp-0x18]
    9077:	85 c0                	test   eax,eax
    9079:	75 04                	jne    907f <encode_mov_rm_rm+0x126>
    907b:	c6 45 ee 00          	mov    BYTE PTR [rbp-0x12],0x0
    907f:	0f b6 45 ee          	movzx  eax,BYTE PTR [rbp-0x12]
    9083:	84 c0                	test   al,al
    9085:	75 0a                	jne    9091 <encode_mov_rm_rm+0x138>
    9087:	c6 45 fa 00          	mov    BYTE PTR [rbp-0x6],0x0
    908b:	c6 45 ee 00          	mov    BYTE PTR [rbp-0x12],0x0
    908f:	eb 2c                	jmp    90bd <encode_mov_rm_rm+0x164>
    9091:	8b 45 e8             	mov    eax,DWORD PTR [rbp-0x18]
    9094:	3d 7f ff ff ff       	cmp    eax,0xffffff7f
    9099:	76 16                	jbe    90b1 <encode_mov_rm_rm+0x158>
    909b:	8b 45 e8             	mov    eax,DWORD PTR [rbp-0x18]
    909e:	83 f8 7f             	cmp    eax,0x7f
    90a1:	77 0e                	ja     90b1 <encode_mov_rm_rm+0x158>
    90a3:	c6 45 fa 01          	mov    BYTE PTR [rbp-0x6],0x1
    90a7:	c6 45 ee 01          	mov    BYTE PTR [rbp-0x12],0x1
    90ab:	c6 45 fb 01          	mov    BYTE PTR [rbp-0x5],0x1
    90af:	eb 0c                	jmp    90bd <encode_mov_rm_rm+0x164>
    90b1:	c6 45 fa 02          	mov    BYTE PTR [rbp-0x6],0x2
    90b5:	c6 45 ee 01          	mov    BYTE PTR [rbp-0x12],0x1
    90b9:	c6 45 fb 04          	mov    BYTE PTR [rbp-0x5],0x4
    90bd:	80 7d f2 04          	cmp    BYTE PTR [rbp-0xe],0x4
    90c1:	75 2b                	jne    90ee <encode_mov_rm_rm+0x195>
    90c3:	0f b6 45 fa          	movzx  eax,BYTE PTR [rbp-0x6]
    90c7:	c1 e0 06             	shl    eax,0x6
    90ca:	83 e0 c0             	and    eax,0xffffffc0
    90cd:	89 c2                	mov    edx,eax
    90cf:	0f b6 45 d4          	movzx  eax,BYTE PTR [rbp-0x2c]
    90d3:	c1 e0 03             	shl    eax,0x3
    90d6:	83 e0 38             	and    eax,0x38
    90d9:	09 d0                	or     eax,edx
    90db:	83 c8 04             	or     eax,0x4
    90de:	88 45 fe             	mov    BYTE PTR [rbp-0x2],al
    90e1:	c6 45 fd 04          	mov    BYTE PTR [rbp-0x3],0x4
    90e5:	c6 45 fc 01          	mov    BYTE PTR [rbp-0x4],0x1
    90e9:	e9 69 01 00 00       	jmp    9257 <encode_mov_rm_rm+0x2fe>
    90ee:	80 7d f2 05          	cmp    BYTE PTR [rbp-0xe],0x5
    90f2:	75 44                	jne    9138 <encode_mov_rm_rm+0x1df>
    90f4:	c6 45 fa 01          	mov    BYTE PTR [rbp-0x6],0x1
    90f8:	0f b6 45 ee          	movzx  eax,BYTE PTR [rbp-0x12]
    90fc:	84 c0                	test   al,al
    90fe:	74 05                	je     9105 <encode_mov_rm_rm+0x1ac>
    9100:	8b 45 e8             	mov    eax,DWORD PTR [rbp-0x18]
    9103:	eb 05                	jmp    910a <encode_mov_rm_rm+0x1b1>
    9105:	b8 00 00 00 00       	mov    eax,0x0
    910a:	89 45 e8             	mov    DWORD PTR [rbp-0x18],eax
    910d:	c6 45 fb 01          	mov    BYTE PTR [rbp-0x5],0x1
    9111:	c6 45 ee 01          	mov    BYTE PTR [rbp-0x12],0x1
    9115:	0f b6 45 fa          	movzx  eax,BYTE PTR [rbp-0x6]
    9119:	c1 e0 06             	shl    eax,0x6
    911c:	83 e0 c0             	and    eax,0xffffffc0
    911f:	89 c2                	mov    edx,eax
    9121:	0f b6 45 d4          	movzx  eax,BYTE PTR [rbp-0x2c]
    9125:	c1 e0 03             	shl    eax,0x3
    9128:	83 e0 38             	and    eax,0x38
    912b:	09 d0                	or     eax,edx
    912d:	83 c8 05             	or     eax,0x5
    9130:	88 45 fe             	mov    BYTE PTR [rbp-0x2],al
    9133:	e9 1f 01 00 00       	jmp    9257 <encode_mov_rm_rm+0x2fe>
    9138:	0f b6 45 ed          	movzx  eax,BYTE PTR [rbp-0x13]
    913c:	84 c0                	test   al,al
    913e:	0f 84 a9 00 00 00    	je     91ed <encode_mov_rm_rm+0x294>
    9144:	0f b6 45 fa          	movzx  eax,BYTE PTR [rbp-0x6]
    9148:	c1 e0 06             	shl    eax,0x6
    914b:	83 e0 c0             	and    eax,0xffffffc0
    914e:	89 c2                	mov    edx,eax
    9150:	0f b6 45 d4          	movzx  eax,BYTE PTR [rbp-0x2c]
    9154:	c1 e0 03             	shl    eax,0x3
    9157:	83 e0 38             	and    eax,0x38
    915a:	09 d0                	or     eax,edx
    915c:	83 c8 04             	or     eax,0x4
    915f:	88 45 fe             	mov    BYTE PTR [rbp-0x2],al
    9162:	c6 45 f1 07          	mov    BYTE PTR [rbp-0xf],0x7
    9166:	48 8b 45 d8          	mov    rax,QWORD PTR [rbp-0x28]
    916a:	48 89 c6             	mov    rsi,rax
    916d:	bf 0a 00 00 00       	mov    edi,0xa
    9172:	e8 e7 9f ff ff       	call   315e <As16>
    9177:	48 8b 45 d8          	mov    rax,QWORD PTR [rbp-0x28]
    917b:	48 89 c6             	mov    rsi,rax
    917e:	bf 0a 00 00 00       	mov    edi,0xa
    9183:	e8 d6 9f ff ff       	call   315e <As16>
    9188:	48 8b 45 d8          	mov    rax,QWORD PTR [rbp-0x28]
    918c:	48 89 c6             	mov    rsi,rax
    918f:	bf 0a 00 00 00       	mov    edi,0xa
    9194:	e8 c5 9f ff ff       	call   315e <As16>
    9199:	48 8b 45 d8          	mov    rax,QWORD PTR [rbp-0x28]
    919d:	48 89 c6             	mov    rsi,rax
    91a0:	bf 0a 00 00 00       	mov    edi,0xa
    91a5:	e8 b4 9f ff ff       	call   315e <As16>
    91aa:	48 8b 45 d8          	mov    rax,QWORD PTR [rbp-0x28]
    91ae:	48 89 c6             	mov    rsi,rax
    91b1:	bf 0a 00 00 00       	mov    edi,0xa
    91b6:	e8 a3 9f ff ff       	call   315e <As16>
    91bb:	48 8b 45 d8          	mov    rax,QWORD PTR [rbp-0x28]
    91bf:	48 89 c6             	mov    rsi,rax
    91c2:	bf 0a 00 00 00       	mov    edi,0xa
    91c7:	e8 92 9f ff ff       	call   315e <As16>
    91cc:	48 8b 45 d8          	mov    rax,QWORD PTR [rbp-0x28]
    91d0:	48 89 c6             	mov    rsi,rax
    91d3:	bf 0a 00 00 00       	mov    edi,0xa
    91d8:	e8 81 9f ff ff       	call   315e <As16>
    91dd:	0f b6 45 f2          	movzx  eax,BYTE PTR [rbp-0xe]
    91e1:	83 e0 07             	and    eax,0x7
    91e4:	88 45 fd             	mov    BYTE PTR [rbp-0x3],al
    91e7:	c6 45 fc 01          	mov    BYTE PTR [rbp-0x4],0x1
    91eb:	eb 6a                	jmp    9257 <encode_mov_rm_rm+0x2fe>
    91ed:	0f b6 45 ec          	movzx  eax,BYTE PTR [rbp-0x14]
    91f1:	84 c0                	test   al,al
    91f3:	74 3a                	je     922f <encode_mov_rm_rm+0x2d6>
    91f5:	0f b6 45 ee          	movzx  eax,BYTE PTR [rbp-0x12]
    91f9:	84 c0                	test   al,al
    91fb:	74 32                	je     922f <encode_mov_rm_rm+0x2d6>
    91fd:	0f b6 45 ed          	movzx  eax,BYTE PTR [rbp-0x13]
    9201:	84 c0                	test   al,al
    9203:	75 2a                	jne    922f <encode_mov_rm_rm+0x2d6>
    9205:	0f b6 45 fa          	movzx  eax,BYTE PTR [rbp-0x6]
    9209:	c1 e0 06             	shl    eax,0x6
    920c:	83 e0 c0             	and    eax,0xffffffc0
    920f:	89 c2                	mov    edx,eax
    9211:	0f b6 45 d4          	movzx  eax,BYTE PTR [rbp-0x2c]
    9215:	c1 e0 03             	shl    eax,0x3
    9218:	83 e0 38             	and    eax,0x38
    921b:	09 c2                	or     edx,eax
    921d:	0f b6 45 f2          	movzx  eax,BYTE PTR [rbp-0xe]
    9221:	83 e0 07             	and    eax,0x7
    9224:	09 d0                	or     eax,edx
    9226:	88 45 fe             	mov    BYTE PTR [rbp-0x2],al
    9229:	c6 45 fc 00          	mov    BYTE PTR [rbp-0x4],0x0
    922d:	eb 28                	jmp    9257 <encode_mov_rm_rm+0x2fe>
    922f:	0f b6 45 ec          	movzx  eax,BYTE PTR [rbp-0x14]
    9233:	84 c0                	test   al,al
    9235:	75 20                	jne    9257 <encode_mov_rm_rm+0x2fe>
    9237:	0f b6 45 d4          	movzx  eax,BYTE PTR [rbp-0x2c]
    923b:	c1 e0 03             	shl    eax,0x3
    923e:	83 e0 38             	and    eax,0x38
    9241:	83 c8 04             	or     eax,0x4
    9244:	88 45 fe             	mov    BYTE PTR [rbp-0x2],al
    9247:	c6 45 fd 05          	mov    BYTE PTR [rbp-0x3],0x5
    924b:	c6 45 fc 01          	mov    BYTE PTR [rbp-0x4],0x1
    924f:	c6 45 ee 01          	mov    BYTE PTR [rbp-0x12],0x1
    9253:	c6 45 fb 04          	mov    BYTE PTR [rbp-0x5],0x4
    9257:	80 7d ff 00          	cmp    BYTE PTR [rbp-0x1],0x0
    925b:	74 19                	je     9276 <encode_mov_rm_rm+0x31d>
    925d:	8b 45 f4             	mov    eax,DWORD PTR [rbp-0xc]
    9260:	8d 50 01             	lea    edx,[rax+0x1]
    9263:	89 55 f4             	mov    DWORD PTR [rbp-0xc],edx
    9266:	48 63 d0             	movsxd rdx,eax
    9269:	48 8b 45 d8          	mov    rax,QWORD PTR [rbp-0x28]
    926d:	48 01 c2             	add    rdx,rax
    9270:	0f b6 45 ff          	movzx  eax,BYTE PTR [rbp-0x1]
    9274:	88 02                	mov    BYTE PTR [rdx],al
    9276:	8b 45 f4             	mov    eax,DWORD PTR [rbp-0xc]
    9279:	8d 50 01             	lea    edx,[rax+0x1]
    927c:	89 55 f4             	mov    DWORD PTR [rbp-0xc],edx
    927f:	48 63 d0             	movsxd rdx,eax
    9282:	48 8b 45 d8          	mov    rax,QWORD PTR [rbp-0x28]
    9286:	48 01 c2             	add    rdx,rax
    9289:	0f b6 45 c4          	movzx  eax,BYTE PTR [rbp-0x3c]
    928d:	88 02                	mov    BYTE PTR [rdx],al
    928f:	8b 45 f4             	mov    eax,DWORD PTR [rbp-0xc]
    9292:	8d 50 01             	lea    edx,[rax+0x1]
    9295:	89 55 f4             	mov    DWORD PTR [rbp-0xc],edx
    9298:	48 63 d0             	movsxd rdx,eax
    929b:	48 8b 45 d8          	mov    rax,QWORD PTR [rbp-0x28]
    929f:	48 01 c2             	add    rdx,rax
    92a2:	0f b6 45 fe          	movzx  eax,BYTE PTR [rbp-0x2]
    92a6:	88 02                	mov    BYTE PTR [rdx],al
    92a8:	80 7d fc 00          	cmp    BYTE PTR [rbp-0x4],0x0
    92ac:	74 19                	je     92c7 <encode_mov_rm_rm+0x36e>
    92ae:	8b 45 f4             	mov    eax,DWORD PTR [rbp-0xc]
    92b1:	8d 50 01             	lea    edx,[rax+0x1]
    92b4:	89 55 f4             	mov    DWORD PTR [rbp-0xc],edx
    92b7:	48 63 d0             	movsxd rdx,eax
    92ba:	48 8b 45 d8          	mov    rax,QWORD PTR [rbp-0x28]
    92be:	48 01 c2             	add    rdx,rax
    92c1:	0f b6 45 fd          	movzx  eax,BYTE PTR [rbp-0x3]
    92c5:	88 02                	mov    BYTE PTR [rdx],al
    92c7:	0f b6 45 ee          	movzx  eax,BYTE PTR [rbp-0x12]
    92cb:	84 c0                	test   al,al
    92cd:	74 40                	je     930f <encode_mov_rm_rm+0x3b6>
    92cf:	80 7d fb 01          	cmp    BYTE PTR [rbp-0x5],0x1
    92d3:	75 1c                	jne    92f1 <encode_mov_rm_rm+0x398>
    92d5:	8b 4d e8             	mov    ecx,DWORD PTR [rbp-0x18]
    92d8:	8b 45 f4             	mov    eax,DWORD PTR [rbp-0xc]
    92db:	8d 50 01             	lea    edx,[rax+0x1]
    92de:	89 55 f4             	mov    DWORD PTR [rbp-0xc],edx
    92e1:	48 63 d0             	movsxd rdx,eax
    92e4:	48 8b 45 d8          	mov    rax,QWORD PTR [rbp-0x28]
    92e8:	48 01 d0             	add    rax,rdx
    92eb:	89 ca                	mov    edx,ecx
    92ed:	88 10                	mov    BYTE PTR [rax],dl
    92ef:	eb 1e                	jmp    930f <encode_mov_rm_rm+0x3b6>
    92f1:	8b 45 f4             	mov    eax,DWORD PTR [rbp-0xc]
    92f4:	48 63 d0             	movsxd rdx,eax
    92f7:	48 8b 45 d8          	mov    rax,QWORD PTR [rbp-0x28]
    92fb:	48 01 c2             	add    rdx,rax
    92fe:	8b 45 e8             	mov    eax,DWORD PTR [rbp-0x18]
    9301:	48 89 d6             	mov    rsi,rdx
    9304:	89 c7                	mov    edi,eax
    9306:	e8 84 9e ff ff       	call   318f <As32>
    930b:	83 45 f4 04          	add    DWORD PTR [rbp-0xc],0x4
    930f:	8b 45 f4             	mov    eax,DWORD PTR [rbp-0xc]
    9312:	c9                   	leave
    9313:	c3                   	ret

0000000000009314 <parseInst>:
parseInst():
    9314:	55                   	push   rbp
    9315:	48 89 e5             	mov    rbp,rsp
    9318:	48 81 ec b0 01 00 00 	sub    rsp,0x1b0
    931f:	48 89 bd 58 fe ff ff 	mov    QWORD PTR [rbp-0x1a8],rdi
    9326:	48 8b 85 58 fe ff ff 	mov    rax,QWORD PTR [rbp-0x1a8]
    932d:	8b 00                	mov    eax,DWORD PTR [rax]
    932f:	83 f8 01             	cmp    eax,0x1
    9332:	0f 85 2b 21 00 00    	jne    b463 <parseInst+0x214f>
    9338:	c7 45 a0 00 00 00 00 	mov    DWORD PTR [rbp-0x60],0x0
    933f:	48 8b 85 58 fe ff ff 	mov    rax,QWORD PTR [rbp-0x1a8]
    9346:	8b 80 94 01 00 00    	mov    eax,DWORD PTR [rax+0x194]
    934c:	89 85 a0 fe ff ff    	mov    DWORD PTR [rbp-0x160],eax
    9352:	48 8b 85 58 fe ff ff 	mov    rax,QWORD PTR [rbp-0x1a8]
    9359:	48 05 08 01 00 00    	add    rax,0x108
    935f:	48 89 85 a8 fe ff ff 	mov    QWORD PTR [rbp-0x158],rax
    9366:	48 8b 85 58 fe ff ff 	mov    rax,QWORD PTR [rbp-0x1a8]
    936d:	8b 80 98 01 00 00    	mov    eax,DWORD PTR [rax+0x198]
    9373:	89 85 90 fe ff ff    	mov    DWORD PTR [rbp-0x170],eax
    9379:	48 8b 85 58 fe ff ff 	mov    rax,QWORD PTR [rbp-0x1a8]
    9380:	48 05 2b 01 00 00    	add    rax,0x12b
    9386:	48 89 85 98 fe ff ff 	mov    QWORD PTR [rbp-0x168],rax
    938d:	48 8b 85 58 fe ff ff 	mov    rax,QWORD PTR [rbp-0x1a8]
    9394:	48 83 c0 04          	add    rax,0x4
    9398:	48 89 45 98          	mov    QWORD PTR [rbp-0x68],rax
    939c:	48 8b 85 58 fe ff ff 	mov    rax,QWORD PTR [rbp-0x1a8]
    93a3:	48 05 10 09 00 00    	add    rax,0x910
    93a9:	48 89 45 90          	mov    QWORD PTR [rbp-0x70],rax
    93ad:	48 8b 85 58 fe ff ff 	mov    rax,QWORD PTR [rbp-0x1a8]
    93b4:	48 05 10 09 00 00    	add    rax,0x910
    93ba:	ba 40 00 00 00       	mov    edx,0x40
    93bf:	be 00 00 00 00       	mov    esi,0x0
    93c4:	48 89 c7             	mov    rdi,rax
    93c7:	e8 f4 8c ff ff       	call   20c0 <memset@plt>
    93cc:	48 8b 85 58 fe ff ff 	mov    rax,QWORD PTR [rbp-0x1a8]
    93d3:	48 05 50 09 00 00    	add    rax,0x950
    93d9:	48 89 45 88          	mov    QWORD PTR [rbp-0x78],rax
    93dd:	48 8b 45 88          	mov    rax,QWORD PTR [rbp-0x78]
    93e1:	c6 00 00             	mov    BYTE PTR [rax],0x0
    93e4:	48 8b 45 98          	mov    rax,QWORD PTR [rbp-0x68]
    93e8:	48 8d 15 19 2c 00 00 	lea    rdx,[rip+0x2c19]        # c008 <_IO_stdin_used+0x8>
    93ef:	48 89 d6             	mov    rsi,rdx
    93f2:	48 89 c7             	mov    rdi,rax
    93f5:	e8 56 8c ff ff       	call   2050 <strcasecmp@plt>
    93fa:	85 c0                	test   eax,eax
    93fc:	0f 85 17 06 00 00    	jne    9a19 <parseInst+0x705>
    9402:	8b 85 a0 fe ff ff    	mov    eax,DWORD PTR [rbp-0x160]
    9408:	83 f8 06             	cmp    eax,0x6
    940b:	75 7b                	jne    9488 <parseInst+0x174>
    940d:	8b 85 90 fe ff ff    	mov    eax,DWORD PTR [rbp-0x170]
    9413:	83 f8 07             	cmp    eax,0x7
    9416:	75 70                	jne    9488 <parseInst+0x174>
    9418:	48 8b 85 a8 fe ff ff 	mov    rax,QWORD PTR [rbp-0x158]
    941f:	48 89 c7             	mov    rdi,rax
    9422:	e8 33 f0 ff ff       	call   845a <find_reg64_index>
    9427:	88 85 df fe ff ff    	mov    BYTE PTR [rbp-0x121],al
    942d:	48 8b 85 98 fe ff ff 	mov    rax,QWORD PTR [rbp-0x168]
    9434:	48 89 c7             	mov    rdi,rax
    9437:	e8 af 94 ff ff       	call   28eb <eval_expr>
    943c:	48 89 85 d0 fe ff ff 	mov    QWORD PTR [rbp-0x130],rax
    9443:	0f b6 b5 df fe ff ff 	movzx  esi,BYTE PTR [rbp-0x121]
    944a:	48 8b 95 d0 fe ff ff 	mov    rdx,QWORD PTR [rbp-0x130]
    9451:	48 8b 45 90          	mov    rax,QWORD PTR [rbp-0x70]
    9455:	b9 40 00 00 00       	mov    ecx,0x40
    945a:	48 89 c7             	mov    rdi,rax
    945d:	e8 2d f8 ff ff       	call   8c8f <encode_mov_reg_imm>
    9462:	48 8b 55 88          	mov    rdx,QWORD PTR [rbp-0x78]
    9466:	88 02                	mov    BYTE PTR [rdx],al
    9468:	48 8b 45 88          	mov    rax,QWORD PTR [rbp-0x78]
    946c:	0f b6 00             	movzx  eax,BYTE PTR [rax]
    946f:	0f b6 d0             	movzx  edx,al
    9472:	48 8b 05 07 62 00 00 	mov    rax,QWORD PTR [rip+0x6207]        # f680 <pc>
    9479:	48 01 d0             	add    rax,rdx
    947c:	48 89 05 fd 61 00 00 	mov    QWORD PTR [rip+0x61fd],rax        # f680 <pc>
    9483:	e9 e2 1f 00 00       	jmp    b46a <parseInst+0x2156>
    9488:	8b 85 a0 fe ff ff    	mov    eax,DWORD PTR [rbp-0x160]
    948e:	83 f8 05             	cmp    eax,0x5
    9491:	75 79                	jne    950c <parseInst+0x1f8>
    9493:	8b 85 90 fe ff ff    	mov    eax,DWORD PTR [rbp-0x170]
    9499:	83 f8 07             	cmp    eax,0x7
    949c:	75 6e                	jne    950c <parseInst+0x1f8>
    949e:	48 8b 85 a8 fe ff ff 	mov    rax,QWORD PTR [rbp-0x158]
    94a5:	48 89 c7             	mov    rdi,rax
    94a8:	e8 49 f0 ff ff       	call   84f6 <find_reg32_index>
    94ad:	88 85 cf fe ff ff    	mov    BYTE PTR [rbp-0x131],al
    94b3:	48 8b 85 98 fe ff ff 	mov    rax,QWORD PTR [rbp-0x168]
    94ba:	48 89 c7             	mov    rdi,rax
    94bd:	e8 29 94 ff ff       	call   28eb <eval_expr>
    94c2:	89 85 c8 fe ff ff    	mov    DWORD PTR [rbp-0x138],eax
    94c8:	8b 95 c8 fe ff ff    	mov    edx,DWORD PTR [rbp-0x138]
    94ce:	0f b6 b5 cf fe ff ff 	movzx  esi,BYTE PTR [rbp-0x131]
    94d5:	48 8b 45 90          	mov    rax,QWORD PTR [rbp-0x70]
    94d9:	b9 20 00 00 00       	mov    ecx,0x20
    94de:	48 89 c7             	mov    rdi,rax
    94e1:	e8 a9 f7 ff ff       	call   8c8f <encode_mov_reg_imm>
    94e6:	48 8b 55 88          	mov    rdx,QWORD PTR [rbp-0x78]
    94ea:	88 02                	mov    BYTE PTR [rdx],al
    94ec:	48 8b 45 88          	mov    rax,QWORD PTR [rbp-0x78]
    94f0:	0f b6 00             	movzx  eax,BYTE PTR [rax]
    94f3:	0f b6 d0             	movzx  edx,al
    94f6:	48 8b 05 83 61 00 00 	mov    rax,QWORD PTR [rip+0x6183]        # f680 <pc>
    94fd:	48 01 d0             	add    rax,rdx
    9500:	48 89 05 79 61 00 00 	mov    QWORD PTR [rip+0x6179],rax        # f680 <pc>
    9507:	e9 5e 1f 00 00       	jmp    b46a <parseInst+0x2156>
    950c:	8b 85 a0 fe ff ff    	mov    eax,DWORD PTR [rbp-0x160]
    9512:	83 f8 04             	cmp    eax,0x4
    9515:	75 7b                	jne    9592 <parseInst+0x27e>
    9517:	8b 85 90 fe ff ff    	mov    eax,DWORD PTR [rbp-0x170]
    951d:	83 f8 07             	cmp    eax,0x7
    9520:	75 70                	jne    9592 <parseInst+0x27e>
    9522:	48 8b 85 a8 fe ff ff 	mov    rax,QWORD PTR [rbp-0x158]
    9529:	48 89 c7             	mov    rdi,rax
    952c:	e8 61 f0 ff ff       	call   8592 <find_reg16_index>
    9531:	88 85 c7 fe ff ff    	mov    BYTE PTR [rbp-0x139],al
    9537:	48 8b 85 98 fe ff ff 	mov    rax,QWORD PTR [rbp-0x168]
    953e:	48 89 c7             	mov    rdi,rax
    9541:	e8 a5 93 ff ff       	call   28eb <eval_expr>
    9546:	66 89 85 c4 fe ff ff 	mov    WORD PTR [rbp-0x13c],ax
    954d:	0f b7 95 c4 fe ff ff 	movzx  edx,WORD PTR [rbp-0x13c]
    9554:	0f b6 b5 c7 fe ff ff 	movzx  esi,BYTE PTR [rbp-0x139]
    955b:	48 8b 45 90          	mov    rax,QWORD PTR [rbp-0x70]
    955f:	b9 10 00 00 00       	mov    ecx,0x10
    9564:	48 89 c7             	mov    rdi,rax
    9567:	e8 23 f7 ff ff       	call   8c8f <encode_mov_reg_imm>
    956c:	48 8b 55 88          	mov    rdx,QWORD PTR [rbp-0x78]
    9570:	88 02                	mov    BYTE PTR [rdx],al
    9572:	48 8b 45 88          	mov    rax,QWORD PTR [rbp-0x78]
    9576:	0f b6 00             	movzx  eax,BYTE PTR [rax]
    9579:	0f b6 d0             	movzx  edx,al
    957c:	48 8b 05 fd 60 00 00 	mov    rax,QWORD PTR [rip+0x60fd]        # f680 <pc>
    9583:	48 01 d0             	add    rax,rdx
    9586:	48 89 05 f3 60 00 00 	mov    QWORD PTR [rip+0x60f3],rax        # f680 <pc>
    958d:	e9 d8 1e 00 00       	jmp    b46a <parseInst+0x2156>
    9592:	8b 85 a0 fe ff ff    	mov    eax,DWORD PTR [rbp-0x160]
    9598:	83 f8 03             	cmp    eax,0x3
    959b:	0f 85 ad 00 00 00    	jne    964e <parseInst+0x33a>
    95a1:	8b 85 90 fe ff ff    	mov    eax,DWORD PTR [rbp-0x170]
    95a7:	83 f8 07             	cmp    eax,0x7
    95aa:	74 0f                	je     95bb <parseInst+0x2a7>
    95ac:	8b 85 90 fe ff ff    	mov    eax,DWORD PTR [rbp-0x170]
    95b2:	83 f8 0a             	cmp    eax,0xa
    95b5:	0f 85 93 00 00 00    	jne    964e <parseInst+0x33a>
    95bb:	48 8b 85 98 fe ff ff 	mov    rax,QWORD PTR [rbp-0x168]
    95c2:	0f b6 00             	movzx  eax,BYTE PTR [rax]
    95c5:	88 85 c3 fe ff ff    	mov    BYTE PTR [rbp-0x13d],al
    95cb:	48 8b 85 a8 fe ff ff 	mov    rax,QWORD PTR [rbp-0x158]
    95d2:	48 89 c7             	mov    rdi,rax
    95d5:	e8 54 f0 ff ff       	call   862e <find_reg8_index>
    95da:	88 85 c2 fe ff ff    	mov    BYTE PTR [rbp-0x13e],al
    95e0:	48 8b 85 98 fe ff ff 	mov    rax,QWORD PTR [rbp-0x168]
    95e7:	48 89 c7             	mov    rdi,rax
    95ea:	e8 fc 92 ff ff       	call   28eb <eval_expr>
    95ef:	88 85 c1 fe ff ff    	mov    BYTE PTR [rbp-0x13f],al
    95f5:	8b 85 90 fe ff ff    	mov    eax,DWORD PTR [rbp-0x170]
    95fb:	83 f8 0a             	cmp    eax,0xa
    95fe:	75 09                	jne    9609 <parseInst+0x2f5>
    9600:	0f b6 85 c3 fe ff ff 	movzx  eax,BYTE PTR [rbp-0x13d]
    9607:	eb 07                	jmp    9610 <parseInst+0x2fc>
    9609:	0f b6 85 c1 fe ff ff 	movzx  eax,BYTE PTR [rbp-0x13f]
    9610:	0f b6 b5 c2 fe ff ff 	movzx  esi,BYTE PTR [rbp-0x13e]
    9617:	48 8b 7d 90          	mov    rdi,QWORD PTR [rbp-0x70]
    961b:	b9 08 00 00 00       	mov    ecx,0x8
    9620:	48 89 c2             	mov    rdx,rax
    9623:	e8 67 f6 ff ff       	call   8c8f <encode_mov_reg_imm>
    9628:	48 8b 55 88          	mov    rdx,QWORD PTR [rbp-0x78]
    962c:	88 02                	mov    BYTE PTR [rdx],al
    962e:	48 8b 45 88          	mov    rax,QWORD PTR [rbp-0x78]
    9632:	0f b6 00             	movzx  eax,BYTE PTR [rax]
    9635:	0f b6 d0             	movzx  edx,al
    9638:	48 8b 05 41 60 00 00 	mov    rax,QWORD PTR [rip+0x6041]        # f680 <pc>
    963f:	48 01 d0             	add    rax,rdx
    9642:	48 89 05 37 60 00 00 	mov    QWORD PTR [rip+0x6037],rax        # f680 <pc>
    9649:	e9 1c 1e 00 00       	jmp    b46a <parseInst+0x2156>
    964e:	8b 85 a0 fe ff ff    	mov    eax,DWORD PTR [rbp-0x160]
    9654:	83 f8 06             	cmp    eax,0x6
    9657:	75 7a                	jne    96d3 <parseInst+0x3bf>
    9659:	8b 85 90 fe ff ff    	mov    eax,DWORD PTR [rbp-0x170]
    965f:	83 f8 06             	cmp    eax,0x6
    9662:	75 6f                	jne    96d3 <parseInst+0x3bf>
    9664:	48 8b 85 a8 fe ff ff 	mov    rax,QWORD PTR [rbp-0x158]
    966b:	48 89 c7             	mov    rdi,rax
    966e:	e8 e7 ed ff ff       	call   845a <find_reg64_index>
    9673:	88 85 c0 fe ff ff    	mov    BYTE PTR [rbp-0x140],al
    9679:	48 8b 85 98 fe ff ff 	mov    rax,QWORD PTR [rbp-0x168]
    9680:	48 89 c7             	mov    rdi,rax
    9683:	e8 d2 ed ff ff       	call   845a <find_reg64_index>
    9688:	88 85 bf fe ff ff    	mov    BYTE PTR [rbp-0x141],al
    968e:	0f b6 95 bf fe ff ff 	movzx  edx,BYTE PTR [rbp-0x141]
    9695:	0f b6 b5 c0 fe ff ff 	movzx  esi,BYTE PTR [rbp-0x140]
    969c:	48 8b 45 90          	mov    rax,QWORD PTR [rbp-0x70]
    96a0:	b9 40 00 00 00       	mov    ecx,0x40
    96a5:	48 89 c7             	mov    rdi,rax
    96a8:	e8 70 f7 ff ff       	call   8e1d <encode_mov_reg_reg>
    96ad:	48 8b 55 88          	mov    rdx,QWORD PTR [rbp-0x78]
    96b1:	88 02                	mov    BYTE PTR [rdx],al
    96b3:	48 8b 45 88          	mov    rax,QWORD PTR [rbp-0x78]
    96b7:	0f b6 00             	movzx  eax,BYTE PTR [rax]
    96ba:	0f b6 d0             	movzx  edx,al
    96bd:	48 8b 05 bc 5f 00 00 	mov    rax,QWORD PTR [rip+0x5fbc]        # f680 <pc>
    96c4:	48 01 d0             	add    rax,rdx
    96c7:	48 89 05 b2 5f 00 00 	mov    QWORD PTR [rip+0x5fb2],rax        # f680 <pc>
    96ce:	e9 97 1d 00 00       	jmp    b46a <parseInst+0x2156>
    96d3:	8b 85 a0 fe ff ff    	mov    eax,DWORD PTR [rbp-0x160]
    96d9:	83 f8 05             	cmp    eax,0x5
    96dc:	75 7a                	jne    9758 <parseInst+0x444>
    96de:	8b 85 90 fe ff ff    	mov    eax,DWORD PTR [rbp-0x170]
    96e4:	83 f8 05             	cmp    eax,0x5
    96e7:	75 6f                	jne    9758 <parseInst+0x444>
    96e9:	48 8b 85 a8 fe ff ff 	mov    rax,QWORD PTR [rbp-0x158]
    96f0:	48 89 c7             	mov    rdi,rax
    96f3:	e8 fe ed ff ff       	call   84f6 <find_reg32_index>
    96f8:	88 85 be fe ff ff    	mov    BYTE PTR [rbp-0x142],al
    96fe:	48 8b 85 98 fe ff ff 	mov    rax,QWORD PTR [rbp-0x168]
    9705:	48 89 c7             	mov    rdi,rax
    9708:	e8 e9 ed ff ff       	call   84f6 <find_reg32_index>
    970d:	88 85 bd fe ff ff    	mov    BYTE PTR [rbp-0x143],al
    9713:	0f b6 95 bd fe ff ff 	movzx  edx,BYTE PTR [rbp-0x143]
    971a:	0f b6 b5 be fe ff ff 	movzx  esi,BYTE PTR [rbp-0x142]
    9721:	48 8b 45 90          	mov    rax,QWORD PTR [rbp-0x70]
    9725:	b9 20 00 00 00       	mov    ecx,0x20
    972a:	48 89 c7             	mov    rdi,rax
    972d:	e8 eb f6 ff ff       	call   8e1d <encode_mov_reg_reg>
    9732:	48 8b 55 88          	mov    rdx,QWORD PTR [rbp-0x78]
    9736:	88 02                	mov    BYTE PTR [rdx],al
    9738:	48 8b 45 88          	mov    rax,QWORD PTR [rbp-0x78]
    973c:	0f b6 00             	movzx  eax,BYTE PTR [rax]
    973f:	0f b6 d0             	movzx  edx,al
    9742:	48 8b 05 37 5f 00 00 	mov    rax,QWORD PTR [rip+0x5f37]        # f680 <pc>
    9749:	48 01 d0             	add    rax,rdx
    974c:	48 89 05 2d 5f 00 00 	mov    QWORD PTR [rip+0x5f2d],rax        # f680 <pc>
    9753:	e9 12 1d 00 00       	jmp    b46a <parseInst+0x2156>
    9758:	8b 85 a0 fe ff ff    	mov    eax,DWORD PTR [rbp-0x160]
    975e:	83 f8 04             	cmp    eax,0x4
    9761:	75 7a                	jne    97dd <parseInst+0x4c9>
    9763:	8b 85 90 fe ff ff    	mov    eax,DWORD PTR [rbp-0x170]
    9769:	83 f8 04             	cmp    eax,0x4
    976c:	75 6f                	jne    97dd <parseInst+0x4c9>
    976e:	48 8b 85 a8 fe ff ff 	mov    rax,QWORD PTR [rbp-0x158]
    9775:	48 89 c7             	mov    rdi,rax
    9778:	e8 15 ee ff ff       	call   8592 <find_reg16_index>
    977d:	88 85 bc fe ff ff    	mov    BYTE PTR [rbp-0x144],al
    9783:	48 8b 85 98 fe ff ff 	mov    rax,QWORD PTR [rbp-0x168]
    978a:	48 89 c7             	mov    rdi,rax
    978d:	e8 00 ee ff ff       	call   8592 <find_reg16_index>
    9792:	88 85 bb fe ff ff    	mov    BYTE PTR [rbp-0x145],al
    9798:	0f b6 95 bb fe ff ff 	movzx  edx,BYTE PTR [rbp-0x145]
    979f:	0f b6 b5 bc fe ff ff 	movzx  esi,BYTE PTR [rbp-0x144]
    97a6:	48 8b 45 90          	mov    rax,QWORD PTR [rbp-0x70]
    97aa:	b9 10 00 00 00       	mov    ecx,0x10
    97af:	48 89 c7             	mov    rdi,rax
    97b2:	e8 66 f6 ff ff       	call   8e1d <encode_mov_reg_reg>
    97b7:	48 8b 55 88          	mov    rdx,QWORD PTR [rbp-0x78]
    97bb:	88 02                	mov    BYTE PTR [rdx],al
    97bd:	48 8b 45 88          	mov    rax,QWORD PTR [rbp-0x78]
    97c1:	0f b6 00             	movzx  eax,BYTE PTR [rax]
    97c4:	0f b6 d0             	movzx  edx,al
    97c7:	48 8b 05 b2 5e 00 00 	mov    rax,QWORD PTR [rip+0x5eb2]        # f680 <pc>
    97ce:	48 01 d0             	add    rax,rdx
    97d1:	48 89 05 a8 5e 00 00 	mov    QWORD PTR [rip+0x5ea8],rax        # f680 <pc>
    97d8:	e9 8d 1c 00 00       	jmp    b46a <parseInst+0x2156>
    97dd:	8b 85 a0 fe ff ff    	mov    eax,DWORD PTR [rbp-0x160]
    97e3:	83 f8 03             	cmp    eax,0x3
    97e6:	75 7a                	jne    9862 <parseInst+0x54e>
    97e8:	8b 85 90 fe ff ff    	mov    eax,DWORD PTR [rbp-0x170]
    97ee:	83 f8 03             	cmp    eax,0x3
    97f1:	75 6f                	jne    9862 <parseInst+0x54e>
    97f3:	48 8b 85 a8 fe ff ff 	mov    rax,QWORD PTR [rbp-0x158]
    97fa:	48 89 c7             	mov    rdi,rax
    97fd:	e8 2c ee ff ff       	call   862e <find_reg8_index>
    9802:	88 85 ba fe ff ff    	mov    BYTE PTR [rbp-0x146],al
    9808:	48 8b 85 98 fe ff ff 	mov    rax,QWORD PTR [rbp-0x168]
    980f:	48 89 c7             	mov    rdi,rax
    9812:	e8 17 ee ff ff       	call   862e <find_reg8_index>
    9817:	88 85 b9 fe ff ff    	mov    BYTE PTR [rbp-0x147],al
    981d:	0f b6 95 b9 fe ff ff 	movzx  edx,BYTE PTR [rbp-0x147]
    9824:	0f b6 b5 ba fe ff ff 	movzx  esi,BYTE PTR [rbp-0x146]
    982b:	48 8b 45 90          	mov    rax,QWORD PTR [rbp-0x70]
    982f:	b9 08 00 00 00       	mov    ecx,0x8
    9834:	48 89 c7             	mov    rdi,rax
    9837:	e8 e1 f5 ff ff       	call   8e1d <encode_mov_reg_reg>
    983c:	48 8b 55 88          	mov    rdx,QWORD PTR [rbp-0x78]
    9840:	88 02                	mov    BYTE PTR [rdx],al
    9842:	48 8b 45 88          	mov    rax,QWORD PTR [rbp-0x78]
    9846:	0f b6 00             	movzx  eax,BYTE PTR [rax]
    9849:	0f b6 d0             	movzx  edx,al
    984c:	48 8b 05 2d 5e 00 00 	mov    rax,QWORD PTR [rip+0x5e2d]        # f680 <pc>
    9853:	48 01 d0             	add    rax,rdx
    9856:	48 89 05 23 5e 00 00 	mov    QWORD PTR [rip+0x5e23],rax        # f680 <pc>
    985d:	e9 08 1c 00 00       	jmp    b46a <parseInst+0x2156>
    9862:	8b 85 a0 fe ff ff    	mov    eax,DWORD PTR [rbp-0x160]
    9868:	83 f8 06             	cmp    eax,0x6
    986b:	75 6b                	jne    98d8 <parseInst+0x5c4>
    986d:	8b 85 90 fe ff ff    	mov    eax,DWORD PTR [rbp-0x170]
    9873:	83 f8 08             	cmp    eax,0x8
    9876:	75 60                	jne    98d8 <parseInst+0x5c4>
    9878:	48 8b 85 a8 fe ff ff 	mov    rax,QWORD PTR [rbp-0x158]
    987f:	48 89 c7             	mov    rdi,rax
    9882:	e8 d3 eb ff ff       	call   845a <find_reg64_index>
    9887:	88 85 b8 fe ff ff    	mov    BYTE PTR [rbp-0x148],al
    988d:	48 8b 95 98 fe ff ff 	mov    rdx,QWORD PTR [rbp-0x168]
    9894:	0f b6 b5 b8 fe ff ff 	movzx  esi,BYTE PTR [rbp-0x148]
    989b:	48 8b 45 90          	mov    rax,QWORD PTR [rbp-0x70]
    989f:	41 b8 8b 00 00 00    	mov    r8d,0x8b
    98a5:	b9 40 00 00 00       	mov    ecx,0x40
    98aa:	48 89 c7             	mov    rdi,rax
    98ad:	e8 a7 f6 ff ff       	call   8f59 <encode_mov_rm_rm>
    98b2:	48 8b 55 88          	mov    rdx,QWORD PTR [rbp-0x78]
    98b6:	88 02                	mov    BYTE PTR [rdx],al
    98b8:	48 8b 45 88          	mov    rax,QWORD PTR [rbp-0x78]
    98bc:	0f b6 00             	movzx  eax,BYTE PTR [rax]
    98bf:	0f b6 d0             	movzx  edx,al
    98c2:	48 8b 05 b7 5d 00 00 	mov    rax,QWORD PTR [rip+0x5db7]        # f680 <pc>
    98c9:	48 01 d0             	add    rax,rdx
    98cc:	48 89 05 ad 5d 00 00 	mov    QWORD PTR [rip+0x5dad],rax        # f680 <pc>
    98d3:	e9 92 1b 00 00       	jmp    b46a <parseInst+0x2156>
    98d8:	48 8b 85 58 fe ff ff 	mov    rax,QWORD PTR [rbp-0x1a8]
    98df:	48 05 08 01 00 00    	add    rax,0x108
    98e5:	48 89 c6             	mov    rsi,rax
    98e8:	48 8d 05 91 5c 00 00 	lea    rax,[rip+0x5c91]        # f580 <regs64>
    98ef:	48 89 c7             	mov    rdi,rax
    98f2:	e8 f3 89 ff ff       	call   22ea <is2arrin>
    98f7:	85 c0                	test   eax,eax
    98f9:	75 27                	jne    9922 <parseInst+0x60e>
    98fb:	48 8b 85 58 fe ff ff 	mov    rax,QWORD PTR [rbp-0x1a8]
    9902:	48 05 08 01 00 00    	add    rax,0x108
    9908:	48 89 c6             	mov    rsi,rax
    990b:	48 8d 05 ce 5c 00 00 	lea    rax,[rip+0x5cce]        # f5e0 <regs64GP>
    9912:	48 89 c7             	mov    rdi,rax
    9915:	e8 d0 89 ff ff       	call   22ea <is2arrin>
    991a:	85 c0                	test   eax,eax
    991c:	0f 84 48 1b 00 00    	je     b46a <parseInst+0x2156>
    9922:	48 8b 85 58 fe ff ff 	mov    rax,QWORD PTR [rbp-0x1a8]
    9929:	8b 80 98 01 00 00    	mov    eax,DWORD PTR [rax+0x198]
    992f:	83 f8 09             	cmp    eax,0x9
    9932:	0f 85 32 1b 00 00    	jne    b46a <parseInst+0x2156>
    9938:	c6 45 eb 48          	mov    BYTE PTR [rbp-0x15],0x48
    993c:	c6 85 b7 fe ff ff b8 	mov    BYTE PTR [rbp-0x149],0xb8
    9943:	c7 45 e4 ff ff ff ff 	mov    DWORD PTR [rbp-0x1c],0xffffffff
    994a:	48 8b 85 58 fe ff ff 	mov    rax,QWORD PTR [rbp-0x1a8]
    9951:	48 05 08 01 00 00    	add    rax,0x108
    9957:	48 89 c6             	mov    rsi,rax
    995a:	48 8d 05 1f 5c 00 00 	lea    rax,[rip+0x5c1f]        # f580 <regs64>
    9961:	48 89 c7             	mov    rdi,rax
    9964:	e8 09 e3 ff ff       	call   7c72 <indexof>
    9969:	89 45 e4             	mov    DWORD PTR [rbp-0x1c],eax
    996c:	83 7d e4 ff          	cmp    DWORD PTR [rbp-0x1c],0xffffffff
    9970:	75 30                	jne    99a2 <parseInst+0x68e>
    9972:	48 8b 85 58 fe ff ff 	mov    rax,QWORD PTR [rbp-0x1a8]
    9979:	48 05 08 01 00 00    	add    rax,0x108
    997f:	48 89 c6             	mov    rsi,rax
    9982:	48 8d 05 57 5c 00 00 	lea    rax,[rip+0x5c57]        # f5e0 <regs64GP>
    9989:	48 89 c7             	mov    rdi,rax
    998c:	e8 e1 e2 ff ff       	call   7c72 <indexof>
    9991:	89 45 e4             	mov    DWORD PTR [rbp-0x1c],eax
    9994:	83 7d e4 ff          	cmp    DWORD PTR [rbp-0x1c],0xffffffff
    9998:	0f 84 c8 1a 00 00    	je     b466 <parseInst+0x2152>
    999e:	80 4d eb 01          	or     BYTE PTR [rbp-0x15],0x1
    99a2:	8b 45 e4             	mov    eax,DWORD PTR [rbp-0x1c]
    99a5:	00 85 b7 fe ff ff    	add    BYTE PTR [rbp-0x149],al
    99ab:	48 8b 85 58 fe ff ff 	mov    rax,QWORD PTR [rbp-0x1a8]
    99b2:	0f b6 55 eb          	movzx  edx,BYTE PTR [rbp-0x15]
    99b6:	88 90 10 09 00 00    	mov    BYTE PTR [rax+0x910],dl
    99bc:	48 8b 85 58 fe ff ff 	mov    rax,QWORD PTR [rbp-0x1a8]
    99c3:	0f b6 95 b7 fe ff ff 	movzx  edx,BYTE PTR [rbp-0x149]
    99ca:	88 90 11 09 00 00    	mov    BYTE PTR [rax+0x911],dl
    99d0:	48 8b 85 58 fe ff ff 	mov    rax,QWORD PTR [rbp-0x1a8]
    99d7:	48 05 12 09 00 00    	add    rax,0x912
    99dd:	48 89 c6             	mov    rsi,rax
    99e0:	bf 00 00 00 00       	mov    edi,0x0
    99e5:	e8 f4 97 ff ff       	call   31de <As64>
    99ea:	48 8b 45 88          	mov    rax,QWORD PTR [rbp-0x78]
    99ee:	c6 00 0a             	mov    BYTE PTR [rax],0xa
    99f1:	48 8b 05 88 5c 00 00 	mov    rax,QWORD PTR [rip+0x5c88]        # f680 <pc>
    99f8:	48 83 c0 0a          	add    rax,0xa
    99fc:	48 89 05 7d 5c 00 00 	mov    QWORD PTR [rip+0x5c7d],rax        # f680 <pc>
    9a03:	48 8b 85 58 fe ff ff 	mov    rax,QWORD PTR [rbp-0x1a8]
    9a0a:	c7 80 a8 01 00 00 00 	mov    DWORD PTR [rax+0x1a8],0x0
    9a11:	00 00 00 
    9a14:	e9 51 1a 00 00       	jmp    b46a <parseInst+0x2156>
    9a19:	48 8b 85 58 fe ff ff 	mov    rax,QWORD PTR [rbp-0x1a8]
    9a20:	48 83 c0 04          	add    rax,0x4
    9a24:	48 8d 15 fb 25 00 00 	lea    rdx,[rip+0x25fb]        # c026 <_IO_stdin_used+0x26>
    9a2b:	48 89 d6             	mov    rsi,rdx
    9a2e:	48 89 c7             	mov    rdi,rax
    9a31:	e8 1a 86 ff ff       	call   2050 <strcasecmp@plt>
    9a36:	85 c0                	test   eax,eax
    9a38:	0f 85 fc 07 00 00    	jne    a23a <parseInst+0xf26>
    9a3e:	48 8b 85 58 fe ff ff 	mov    rax,QWORD PTR [rbp-0x1a8]
    9a45:	8b 80 94 01 00 00    	mov    eax,DWORD PTR [rax+0x194]
    9a4b:	83 f8 06             	cmp    eax,0x6
    9a4e:	0f 85 ba 01 00 00    	jne    9c0e <parseInst+0x8fa>
    9a54:	48 8b 85 58 fe ff ff 	mov    rax,QWORD PTR [rbp-0x1a8]
    9a5b:	8b 80 98 01 00 00    	mov    eax,DWORD PTR [rax+0x198]
    9a61:	83 f8 07             	cmp    eax,0x7
    9a64:	0f 85 a4 01 00 00    	jne    9c0e <parseInst+0x8fa>
    9a6a:	c6 85 0e ff ff ff 81 	mov    BYTE PTR [rbp-0xf2],0x81
    9a71:	c6 85 0d ff ff ff 00 	mov    BYTE PTR [rbp-0xf3],0x0
    9a78:	c6 45 e3 48          	mov    BYTE PTR [rbp-0x1d],0x48
    9a7c:	48 8b 85 58 fe ff ff 	mov    rax,QWORD PTR [rbp-0x1a8]
    9a83:	48 05 2b 01 00 00    	add    rax,0x12b
    9a89:	48 89 c7             	mov    rdi,rax
    9a8c:	e8 bf 86 ff ff       	call   2150 <atoi@plt>
    9a91:	89 85 08 ff ff ff    	mov    DWORD PTR [rbp-0xf8],eax
    9a97:	c7 85 04 ff ff ff 00 	mov    DWORD PTR [rbp-0xfc],0x0
    9a9e:	00 00 00 
    9aa1:	c6 45 e2 00          	mov    BYTE PTR [rbp-0x1e],0x0
    9aa5:	48 8b 85 58 fe ff ff 	mov    rax,QWORD PTR [rbp-0x1a8]
    9aac:	48 05 08 01 00 00    	add    rax,0x108
    9ab2:	48 89 c7             	mov    rdi,rax
    9ab5:	e8 a0 e9 ff ff       	call   845a <find_reg64_index>
    9aba:	0f b6 c0             	movzx  eax,al
    9abd:	89 85 00 ff ff ff    	mov    DWORD PTR [rbp-0x100],eax
    9ac3:	83 bd 00 ff ff ff 00 	cmp    DWORD PTR [rbp-0x100],0x0
    9aca:	75 4a                	jne    9b16 <parseInst+0x802>
    9acc:	48 8b 85 58 fe ff ff 	mov    rax,QWORD PTR [rbp-0x1a8]
    9ad3:	c6 80 10 09 00 00 05 	mov    BYTE PTR [rax+0x910],0x5
    9ada:	48 8b 85 58 fe ff ff 	mov    rax,QWORD PTR [rbp-0x1a8]
    9ae1:	48 8d 90 11 09 00 00 	lea    rdx,[rax+0x911]
    9ae8:	8b 85 08 ff ff ff    	mov    eax,DWORD PTR [rbp-0xf8]
    9aee:	48 89 d6             	mov    rsi,rdx
    9af1:	89 c7                	mov    edi,eax
    9af3:	e8 97 96 ff ff       	call   318f <As32>
    9af8:	48 8b 45 88          	mov    rax,QWORD PTR [rbp-0x78]
    9afc:	c6 00 05             	mov    BYTE PTR [rax],0x5
    9aff:	48 8b 05 7a 5b 00 00 	mov    rax,QWORD PTR [rip+0x5b7a]        # f680 <pc>
    9b06:	48 83 c0 05          	add    rax,0x5
    9b0a:	48 89 05 6f 5b 00 00 	mov    QWORD PTR [rip+0x5b6f],rax        # f680 <pc>
    9b11:	e9 54 19 00 00       	jmp    b46a <parseInst+0x2156>
    9b16:	83 bd 00 ff ff ff ff 	cmp    DWORD PTR [rbp-0x100],0xffffffff
    9b1d:	74 13                	je     9b32 <parseInst+0x81e>
    9b1f:	8b 85 00 ff ff ff    	mov    eax,DWORD PTR [rbp-0x100]
    9b25:	88 45 e2             	mov    BYTE PTR [rbp-0x1e],al
    9b28:	80 7d e2 07          	cmp    BYTE PTR [rbp-0x1e],0x7
    9b2c:	76 04                	jbe    9b32 <parseInst+0x81e>
    9b2e:	80 4d e3 01          	or     BYTE PTR [rbp-0x1d],0x1
    9b32:	0f b6 45 e2          	movzx  eax,BYTE PTR [rbp-0x1e]
    9b36:	83 e0 07             	and    eax,0x7
    9b39:	83 c8 c0             	or     eax,0xffffffc0
    9b3c:	88 85 0d ff ff ff    	mov    BYTE PTR [rbp-0xf3],al
    9b42:	8b 85 04 ff ff ff    	mov    eax,DWORD PTR [rbp-0xfc]
    9b48:	8d 50 01             	lea    edx,[rax+0x1]
    9b4b:	89 95 04 ff ff ff    	mov    DWORD PTR [rbp-0xfc],edx
    9b51:	48 8b 95 58 fe ff ff 	mov    rdx,QWORD PTR [rbp-0x1a8]
    9b58:	48 98                	cdqe
    9b5a:	0f b6 4d e3          	movzx  ecx,BYTE PTR [rbp-0x1d]
    9b5e:	88 8c 02 10 09 00 00 	mov    BYTE PTR [rdx+rax*1+0x910],cl
    9b65:	8b 85 04 ff ff ff    	mov    eax,DWORD PTR [rbp-0xfc]
    9b6b:	8d 50 01             	lea    edx,[rax+0x1]
    9b6e:	89 95 04 ff ff ff    	mov    DWORD PTR [rbp-0xfc],edx
    9b74:	48 8b 95 58 fe ff ff 	mov    rdx,QWORD PTR [rbp-0x1a8]
    9b7b:	48 98                	cdqe
    9b7d:	0f b6 8d 0e ff ff ff 	movzx  ecx,BYTE PTR [rbp-0xf2]
    9b84:	88 8c 02 10 09 00 00 	mov    BYTE PTR [rdx+rax*1+0x910],cl
    9b8b:	8b 85 04 ff ff ff    	mov    eax,DWORD PTR [rbp-0xfc]
    9b91:	8d 50 01             	lea    edx,[rax+0x1]
    9b94:	89 95 04 ff ff ff    	mov    DWORD PTR [rbp-0xfc],edx
    9b9a:	48 8b 95 58 fe ff ff 	mov    rdx,QWORD PTR [rbp-0x1a8]
    9ba1:	48 98                	cdqe
    9ba3:	0f b6 8d 0d ff ff ff 	movzx  ecx,BYTE PTR [rbp-0xf3]
    9baa:	88 8c 02 10 09 00 00 	mov    BYTE PTR [rdx+rax*1+0x910],cl
    9bb1:	8b 85 04 ff ff ff    	mov    eax,DWORD PTR [rbp-0xfc]
    9bb7:	48 98                	cdqe
    9bb9:	48 8d 90 10 09 00 00 	lea    rdx,[rax+0x910]
    9bc0:	48 8b 85 58 fe ff ff 	mov    rax,QWORD PTR [rbp-0x1a8]
    9bc7:	48 01 c2             	add    rdx,rax
    9bca:	8b 85 08 ff ff ff    	mov    eax,DWORD PTR [rbp-0xf8]
    9bd0:	48 89 d6             	mov    rsi,rdx
    9bd3:	89 c7                	mov    edi,eax
    9bd5:	e8 b5 95 ff ff       	call   318f <As32>
    9bda:	83 85 04 ff ff ff 04 	add    DWORD PTR [rbp-0xfc],0x4
    9be1:	8b 85 04 ff ff ff    	mov    eax,DWORD PTR [rbp-0xfc]
    9be7:	89 c2                	mov    edx,eax
    9be9:	48 8b 45 88          	mov    rax,QWORD PTR [rbp-0x78]
    9bed:	88 10                	mov    BYTE PTR [rax],dl
    9bef:	8b 85 04 ff ff ff    	mov    eax,DWORD PTR [rbp-0xfc]
    9bf5:	48 63 d0             	movsxd rdx,eax
    9bf8:	48 8b 05 81 5a 00 00 	mov    rax,QWORD PTR [rip+0x5a81]        # f680 <pc>
    9bff:	48 01 d0             	add    rax,rdx
    9c02:	48 89 05 77 5a 00 00 	mov    QWORD PTR [rip+0x5a77],rax        # f680 <pc>
    9c09:	e9 5c 18 00 00       	jmp    b46a <parseInst+0x2156>
    9c0e:	48 8b 85 58 fe ff ff 	mov    rax,QWORD PTR [rbp-0x1a8]
    9c15:	8b 80 94 01 00 00    	mov    eax,DWORD PTR [rax+0x194]
    9c1b:	83 f8 05             	cmp    eax,0x5
    9c1e:	0f 85 9f 01 00 00    	jne    9dc3 <parseInst+0xaaf>
    9c24:	48 8b 85 58 fe ff ff 	mov    rax,QWORD PTR [rbp-0x1a8]
    9c2b:	8b 80 98 01 00 00    	mov    eax,DWORD PTR [rax+0x198]
    9c31:	83 f8 07             	cmp    eax,0x7
    9c34:	0f 85 89 01 00 00    	jne    9dc3 <parseInst+0xaaf>
    9c3a:	c6 85 ff fe ff ff 81 	mov    BYTE PTR [rbp-0x101],0x81
    9c41:	c6 85 fe fe ff ff 00 	mov    BYTE PTR [rbp-0x102],0x0
    9c48:	c6 45 e1 00          	mov    BYTE PTR [rbp-0x1f],0x0
    9c4c:	48 8b 85 58 fe ff ff 	mov    rax,QWORD PTR [rbp-0x1a8]
    9c53:	48 05 2b 01 00 00    	add    rax,0x12b
    9c59:	48 89 c7             	mov    rdi,rax
    9c5c:	e8 ef 84 ff ff       	call   2150 <atoi@plt>
    9c61:	89 85 f8 fe ff ff    	mov    DWORD PTR [rbp-0x108],eax
    9c67:	c7 45 f4 00 00 00 00 	mov    DWORD PTR [rbp-0xc],0x0
    9c6e:	c6 45 f3 00          	mov    BYTE PTR [rbp-0xd],0x0
    9c72:	48 8b 85 58 fe ff ff 	mov    rax,QWORD PTR [rbp-0x1a8]
    9c79:	48 05 08 01 00 00    	add    rax,0x108
    9c7f:	48 89 c7             	mov    rdi,rax
    9c82:	e8 6f e8 ff ff       	call   84f6 <find_reg32_index>
    9c87:	0f b6 c0             	movzx  eax,al
    9c8a:	89 85 f4 fe ff ff    	mov    DWORD PTR [rbp-0x10c],eax
    9c90:	83 bd f4 fe ff ff 00 	cmp    DWORD PTR [rbp-0x10c],0x0
    9c97:	75 4a                	jne    9ce3 <parseInst+0x9cf>
    9c99:	48 8b 85 58 fe ff ff 	mov    rax,QWORD PTR [rbp-0x1a8]
    9ca0:	c6 80 10 09 00 00 05 	mov    BYTE PTR [rax+0x910],0x5
    9ca7:	48 8b 85 58 fe ff ff 	mov    rax,QWORD PTR [rbp-0x1a8]
    9cae:	48 8d 90 11 09 00 00 	lea    rdx,[rax+0x911]
    9cb5:	8b 85 f8 fe ff ff    	mov    eax,DWORD PTR [rbp-0x108]
    9cbb:	48 89 d6             	mov    rsi,rdx
    9cbe:	89 c7                	mov    edi,eax
    9cc0:	e8 ca 94 ff ff       	call   318f <As32>
    9cc5:	48 8b 45 88          	mov    rax,QWORD PTR [rbp-0x78]
    9cc9:	c6 00 05             	mov    BYTE PTR [rax],0x5
    9ccc:	48 8b 05 ad 59 00 00 	mov    rax,QWORD PTR [rip+0x59ad]        # f680 <pc>
    9cd3:	48 83 c0 05          	add    rax,0x5
    9cd7:	48 89 05 a2 59 00 00 	mov    QWORD PTR [rip+0x59a2],rax        # f680 <pc>
    9cde:	e9 87 17 00 00       	jmp    b46a <parseInst+0x2156>
    9ce3:	83 bd f4 fe ff ff ff 	cmp    DWORD PTR [rbp-0x10c],0xffffffff
    9cea:	74 13                	je     9cff <parseInst+0x9eb>
    9cec:	8b 85 f4 fe ff ff    	mov    eax,DWORD PTR [rbp-0x10c]
    9cf2:	88 45 f3             	mov    BYTE PTR [rbp-0xd],al
    9cf5:	80 7d f3 07          	cmp    BYTE PTR [rbp-0xd],0x7
    9cf9:	76 04                	jbe    9cff <parseInst+0x9eb>
    9cfb:	c6 45 e1 41          	mov    BYTE PTR [rbp-0x1f],0x41
    9cff:	0f b6 45 f3          	movzx  eax,BYTE PTR [rbp-0xd]
    9d03:	83 e0 07             	and    eax,0x7
    9d06:	83 c8 c0             	or     eax,0xffffffc0
    9d09:	88 85 fe fe ff ff    	mov    BYTE PTR [rbp-0x102],al
    9d0f:	80 7d e1 00          	cmp    BYTE PTR [rbp-0x1f],0x0
    9d13:	74 1d                	je     9d32 <parseInst+0xa1e>
    9d15:	8b 45 f4             	mov    eax,DWORD PTR [rbp-0xc]
    9d18:	8d 50 01             	lea    edx,[rax+0x1]
    9d1b:	89 55 f4             	mov    DWORD PTR [rbp-0xc],edx
    9d1e:	48 8b 95 58 fe ff ff 	mov    rdx,QWORD PTR [rbp-0x1a8]
    9d25:	48 98                	cdqe
    9d27:	0f b6 4d e1          	movzx  ecx,BYTE PTR [rbp-0x1f]
    9d2b:	88 8c 02 10 09 00 00 	mov    BYTE PTR [rdx+rax*1+0x910],cl
    9d32:	8b 45 f4             	mov    eax,DWORD PTR [rbp-0xc]
    9d35:	8d 50 01             	lea    edx,[rax+0x1]
    9d38:	89 55 f4             	mov    DWORD PTR [rbp-0xc],edx
    9d3b:	48 8b 95 58 fe ff ff 	mov    rdx,QWORD PTR [rbp-0x1a8]
    9d42:	48 98                	cdqe
    9d44:	0f b6 8d ff fe ff ff 	movzx  ecx,BYTE PTR [rbp-0x101]
    9d4b:	88 8c 02 10 09 00 00 	mov    BYTE PTR [rdx+rax*1+0x910],cl
    9d52:	8b 45 f4             	mov    eax,DWORD PTR [rbp-0xc]
    9d55:	8d 50 01             	lea    edx,[rax+0x1]
    9d58:	89 55 f4             	mov    DWORD PTR [rbp-0xc],edx
    9d5b:	48 8b 95 58 fe ff ff 	mov    rdx,QWORD PTR [rbp-0x1a8]
    9d62:	48 98                	cdqe
    9d64:	0f b6 8d fe fe ff ff 	movzx  ecx,BYTE PTR [rbp-0x102]
    9d6b:	88 8c 02 10 09 00 00 	mov    BYTE PTR [rdx+rax*1+0x910],cl
    9d72:	8b 45 f4             	mov    eax,DWORD PTR [rbp-0xc]
    9d75:	48 98                	cdqe
    9d77:	48 8d 90 10 09 00 00 	lea    rdx,[rax+0x910]
    9d7e:	48 8b 85 58 fe ff ff 	mov    rax,QWORD PTR [rbp-0x1a8]
    9d85:	48 01 c2             	add    rdx,rax
    9d88:	8b 85 f8 fe ff ff    	mov    eax,DWORD PTR [rbp-0x108]
    9d8e:	48 89 d6             	mov    rsi,rdx
    9d91:	89 c7                	mov    edi,eax
    9d93:	e8 f7 93 ff ff       	call   318f <As32>
    9d98:	83 45 f4 04          	add    DWORD PTR [rbp-0xc],0x4
    9d9c:	8b 45 f4             	mov    eax,DWORD PTR [rbp-0xc]
    9d9f:	89 c2                	mov    edx,eax
    9da1:	48 8b 45 88          	mov    rax,QWORD PTR [rbp-0x78]
    9da5:	88 10                	mov    BYTE PTR [rax],dl
    9da7:	8b 45 f4             	mov    eax,DWORD PTR [rbp-0xc]
    9daa:	48 63 d0             	movsxd rdx,eax
    9dad:	48 8b 05 cc 58 00 00 	mov    rax,QWORD PTR [rip+0x58cc]        # f680 <pc>
    9db4:	48 01 d0             	add    rax,rdx
    9db7:	48 89 05 c2 58 00 00 	mov    QWORD PTR [rip+0x58c2],rax        # f680 <pc>
    9dbe:	e9 a7 16 00 00       	jmp    b46a <parseInst+0x2156>
    9dc3:	48 8b 85 58 fe ff ff 	mov    rax,QWORD PTR [rbp-0x1a8]
    9dca:	8b 80 94 01 00 00    	mov    eax,DWORD PTR [rax+0x194]
    9dd0:	83 f8 04             	cmp    eax,0x4
    9dd3:	0f 85 e3 01 00 00    	jne    9fbc <parseInst+0xca8>
    9dd9:	48 8b 85 58 fe ff ff 	mov    rax,QWORD PTR [rbp-0x1a8]
    9de0:	8b 80 98 01 00 00    	mov    eax,DWORD PTR [rax+0x198]
    9de6:	83 f8 07             	cmp    eax,0x7
    9de9:	0f 85 cd 01 00 00    	jne    9fbc <parseInst+0xca8>
    9def:	c6 85 f3 fe ff ff 81 	mov    BYTE PTR [rbp-0x10d],0x81
    9df6:	c6 85 f2 fe ff ff 00 	mov    BYTE PTR [rbp-0x10e],0x0
    9dfd:	c6 45 f2 00          	mov    BYTE PTR [rbp-0xe],0x0
    9e01:	c6 85 f1 fe ff ff 66 	mov    BYTE PTR [rbp-0x10f],0x66
    9e08:	48 8b 85 58 fe ff ff 	mov    rax,QWORD PTR [rbp-0x1a8]
    9e0f:	48 05 2b 01 00 00    	add    rax,0x12b
    9e15:	48 89 c7             	mov    rdi,rax
    9e18:	e8 33 83 ff ff       	call   2150 <atoi@plt>
    9e1d:	0f b7 c0             	movzx  eax,ax
    9e20:	89 85 ec fe ff ff    	mov    DWORD PTR [rbp-0x114],eax
    9e26:	c7 45 ec 00 00 00 00 	mov    DWORD PTR [rbp-0x14],0x0
    9e2d:	c6 45 ff 00          	mov    BYTE PTR [rbp-0x1],0x0
    9e31:	48 8b 85 58 fe ff ff 	mov    rax,QWORD PTR [rbp-0x1a8]
    9e38:	48 05 08 01 00 00    	add    rax,0x108
    9e3e:	48 89 c7             	mov    rdi,rax
    9e41:	e8 4c e7 ff ff       	call   8592 <find_reg16_index>
    9e46:	0f b6 c0             	movzx  eax,al
    9e49:	89 85 e8 fe ff ff    	mov    DWORD PTR [rbp-0x118],eax
    9e4f:	83 bd e8 fe ff ff 00 	cmp    DWORD PTR [rbp-0x118],0x0
    9e56:	75 61                	jne    9eb9 <parseInst+0xba5>
    9e58:	48 8b 85 58 fe ff ff 	mov    rax,QWORD PTR [rbp-0x1a8]
    9e5f:	0f b6 95 f1 fe ff ff 	movzx  edx,BYTE PTR [rbp-0x10f]
    9e66:	88 90 10 09 00 00    	mov    BYTE PTR [rax+0x910],dl
    9e6c:	48 8b 85 58 fe ff ff 	mov    rax,QWORD PTR [rbp-0x1a8]
    9e73:	c6 80 11 09 00 00 05 	mov    BYTE PTR [rax+0x911],0x5
    9e7a:	48 8b 85 58 fe ff ff 	mov    rax,QWORD PTR [rbp-0x1a8]
    9e81:	48 8d 90 12 09 00 00 	lea    rdx,[rax+0x912]
    9e88:	8b 85 ec fe ff ff    	mov    eax,DWORD PTR [rbp-0x114]
    9e8e:	0f b7 c0             	movzx  eax,ax
    9e91:	48 89 d6             	mov    rsi,rdx
    9e94:	89 c7                	mov    edi,eax
    9e96:	e8 c3 92 ff ff       	call   315e <As16>
    9e9b:	48 8b 45 88          	mov    rax,QWORD PTR [rbp-0x78]
    9e9f:	c6 00 04             	mov    BYTE PTR [rax],0x4
    9ea2:	48 8b 05 d7 57 00 00 	mov    rax,QWORD PTR [rip+0x57d7]        # f680 <pc>
    9ea9:	48 83 c0 04          	add    rax,0x4
    9ead:	48 89 05 cc 57 00 00 	mov    QWORD PTR [rip+0x57cc],rax        # f680 <pc>
    9eb4:	e9 b1 15 00 00       	jmp    b46a <parseInst+0x2156>
    9eb9:	83 bd e8 fe ff ff ff 	cmp    DWORD PTR [rbp-0x118],0xffffffff
    9ec0:	74 13                	je     9ed5 <parseInst+0xbc1>
    9ec2:	8b 85 e8 fe ff ff    	mov    eax,DWORD PTR [rbp-0x118]
    9ec8:	88 45 ff             	mov    BYTE PTR [rbp-0x1],al
    9ecb:	80 7d ff 07          	cmp    BYTE PTR [rbp-0x1],0x7
    9ecf:	76 04                	jbe    9ed5 <parseInst+0xbc1>
    9ed1:	c6 45 f2 41          	mov    BYTE PTR [rbp-0xe],0x41
    9ed5:	0f b6 45 ff          	movzx  eax,BYTE PTR [rbp-0x1]
    9ed9:	83 e0 07             	and    eax,0x7
    9edc:	83 c8 c0             	or     eax,0xffffffc0
    9edf:	88 85 f2 fe ff ff    	mov    BYTE PTR [rbp-0x10e],al
    9ee5:	8b 45 ec             	mov    eax,DWORD PTR [rbp-0x14]
    9ee8:	8d 50 01             	lea    edx,[rax+0x1]
    9eeb:	89 55 ec             	mov    DWORD PTR [rbp-0x14],edx
    9eee:	48 8b 95 58 fe ff ff 	mov    rdx,QWORD PTR [rbp-0x1a8]
    9ef5:	48 98                	cdqe
    9ef7:	0f b6 8d f1 fe ff ff 	movzx  ecx,BYTE PTR [rbp-0x10f]
    9efe:	88 8c 02 10 09 00 00 	mov    BYTE PTR [rdx+rax*1+0x910],cl
    9f05:	80 7d f2 00          	cmp    BYTE PTR [rbp-0xe],0x0
    9f09:	74 1d                	je     9f28 <parseInst+0xc14>
    9f0b:	8b 45 ec             	mov    eax,DWORD PTR [rbp-0x14]
    9f0e:	8d 50 01             	lea    edx,[rax+0x1]
    9f11:	89 55 ec             	mov    DWORD PTR [rbp-0x14],edx
    9f14:	48 8b 95 58 fe ff ff 	mov    rdx,QWORD PTR [rbp-0x1a8]
    9f1b:	48 98                	cdqe
    9f1d:	0f b6 4d f2          	movzx  ecx,BYTE PTR [rbp-0xe]
    9f21:	88 8c 02 10 09 00 00 	mov    BYTE PTR [rdx+rax*1+0x910],cl
    9f28:	8b 45 ec             	mov    eax,DWORD PTR [rbp-0x14]
    9f2b:	8d 50 01             	lea    edx,[rax+0x1]
    9f2e:	89 55 ec             	mov    DWORD PTR [rbp-0x14],edx
    9f31:	48 8b 95 58 fe ff ff 	mov    rdx,QWORD PTR [rbp-0x1a8]
    9f38:	48 98                	cdqe
    9f3a:	0f b6 8d f3 fe ff ff 	movzx  ecx,BYTE PTR [rbp-0x10d]
    9f41:	88 8c 02 10 09 00 00 	mov    BYTE PTR [rdx+rax*1+0x910],cl
    9f48:	8b 45 ec             	mov    eax,DWORD PTR [rbp-0x14]
    9f4b:	8d 50 01             	lea    edx,[rax+0x1]
    9f4e:	89 55 ec             	mov    DWORD PTR [rbp-0x14],edx
    9f51:	48 8b 95 58 fe ff ff 	mov    rdx,QWORD PTR [rbp-0x1a8]
    9f58:	48 98                	cdqe
    9f5a:	0f b6 8d f2 fe ff ff 	movzx  ecx,BYTE PTR [rbp-0x10e]
    9f61:	88 8c 02 10 09 00 00 	mov    BYTE PTR [rdx+rax*1+0x910],cl
    9f68:	8b 45 ec             	mov    eax,DWORD PTR [rbp-0x14]
    9f6b:	48 98                	cdqe
    9f6d:	48 8d 90 10 09 00 00 	lea    rdx,[rax+0x910]
    9f74:	48 8b 85 58 fe ff ff 	mov    rax,QWORD PTR [rbp-0x1a8]
    9f7b:	48 01 c2             	add    rdx,rax
    9f7e:	8b 85 ec fe ff ff    	mov    eax,DWORD PTR [rbp-0x114]
    9f84:	0f b7 c0             	movzx  eax,ax
    9f87:	48 89 d6             	mov    rsi,rdx
    9f8a:	89 c7                	mov    edi,eax
    9f8c:	e8 cd 91 ff ff       	call   315e <As16>
    9f91:	83 45 ec 02          	add    DWORD PTR [rbp-0x14],0x2
    9f95:	8b 45 ec             	mov    eax,DWORD PTR [rbp-0x14]
    9f98:	89 c2                	mov    edx,eax
    9f9a:	48 8b 45 88          	mov    rax,QWORD PTR [rbp-0x78]
    9f9e:	88 10                	mov    BYTE PTR [rax],dl
    9fa0:	8b 45 ec             	mov    eax,DWORD PTR [rbp-0x14]
    9fa3:	48 63 d0             	movsxd rdx,eax
    9fa6:	48 8b 05 d3 56 00 00 	mov    rax,QWORD PTR [rip+0x56d3]        # f680 <pc>
    9fad:	48 01 d0             	add    rax,rdx
    9fb0:	48 89 05 c9 56 00 00 	mov    QWORD PTR [rip+0x56c9],rax        # f680 <pc>
    9fb7:	e9 ae 14 00 00       	jmp    b46a <parseInst+0x2156>
    9fbc:	48 8b 85 58 fe ff ff 	mov    rax,QWORD PTR [rbp-0x1a8]
    9fc3:	8b 80 94 01 00 00    	mov    eax,DWORD PTR [rax+0x194]
    9fc9:	83 f8 03             	cmp    eax,0x3
    9fcc:	0f 85 98 14 00 00    	jne    b46a <parseInst+0x2156>
    9fd2:	48 8b 85 58 fe ff ff 	mov    rax,QWORD PTR [rbp-0x1a8]
    9fd9:	8b 80 98 01 00 00    	mov    eax,DWORD PTR [rax+0x198]
    9fdf:	83 f8 07             	cmp    eax,0x7
    9fe2:	74 16                	je     9ffa <parseInst+0xce6>
    9fe4:	48 8b 85 58 fe ff ff 	mov    rax,QWORD PTR [rbp-0x1a8]
    9feb:	8b 80 98 01 00 00    	mov    eax,DWORD PTR [rax+0x198]
    9ff1:	83 f8 0a             	cmp    eax,0xa
    9ff4:	0f 85 70 14 00 00    	jne    b46a <parseInst+0x2156>
    9ffa:	c6 85 e7 fe ff ff 80 	mov    BYTE PTR [rbp-0x119],0x80
    a001:	c6 85 e6 fe ff ff 00 	mov    BYTE PTR [rbp-0x11a],0x0
    a008:	c6 45 fe 00          	mov    BYTE PTR [rbp-0x2],0x0
    a00c:	48 8b 85 58 fe ff ff 	mov    rax,QWORD PTR [rbp-0x1a8]
    a013:	48 05 2b 01 00 00    	add    rax,0x12b
    a019:	48 89 c7             	mov    rdi,rax
    a01c:	e8 2f 81 ff ff       	call   2150 <atoi@plt>
    a021:	88 85 e5 fe ff ff    	mov    BYTE PTR [rbp-0x11b],al
    a027:	c7 45 f8 00 00 00 00 	mov    DWORD PTR [rbp-0x8],0x0
    a02e:	c6 45 e0 00          	mov    BYTE PTR [rbp-0x20],0x0
    a032:	48 8d 05 98 2f 00 00 	lea    rax,[rip+0x2f98]        # cfd1 <_IO_stdin_used+0xfd1>
    a039:	48 89 85 60 fe ff ff 	mov    QWORD PTR [rbp-0x1a0],rax
    a040:	48 8d 05 8d 2f 00 00 	lea    rax,[rip+0x2f8d]        # cfd4 <_IO_stdin_used+0xfd4>
    a047:	48 89 85 68 fe ff ff 	mov    QWORD PTR [rbp-0x198],rax
    a04e:	48 8d 05 82 2f 00 00 	lea    rax,[rip+0x2f82]        # cfd7 <_IO_stdin_used+0xfd7>
    a055:	48 89 85 70 fe ff ff 	mov    QWORD PTR [rbp-0x190],rax
    a05c:	48 8d 05 77 2f 00 00 	lea    rax,[rip+0x2f77]        # cfda <_IO_stdin_used+0xfda>
    a063:	48 89 85 78 fe ff ff 	mov    QWORD PTR [rbp-0x188],rax
    a06a:	48 c7 85 80 fe ff ff 	mov    QWORD PTR [rbp-0x180],0x0
    a071:	00 00 00 00 
    a075:	c7 45 dc 00 00 00 00 	mov    DWORD PTR [rbp-0x24],0x0
    a07c:	eb 5b                	jmp    a0d9 <parseInst+0xdc5>
    a07e:	8b 45 dc             	mov    eax,DWORD PTR [rbp-0x24]
    a081:	48 98                	cdqe
    a083:	48 8b 84 c5 60 fe ff 	mov    rax,QWORD PTR [rbp+rax*8-0x1a0]
    a08a:	ff 
    a08b:	48 8b 95 58 fe ff ff 	mov    rdx,QWORD PTR [rbp-0x1a8]
    a092:	48 81 c2 08 01 00 00 	add    rdx,0x108
    a099:	48 89 c6             	mov    rsi,rax
    a09c:	48 89 d7             	mov    rdi,rdx
    a09f:	e8 ac 7f ff ff       	call   2050 <strcasecmp@plt>
    a0a4:	85 c0                	test   eax,eax
    a0a6:	75 2d                	jne    a0d5 <parseInst+0xdc1>
    a0a8:	48 8b 05 b1 55 00 00 	mov    rax,QWORD PTR [rip+0x55b1]        # f660 <stderr@GLIBC_2.2.5>
    a0af:	48 89 c1             	mov    rcx,rax
    a0b2:	ba 43 00 00 00       	mov    edx,0x43
    a0b7:	be 01 00 00 00       	mov    esi,0x1
    a0bc:	48 8d 05 1d 2f 00 00 	lea    rax,[rip+0x2f1d]        # cfe0 <_IO_stdin_used+0xfe0>
    a0c3:	48 89 c7             	mov    rdi,rax
    a0c6:	e8 a5 80 ff ff       	call   2170 <fwrite@plt>
    a0cb:	bf 01 00 00 00       	mov    edi,0x1
    a0d0:	e8 8b 80 ff ff       	call   2160 <exit@plt>
    a0d5:	83 45 dc 01          	add    DWORD PTR [rbp-0x24],0x1
    a0d9:	8b 45 dc             	mov    eax,DWORD PTR [rbp-0x24]
    a0dc:	48 98                	cdqe
    a0de:	48 8b 84 c5 60 fe ff 	mov    rax,QWORD PTR [rbp+rax*8-0x1a0]
    a0e5:	ff 
    a0e6:	48 85 c0             	test   rax,rax
    a0e9:	75 93                	jne    a07e <parseInst+0xd6a>
    a0eb:	48 8b 85 58 fe ff ff 	mov    rax,QWORD PTR [rbp-0x1a8]
    a0f2:	48 05 08 01 00 00    	add    rax,0x108
    a0f8:	48 89 c7             	mov    rdi,rax
    a0fb:	e8 2e e5 ff ff       	call   862e <find_reg8_index>
    a100:	0f b6 c0             	movzx  eax,al
    a103:	89 85 e0 fe ff ff    	mov    DWORD PTR [rbp-0x120],eax
    a109:	83 bd e0 fe ff ff 00 	cmp    DWORD PTR [rbp-0x120],0x0
    a110:	75 40                	jne    a152 <parseInst+0xe3e>
    a112:	48 8b 85 58 fe ff ff 	mov    rax,QWORD PTR [rbp-0x1a8]
    a119:	c6 80 10 09 00 00 04 	mov    BYTE PTR [rax+0x910],0x4
    a120:	48 8b 85 58 fe ff ff 	mov    rax,QWORD PTR [rbp-0x1a8]
    a127:	0f b6 95 e5 fe ff ff 	movzx  edx,BYTE PTR [rbp-0x11b]
    a12e:	88 90 11 09 00 00    	mov    BYTE PTR [rax+0x911],dl
    a134:	48 8b 45 88          	mov    rax,QWORD PTR [rbp-0x78]
    a138:	c6 00 02             	mov    BYTE PTR [rax],0x2
    a13b:	48 8b 05 3e 55 00 00 	mov    rax,QWORD PTR [rip+0x553e]        # f680 <pc>
    a142:	48 83 c0 02          	add    rax,0x2
    a146:	48 89 05 33 55 00 00 	mov    QWORD PTR [rip+0x5533],rax        # f680 <pc>
    a14d:	e9 18 13 00 00       	jmp    b46a <parseInst+0x2156>
    a152:	83 bd e0 fe ff ff ff 	cmp    DWORD PTR [rbp-0x120],0xffffffff
    a159:	74 25                	je     a180 <parseInst+0xe6c>
    a15b:	8b 85 e0 fe ff ff    	mov    eax,DWORD PTR [rbp-0x120]
    a161:	88 45 e0             	mov    BYTE PTR [rbp-0x20],al
    a164:	80 7d e0 03          	cmp    BYTE PTR [rbp-0x20],0x3
    a168:	76 0c                	jbe    a176 <parseInst+0xe62>
    a16a:	80 7d e0 07          	cmp    BYTE PTR [rbp-0x20],0x7
    a16e:	77 06                	ja     a176 <parseInst+0xe62>
    a170:	c6 45 fe 40          	mov    BYTE PTR [rbp-0x2],0x40
    a174:	eb 0a                	jmp    a180 <parseInst+0xe6c>
    a176:	80 7d e0 07          	cmp    BYTE PTR [rbp-0x20],0x7
    a17a:	76 04                	jbe    a180 <parseInst+0xe6c>
    a17c:	c6 45 fe 41          	mov    BYTE PTR [rbp-0x2],0x41
    a180:	0f b6 45 e0          	movzx  eax,BYTE PTR [rbp-0x20]
    a184:	83 e0 07             	and    eax,0x7
    a187:	83 c8 c0             	or     eax,0xffffffc0
    a18a:	88 85 e6 fe ff ff    	mov    BYTE PTR [rbp-0x11a],al
    a190:	80 7d fe 00          	cmp    BYTE PTR [rbp-0x2],0x0
    a194:	74 1d                	je     a1b3 <parseInst+0xe9f>
    a196:	8b 45 f8             	mov    eax,DWORD PTR [rbp-0x8]
    a199:	8d 50 01             	lea    edx,[rax+0x1]
    a19c:	89 55 f8             	mov    DWORD PTR [rbp-0x8],edx
    a19f:	48 8b 95 58 fe ff ff 	mov    rdx,QWORD PTR [rbp-0x1a8]
    a1a6:	48 98                	cdqe
    a1a8:	0f b6 4d fe          	movzx  ecx,BYTE PTR [rbp-0x2]
    a1ac:	88 8c 02 10 09 00 00 	mov    BYTE PTR [rdx+rax*1+0x910],cl
    a1b3:	8b 45 f8             	mov    eax,DWORD PTR [rbp-0x8]
    a1b6:	8d 50 01             	lea    edx,[rax+0x1]
    a1b9:	89 55 f8             	mov    DWORD PTR [rbp-0x8],edx
    a1bc:	48 8b 95 58 fe ff ff 	mov    rdx,QWORD PTR [rbp-0x1a8]
    a1c3:	48 98                	cdqe
    a1c5:	0f b6 8d e7 fe ff ff 	movzx  ecx,BYTE PTR [rbp-0x119]
    a1cc:	88 8c 02 10 09 00 00 	mov    BYTE PTR [rdx+rax*1+0x910],cl
    a1d3:	8b 45 f8             	mov    eax,DWORD PTR [rbp-0x8]
    a1d6:	8d 50 01             	lea    edx,[rax+0x1]
    a1d9:	89 55 f8             	mov    DWORD PTR [rbp-0x8],edx
    a1dc:	48 8b 95 58 fe ff ff 	mov    rdx,QWORD PTR [rbp-0x1a8]
    a1e3:	48 98                	cdqe
    a1e5:	0f b6 8d e6 fe ff ff 	movzx  ecx,BYTE PTR [rbp-0x11a]
    a1ec:	88 8c 02 10 09 00 00 	mov    BYTE PTR [rdx+rax*1+0x910],cl
    a1f3:	8b 45 f8             	mov    eax,DWORD PTR [rbp-0x8]
    a1f6:	8d 50 01             	lea    edx,[rax+0x1]
    a1f9:	89 55 f8             	mov    DWORD PTR [rbp-0x8],edx
    a1fc:	48 8b 95 58 fe ff ff 	mov    rdx,QWORD PTR [rbp-0x1a8]
    a203:	48 98                	cdqe
    a205:	0f b6 8d e5 fe ff ff 	movzx  ecx,BYTE PTR [rbp-0x11b]
    a20c:	88 8c 02 10 09 00 00 	mov    BYTE PTR [rdx+rax*1+0x910],cl
    a213:	8b 45 f8             	mov    eax,DWORD PTR [rbp-0x8]
    a216:	89 c2                	mov    edx,eax
    a218:	48 8b 45 88          	mov    rax,QWORD PTR [rbp-0x78]
    a21c:	88 10                	mov    BYTE PTR [rax],dl
    a21e:	8b 45 f8             	mov    eax,DWORD PTR [rbp-0x8]
    a221:	48 63 d0             	movsxd rdx,eax
    a224:	48 8b 05 55 54 00 00 	mov    rax,QWORD PTR [rip+0x5455]        # f680 <pc>
    a22b:	48 01 d0             	add    rax,rdx
    a22e:	48 89 05 4b 54 00 00 	mov    QWORD PTR [rip+0x544b],rax        # f680 <pc>
    a235:	e9 30 12 00 00       	jmp    b46a <parseInst+0x2156>
    a23a:	48 8b 85 58 fe ff ff 	mov    rax,QWORD PTR [rbp-0x1a8]
    a241:	48 83 c0 04          	add    rax,0x4
    a245:	48 8d 15 d6 1d 00 00 	lea    rdx,[rip+0x1dd6]        # c022 <_IO_stdin_used+0x22>
    a24c:	48 89 d6             	mov    rsi,rdx
    a24f:	48 89 c7             	mov    rdi,rax
    a252:	e8 f9 7d ff ff       	call   2050 <strcasecmp@plt>
    a257:	85 c0                	test   eax,eax
    a259:	74 25                	je     a280 <parseInst+0xf6c>
    a25b:	48 8b 85 58 fe ff ff 	mov    rax,QWORD PTR [rbp-0x1a8]
    a262:	48 83 c0 04          	add    rax,0x4
    a266:	48 8d 15 b0 1d 00 00 	lea    rdx,[rip+0x1db0]        # c01d <_IO_stdin_used+0x1d>
    a26d:	48 89 d6             	mov    rsi,rdx
    a270:	48 89 c7             	mov    rdi,rax
    a273:	e8 d8 7d ff ff       	call   2050 <strcasecmp@plt>
    a278:	85 c0                	test   eax,eax
    a27a:	0f 85 87 01 00 00    	jne    a407 <parseInst+0x10f3>
    a280:	48 8b 85 58 fe ff ff 	mov    rax,QWORD PTR [rbp-0x1a8]
    a287:	8b 80 94 01 00 00    	mov    eax,DWORD PTR [rax+0x194]
    a28d:	83 f8 09             	cmp    eax,0x9
    a290:	0f 85 90 00 00 00    	jne    a326 <parseInst+0x1012>
    a296:	48 8b 85 58 fe ff ff 	mov    rax,QWORD PTR [rbp-0x1a8]
    a29d:	48 83 c0 04          	add    rax,0x4
    a2a1:	48 8d 15 7a 1d 00 00 	lea    rdx,[rip+0x1d7a]        # c022 <_IO_stdin_used+0x22>
    a2a8:	48 89 d6             	mov    rsi,rdx
    a2ab:	48 89 c7             	mov    rdi,rax
    a2ae:	e8 9d 7d ff ff       	call   2050 <strcasecmp@plt>
    a2b3:	85 c0                	test   eax,eax
    a2b5:	75 07                	jne    a2be <parseInst+0xfaa>
    a2b7:	b8 e9 ff ff ff       	mov    eax,0xffffffe9
    a2bc:	eb 05                	jmp    a2c3 <parseInst+0xfaf>
    a2be:	b8 e8 ff ff ff       	mov    eax,0xffffffe8
    a2c3:	88 85 0f ff ff ff    	mov    BYTE PTR [rbp-0xf1],al
    a2c9:	48 8b 85 58 fe ff ff 	mov    rax,QWORD PTR [rbp-0x1a8]
    a2d0:	0f b6 95 0f ff ff ff 	movzx  edx,BYTE PTR [rbp-0xf1]
    a2d7:	88 90 10 09 00 00    	mov    BYTE PTR [rax+0x910],dl
    a2dd:	48 8b 85 58 fe ff ff 	mov    rax,QWORD PTR [rbp-0x1a8]
    a2e4:	48 05 11 09 00 00    	add    rax,0x911
    a2ea:	48 89 c6             	mov    rsi,rax
    a2ed:	bf 00 00 00 00       	mov    edi,0x0
    a2f2:	e8 98 8e ff ff       	call   318f <As32>
    a2f7:	48 8b 45 88          	mov    rax,QWORD PTR [rbp-0x78]
    a2fb:	c6 00 05             	mov    BYTE PTR [rax],0x5
    a2fe:	48 8b 05 7b 53 00 00 	mov    rax,QWORD PTR [rip+0x537b]        # f680 <pc>
    a305:	48 83 c0 05          	add    rax,0x5
    a309:	48 89 05 70 53 00 00 	mov    QWORD PTR [rip+0x5370],rax        # f680 <pc>
    a310:	48 8b 85 58 fe ff ff 	mov    rax,QWORD PTR [rbp-0x1a8]
    a317:	c7 80 a8 01 00 00 00 	mov    DWORD PTR [rax+0x1a8],0x0
    a31e:	00 00 00 
    a321:	e9 44 11 00 00       	jmp    b46a <parseInst+0x2156>
    a326:	48 8b 85 58 fe ff ff 	mov    rax,QWORD PTR [rbp-0x1a8]
    a32d:	8b 80 94 01 00 00    	mov    eax,DWORD PTR [rax+0x194]
    a333:	83 f8 06             	cmp    eax,0x6
    a336:	0f 85 2d 11 00 00    	jne    b469 <parseInst+0x2155>
    a33c:	c6 45 db 48          	mov    BYTE PTR [rbp-0x25],0x48
    a340:	c6 85 17 ff ff ff ff 	mov    BYTE PTR [rbp-0xe9],0xff
    a347:	48 8b 85 58 fe ff ff 	mov    rax,QWORD PTR [rbp-0x1a8]
    a34e:	48 05 08 01 00 00    	add    rax,0x108
    a354:	48 89 c7             	mov    rdi,rax
    a357:	e8 fe e0 ff ff       	call   845a <find_reg64_index>
    a35c:	0f b6 c0             	movzx  eax,al
    a35f:	89 85 10 ff ff ff    	mov    DWORD PTR [rbp-0xf0],eax
    a365:	83 bd 10 ff ff ff 07 	cmp    DWORD PTR [rbp-0xf0],0x7
    a36c:	7e 04                	jle    a372 <parseInst+0x105e>
    a36e:	80 4d db 01          	or     BYTE PTR [rbp-0x25],0x1
    a372:	48 8b 85 58 fe ff ff 	mov    rax,QWORD PTR [rbp-0x1a8]
    a379:	48 83 c0 04          	add    rax,0x4
    a37d:	48 8d 15 9e 1c 00 00 	lea    rdx,[rip+0x1c9e]        # c022 <_IO_stdin_used+0x22>
    a384:	48 89 d6             	mov    rsi,rdx
    a387:	48 89 c7             	mov    rdi,rax
    a38a:	e8 c1 7c ff ff       	call   2050 <strcasecmp@plt>
    a38f:	85 c0                	test   eax,eax
    a391:	75 11                	jne    a3a4 <parseInst+0x1090>
    a393:	8b 85 10 ff ff ff    	mov    eax,DWORD PTR [rbp-0xf0]
    a399:	83 e0 07             	and    eax,0x7
    a39c:	83 c8 e0             	or     eax,0xffffffe0
    a39f:	88 45 da             	mov    BYTE PTR [rbp-0x26],al
    a3a2:	eb 0f                	jmp    a3b3 <parseInst+0x109f>
    a3a4:	8b 85 10 ff ff ff    	mov    eax,DWORD PTR [rbp-0xf0]
    a3aa:	83 e0 07             	and    eax,0x7
    a3ad:	83 c8 d0             	or     eax,0xffffffd0
    a3b0:	88 45 da             	mov    BYTE PTR [rbp-0x26],al
    a3b3:	48 8b 85 58 fe ff ff 	mov    rax,QWORD PTR [rbp-0x1a8]
    a3ba:	0f b6 55 db          	movzx  edx,BYTE PTR [rbp-0x25]
    a3be:	88 90 10 09 00 00    	mov    BYTE PTR [rax+0x910],dl
    a3c4:	48 8b 85 58 fe ff ff 	mov    rax,QWORD PTR [rbp-0x1a8]
    a3cb:	0f b6 95 17 ff ff ff 	movzx  edx,BYTE PTR [rbp-0xe9]
    a3d2:	88 90 11 09 00 00    	mov    BYTE PTR [rax+0x911],dl
    a3d8:	48 8b 85 58 fe ff ff 	mov    rax,QWORD PTR [rbp-0x1a8]
    a3df:	0f b6 55 da          	movzx  edx,BYTE PTR [rbp-0x26]
    a3e3:	88 90 12 09 00 00    	mov    BYTE PTR [rax+0x912],dl
    a3e9:	48 8b 45 88          	mov    rax,QWORD PTR [rbp-0x78]
    a3ed:	c6 00 03             	mov    BYTE PTR [rax],0x3
    a3f0:	48 8b 05 89 52 00 00 	mov    rax,QWORD PTR [rip+0x5289]        # f680 <pc>
    a3f7:	48 83 c0 03          	add    rax,0x3
    a3fb:	48 89 05 7e 52 00 00 	mov    QWORD PTR [rip+0x527e],rax        # f680 <pc>
    a402:	e9 63 10 00 00       	jmp    b46a <parseInst+0x2156>
    a407:	48 8b 85 58 fe ff ff 	mov    rax,QWORD PTR [rbp-0x1a8]
    a40e:	48 83 c0 04          	add    rax,0x4
    a412:	48 8d 15 42 1c 00 00 	lea    rdx,[rip+0x1c42]        # c05b <_IO_stdin_used+0x5b>
    a419:	48 89 d6             	mov    rsi,rdx
    a41c:	48 89 c7             	mov    rdi,rax
    a41f:	e8 2c 7c ff ff       	call   2050 <strcasecmp@plt>
    a424:	85 c0                	test   eax,eax
    a426:	0f 85 3c 0d 00 00    	jne    b168 <parseInst+0x1e54>
    a42c:	48 8b 85 58 fe ff ff 	mov    rax,QWORD PTR [rbp-0x1a8]
    a433:	8b 80 94 01 00 00    	mov    eax,DWORD PTR [rax+0x194]
    a439:	83 f8 06             	cmp    eax,0x6
    a43c:	0f 85 ec 01 00 00    	jne    a62e <parseInst+0x131a>
    a442:	48 8b 85 58 fe ff ff 	mov    rax,QWORD PTR [rbp-0x1a8]
    a449:	8b 80 98 01 00 00    	mov    eax,DWORD PTR [rax+0x198]
    a44f:	83 f8 07             	cmp    eax,0x7
    a452:	0f 85 d6 01 00 00    	jne    a62e <parseInst+0x131a>
    a458:	c6 45 d9 48          	mov    BYTE PTR [rbp-0x27],0x48
    a45c:	c6 45 83 81          	mov    BYTE PTR [rbp-0x7d],0x81
    a460:	c6 45 82 83          	mov    BYTE PTR [rbp-0x7e],0x83
    a464:	c6 45 81 00          	mov    BYTE PTR [rbp-0x7f],0x0
    a468:	48 8b 85 58 fe ff ff 	mov    rax,QWORD PTR [rbp-0x1a8]
    a46f:	48 05 2b 01 00 00    	add    rax,0x12b
    a475:	48 89 c7             	mov    rdi,rax
    a478:	e8 d3 7c ff ff       	call   2150 <atoi@plt>
    a47d:	89 85 7c ff ff ff    	mov    DWORD PTR [rbp-0x84],eax
    a483:	c7 85 78 ff ff ff 00 	mov    DWORD PTR [rbp-0x88],0x0
    a48a:	00 00 00 
    a48d:	48 8b 85 58 fe ff ff 	mov    rax,QWORD PTR [rbp-0x1a8]
    a494:	48 05 08 01 00 00    	add    rax,0x108
    a49a:	48 89 c7             	mov    rdi,rax
    a49d:	e8 b8 df ff ff       	call   845a <find_reg64_index>
    a4a2:	0f b6 c0             	movzx  eax,al
    a4a5:	89 85 74 ff ff ff    	mov    DWORD PTR [rbp-0x8c],eax
    a4ab:	83 bd 74 ff ff ff 07 	cmp    DWORD PTR [rbp-0x8c],0x7
    a4b2:	7e 04                	jle    a4b8 <parseInst+0x11a4>
    a4b4:	80 4d d9 01          	or     BYTE PTR [rbp-0x27],0x1
    a4b8:	83 bd 74 ff ff ff 00 	cmp    DWORD PTR [rbp-0x8c],0x0
    a4bf:	0f 85 a0 00 00 00    	jne    a565 <parseInst+0x1251>
    a4c5:	8b 85 78 ff ff ff    	mov    eax,DWORD PTR [rbp-0x88]
    a4cb:	8d 50 01             	lea    edx,[rax+0x1]
    a4ce:	89 95 78 ff ff ff    	mov    DWORD PTR [rbp-0x88],edx
    a4d4:	48 8b 95 58 fe ff ff 	mov    rdx,QWORD PTR [rbp-0x1a8]
    a4db:	48 98                	cdqe
    a4dd:	0f b6 4d d9          	movzx  ecx,BYTE PTR [rbp-0x27]
    a4e1:	88 8c 02 10 09 00 00 	mov    BYTE PTR [rdx+rax*1+0x910],cl
    a4e8:	8b 85 78 ff ff ff    	mov    eax,DWORD PTR [rbp-0x88]
    a4ee:	8d 50 01             	lea    edx,[rax+0x1]
    a4f1:	89 95 78 ff ff ff    	mov    DWORD PTR [rbp-0x88],edx
    a4f7:	48 8b 95 58 fe ff ff 	mov    rdx,QWORD PTR [rbp-0x1a8]
    a4fe:	48 98                	cdqe
    a500:	c6 84 02 10 09 00 00 	mov    BYTE PTR [rdx+rax*1+0x910],0x3d
    a507:	3d 
    a508:	8b 85 78 ff ff ff    	mov    eax,DWORD PTR [rbp-0x88]
    a50e:	48 98                	cdqe
    a510:	48 8d 90 10 09 00 00 	lea    rdx,[rax+0x910]
    a517:	48 8b 85 58 fe ff ff 	mov    rax,QWORD PTR [rbp-0x1a8]
    a51e:	48 01 c2             	add    rdx,rax
    a521:	8b 85 7c ff ff ff    	mov    eax,DWORD PTR [rbp-0x84]
    a527:	48 89 d6             	mov    rsi,rdx
    a52a:	89 c7                	mov    edi,eax
    a52c:	e8 5e 8c ff ff       	call   318f <As32>
    a531:	83 85 78 ff ff ff 04 	add    DWORD PTR [rbp-0x88],0x4
    a538:	8b 85 78 ff ff ff    	mov    eax,DWORD PTR [rbp-0x88]
    a53e:	89 c2                	mov    edx,eax
    a540:	48 8b 45 88          	mov    rax,QWORD PTR [rbp-0x78]
    a544:	88 10                	mov    BYTE PTR [rax],dl
    a546:	8b 85 78 ff ff ff    	mov    eax,DWORD PTR [rbp-0x88]
    a54c:	48 63 d0             	movsxd rdx,eax
    a54f:	48 8b 05 2a 51 00 00 	mov    rax,QWORD PTR [rip+0x512a]        # f680 <pc>
    a556:	48 01 d0             	add    rax,rdx
    a559:	48 89 05 20 51 00 00 	mov    QWORD PTR [rip+0x5120],rax        # f680 <pc>
    a560:	e9 05 0f 00 00       	jmp    b46a <parseInst+0x2156>
    a565:	8b 85 74 ff ff ff    	mov    eax,DWORD PTR [rbp-0x8c]
    a56b:	83 c8 f8             	or     eax,0xfffffff8
    a56e:	88 45 81             	mov    BYTE PTR [rbp-0x7f],al
    a571:	8b 85 78 ff ff ff    	mov    eax,DWORD PTR [rbp-0x88]
    a577:	8d 50 01             	lea    edx,[rax+0x1]
    a57a:	89 95 78 ff ff ff    	mov    DWORD PTR [rbp-0x88],edx
    a580:	48 8b 95 58 fe ff ff 	mov    rdx,QWORD PTR [rbp-0x1a8]
    a587:	48 98                	cdqe
    a589:	0f b6 4d d9          	movzx  ecx,BYTE PTR [rbp-0x27]
    a58d:	88 8c 02 10 09 00 00 	mov    BYTE PTR [rdx+rax*1+0x910],cl
    a594:	8b 85 78 ff ff ff    	mov    eax,DWORD PTR [rbp-0x88]
    a59a:	8d 50 01             	lea    edx,[rax+0x1]
    a59d:	89 95 78 ff ff ff    	mov    DWORD PTR [rbp-0x88],edx
    a5a3:	48 8b 95 58 fe ff ff 	mov    rdx,QWORD PTR [rbp-0x1a8]
    a5aa:	48 98                	cdqe
    a5ac:	0f b6 4d 82          	movzx  ecx,BYTE PTR [rbp-0x7e]
    a5b0:	88 8c 02 10 09 00 00 	mov    BYTE PTR [rdx+rax*1+0x910],cl
    a5b7:	8b 85 78 ff ff ff    	mov    eax,DWORD PTR [rbp-0x88]
    a5bd:	8d 50 01             	lea    edx,[rax+0x1]
    a5c0:	89 95 78 ff ff ff    	mov    DWORD PTR [rbp-0x88],edx
    a5c6:	48 8b 95 58 fe ff ff 	mov    rdx,QWORD PTR [rbp-0x1a8]
    a5cd:	48 98                	cdqe
    a5cf:	0f b6 4d 81          	movzx  ecx,BYTE PTR [rbp-0x7f]
    a5d3:	88 8c 02 10 09 00 00 	mov    BYTE PTR [rdx+rax*1+0x910],cl
    a5da:	8b 85 78 ff ff ff    	mov    eax,DWORD PTR [rbp-0x88]
    a5e0:	8d 50 01             	lea    edx,[rax+0x1]
    a5e3:	89 95 78 ff ff ff    	mov    DWORD PTR [rbp-0x88],edx
    a5e9:	8b 95 7c ff ff ff    	mov    edx,DWORD PTR [rbp-0x84]
    a5ef:	89 d1                	mov    ecx,edx
    a5f1:	48 8b 95 58 fe ff ff 	mov    rdx,QWORD PTR [rbp-0x1a8]
    a5f8:	48 98                	cdqe
    a5fa:	88 8c 02 10 09 00 00 	mov    BYTE PTR [rdx+rax*1+0x910],cl
    a601:	8b 85 78 ff ff ff    	mov    eax,DWORD PTR [rbp-0x88]
    a607:	89 c2                	mov    edx,eax
    a609:	48 8b 45 88          	mov    rax,QWORD PTR [rbp-0x78]
    a60d:	88 10                	mov    BYTE PTR [rax],dl
    a60f:	8b 85 78 ff ff ff    	mov    eax,DWORD PTR [rbp-0x88]
    a615:	48 63 d0             	movsxd rdx,eax
    a618:	48 8b 05 61 50 00 00 	mov    rax,QWORD PTR [rip+0x5061]        # f680 <pc>
    a61f:	48 01 d0             	add    rax,rdx
    a622:	48 89 05 57 50 00 00 	mov    QWORD PTR [rip+0x5057],rax        # f680 <pc>
    a629:	e9 3c 0e 00 00       	jmp    b46a <parseInst+0x2156>
    a62e:	48 8b 85 58 fe ff ff 	mov    rax,QWORD PTR [rbp-0x1a8]
    a635:	8b 80 94 01 00 00    	mov    eax,DWORD PTR [rax+0x194]
    a63b:	83 f8 05             	cmp    eax,0x5
    a63e:	0f 85 ad 01 00 00    	jne    a7f1 <parseInst+0x14dd>
    a644:	48 8b 85 58 fe ff ff 	mov    rax,QWORD PTR [rbp-0x1a8]
    a64b:	8b 80 98 01 00 00    	mov    eax,DWORD PTR [rax+0x198]
    a651:	83 f8 07             	cmp    eax,0x7
    a654:	0f 85 97 01 00 00    	jne    a7f1 <parseInst+0x14dd>
    a65a:	c6 45 d8 00          	mov    BYTE PTR [rbp-0x28],0x0
    a65e:	c6 85 73 ff ff ff 81 	mov    BYTE PTR [rbp-0x8d],0x81
    a665:	c6 85 72 ff ff ff 83 	mov    BYTE PTR [rbp-0x8e],0x83
    a66c:	c6 85 71 ff ff ff 00 	mov    BYTE PTR [rbp-0x8f],0x0
    a673:	48 8b 85 58 fe ff ff 	mov    rax,QWORD PTR [rbp-0x1a8]
    a67a:	48 05 2b 01 00 00    	add    rax,0x12b
    a680:	48 89 c7             	mov    rdi,rax
    a683:	e8 63 82 ff ff       	call   28eb <eval_expr>
    a688:	48 89 85 68 ff ff ff 	mov    QWORD PTR [rbp-0x98],rax
    a68f:	c7 45 d4 00 00 00 00 	mov    DWORD PTR [rbp-0x2c],0x0
    a696:	48 8b 85 58 fe ff ff 	mov    rax,QWORD PTR [rbp-0x1a8]
    a69d:	48 05 08 01 00 00    	add    rax,0x108
    a6a3:	48 89 c7             	mov    rdi,rax
    a6a6:	e8 4b de ff ff       	call   84f6 <find_reg32_index>
    a6ab:	0f b6 c0             	movzx  eax,al
    a6ae:	89 85 64 ff ff ff    	mov    DWORD PTR [rbp-0x9c],eax
    a6b4:	83 bd 64 ff ff ff 07 	cmp    DWORD PTR [rbp-0x9c],0x7
    a6bb:	7e 04                	jle    a6c1 <parseInst+0x13ad>
    a6bd:	80 4d d8 41          	or     BYTE PTR [rbp-0x28],0x41
    a6c1:	83 bd 64 ff ff ff 00 	cmp    DWORD PTR [rbp-0x9c],0x0
    a6c8:	75 6c                	jne    a736 <parseInst+0x1422>
    a6ca:	8b 45 d4             	mov    eax,DWORD PTR [rbp-0x2c]
    a6cd:	8d 50 01             	lea    edx,[rax+0x1]
    a6d0:	89 55 d4             	mov    DWORD PTR [rbp-0x2c],edx
    a6d3:	48 8b 95 58 fe ff ff 	mov    rdx,QWORD PTR [rbp-0x1a8]
    a6da:	48 98                	cdqe
    a6dc:	c6 84 02 10 09 00 00 	mov    BYTE PTR [rdx+rax*1+0x910],0x3d
    a6e3:	3d 
    a6e4:	8b 45 d4             	mov    eax,DWORD PTR [rbp-0x2c]
    a6e7:	48 98                	cdqe
    a6e9:	48 8d 90 10 09 00 00 	lea    rdx,[rax+0x910]
    a6f0:	48 8b 85 58 fe ff ff 	mov    rax,QWORD PTR [rbp-0x1a8]
    a6f7:	48 01 d0             	add    rax,rdx
    a6fa:	48 8b 95 68 ff ff ff 	mov    rdx,QWORD PTR [rbp-0x98]
    a701:	48 89 c6             	mov    rsi,rax
    a704:	89 d7                	mov    edi,edx
    a706:	e8 84 8a ff ff       	call   318f <As32>
    a70b:	83 45 d4 04          	add    DWORD PTR [rbp-0x2c],0x4
    a70f:	8b 45 d4             	mov    eax,DWORD PTR [rbp-0x2c]
    a712:	89 c2                	mov    edx,eax
    a714:	48 8b 45 88          	mov    rax,QWORD PTR [rbp-0x78]
    a718:	88 10                	mov    BYTE PTR [rax],dl
    a71a:	8b 45 d4             	mov    eax,DWORD PTR [rbp-0x2c]
    a71d:	48 63 d0             	movsxd rdx,eax
    a720:	48 8b 05 59 4f 00 00 	mov    rax,QWORD PTR [rip+0x4f59]        # f680 <pc>
    a727:	48 01 d0             	add    rax,rdx
    a72a:	48 89 05 4f 4f 00 00 	mov    QWORD PTR [rip+0x4f4f],rax        # f680 <pc>
    a731:	e9 34 0d 00 00       	jmp    b46a <parseInst+0x2156>
    a736:	8b 85 64 ff ff ff    	mov    eax,DWORD PTR [rbp-0x9c]
    a73c:	83 c8 f8             	or     eax,0xfffffff8
    a73f:	88 85 71 ff ff ff    	mov    BYTE PTR [rbp-0x8f],al
    a745:	80 7d d8 00          	cmp    BYTE PTR [rbp-0x28],0x0
    a749:	74 1d                	je     a768 <parseInst+0x1454>
    a74b:	8b 45 d4             	mov    eax,DWORD PTR [rbp-0x2c]
    a74e:	8d 50 01             	lea    edx,[rax+0x1]
    a751:	89 55 d4             	mov    DWORD PTR [rbp-0x2c],edx
    a754:	48 8b 95 58 fe ff ff 	mov    rdx,QWORD PTR [rbp-0x1a8]
    a75b:	48 98                	cdqe
    a75d:	0f b6 4d d8          	movzx  ecx,BYTE PTR [rbp-0x28]
    a761:	88 8c 02 10 09 00 00 	mov    BYTE PTR [rdx+rax*1+0x910],cl
    a768:	8b 45 d4             	mov    eax,DWORD PTR [rbp-0x2c]
    a76b:	8d 50 01             	lea    edx,[rax+0x1]
    a76e:	89 55 d4             	mov    DWORD PTR [rbp-0x2c],edx
    a771:	48 8b 95 58 fe ff ff 	mov    rdx,QWORD PTR [rbp-0x1a8]
    a778:	48 98                	cdqe
    a77a:	0f b6 8d 72 ff ff ff 	movzx  ecx,BYTE PTR [rbp-0x8e]
    a781:	88 8c 02 10 09 00 00 	mov    BYTE PTR [rdx+rax*1+0x910],cl
    a788:	8b 45 d4             	mov    eax,DWORD PTR [rbp-0x2c]
    a78b:	8d 50 01             	lea    edx,[rax+0x1]
    a78e:	89 55 d4             	mov    DWORD PTR [rbp-0x2c],edx
    a791:	48 8b 95 58 fe ff ff 	mov    rdx,QWORD PTR [rbp-0x1a8]
    a798:	48 98                	cdqe
    a79a:	0f b6 8d 71 ff ff ff 	movzx  ecx,BYTE PTR [rbp-0x8f]
    a7a1:	88 8c 02 10 09 00 00 	mov    BYTE PTR [rdx+rax*1+0x910],cl
    a7a8:	8b 45 d4             	mov    eax,DWORD PTR [rbp-0x2c]
    a7ab:	8d 50 01             	lea    edx,[rax+0x1]
    a7ae:	89 55 d4             	mov    DWORD PTR [rbp-0x2c],edx
    a7b1:	48 8b 95 68 ff ff ff 	mov    rdx,QWORD PTR [rbp-0x98]
    a7b8:	89 d1                	mov    ecx,edx
    a7ba:	48 8b 95 58 fe ff ff 	mov    rdx,QWORD PTR [rbp-0x1a8]
    a7c1:	48 98                	cdqe
    a7c3:	88 8c 02 10 09 00 00 	mov    BYTE PTR [rdx+rax*1+0x910],cl
    a7ca:	8b 45 d4             	mov    eax,DWORD PTR [rbp-0x2c]
    a7cd:	89 c2                	mov    edx,eax
    a7cf:	48 8b 45 88          	mov    rax,QWORD PTR [rbp-0x78]
    a7d3:	88 10                	mov    BYTE PTR [rax],dl
    a7d5:	8b 45 d4             	mov    eax,DWORD PTR [rbp-0x2c]
    a7d8:	48 63 d0             	movsxd rdx,eax
    a7db:	48 8b 05 9e 4e 00 00 	mov    rax,QWORD PTR [rip+0x4e9e]        # f680 <pc>
    a7e2:	48 01 d0             	add    rax,rdx
    a7e5:	48 89 05 94 4e 00 00 	mov    QWORD PTR [rip+0x4e94],rax        # f680 <pc>
    a7ec:	e9 79 0c 00 00       	jmp    b46a <parseInst+0x2156>
    a7f1:	48 8b 85 58 fe ff ff 	mov    rax,QWORD PTR [rbp-0x1a8]
    a7f8:	8b 80 94 01 00 00    	mov    eax,DWORD PTR [rax+0x194]
    a7fe:	83 f8 04             	cmp    eax,0x4
    a801:	0f 85 13 02 00 00    	jne    aa1a <parseInst+0x1706>
    a807:	48 8b 85 58 fe ff ff 	mov    rax,QWORD PTR [rbp-0x1a8]
    a80e:	8b 80 98 01 00 00    	mov    eax,DWORD PTR [rax+0x198]
    a814:	83 f8 07             	cmp    eax,0x7
    a817:	0f 85 fd 01 00 00    	jne    aa1a <parseInst+0x1706>
    a81d:	c6 45 d3 00          	mov    BYTE PTR [rbp-0x2d],0x0
    a821:	c6 85 63 ff ff ff 66 	mov    BYTE PTR [rbp-0x9d],0x66
    a828:	c6 85 62 ff ff ff 81 	mov    BYTE PTR [rbp-0x9e],0x81
    a82f:	c6 85 61 ff ff ff 83 	mov    BYTE PTR [rbp-0x9f],0x83
    a836:	c6 85 60 ff ff ff 00 	mov    BYTE PTR [rbp-0xa0],0x0
    a83d:	48 8b 85 58 fe ff ff 	mov    rax,QWORD PTR [rbp-0x1a8]
    a844:	48 05 2b 01 00 00    	add    rax,0x12b
    a84a:	48 89 c7             	mov    rdi,rax
    a84d:	e8 99 80 ff ff       	call   28eb <eval_expr>
    a852:	48 89 85 58 ff ff ff 	mov    QWORD PTR [rbp-0xa8],rax
    a859:	c7 45 cc 00 00 00 00 	mov    DWORD PTR [rbp-0x34],0x0
    a860:	c7 45 c8 00 00 00 00 	mov    DWORD PTR [rbp-0x38],0x0
    a867:	48 8b 85 58 fe ff ff 	mov    rax,QWORD PTR [rbp-0x1a8]
    a86e:	48 05 08 01 00 00    	add    rax,0x108
    a874:	48 89 c7             	mov    rdi,rax
    a877:	e8 16 dd ff ff       	call   8592 <find_reg16_index>
    a87c:	0f b6 c0             	movzx  eax,al
    a87f:	89 85 54 ff ff ff    	mov    DWORD PTR [rbp-0xac],eax
    a885:	8b 85 54 ff ff ff    	mov    eax,DWORD PTR [rbp-0xac]
    a88b:	83 c8 f8             	or     eax,0xfffffff8
    a88e:	88 85 60 ff ff ff    	mov    BYTE PTR [rbp-0xa0],al
    a894:	83 bd 54 ff ff ff 07 	cmp    DWORD PTR [rbp-0xac],0x7
    a89b:	7e 0b                	jle    a8a8 <parseInst+0x1594>
    a89d:	80 4d d3 41          	or     BYTE PTR [rbp-0x2d],0x41
    a8a1:	c7 45 cc 01 00 00 00 	mov    DWORD PTR [rbp-0x34],0x1
    a8a8:	83 bd 54 ff ff ff 00 	cmp    DWORD PTR [rbp-0xac],0x0
    a8af:	0f 85 99 00 00 00    	jne    a94e <parseInst+0x163a>
    a8b5:	83 7d cc 00          	cmp    DWORD PTR [rbp-0x34],0x0
    a8b9:	0f 85 8f 00 00 00    	jne    a94e <parseInst+0x163a>
    a8bf:	8b 45 c8             	mov    eax,DWORD PTR [rbp-0x38]
    a8c2:	8d 50 01             	lea    edx,[rax+0x1]
    a8c5:	89 55 c8             	mov    DWORD PTR [rbp-0x38],edx
    a8c8:	48 8b 95 58 fe ff ff 	mov    rdx,QWORD PTR [rbp-0x1a8]
    a8cf:	48 98                	cdqe
    a8d1:	0f b6 8d 63 ff ff ff 	movzx  ecx,BYTE PTR [rbp-0x9d]
    a8d8:	88 8c 02 10 09 00 00 	mov    BYTE PTR [rdx+rax*1+0x910],cl
    a8df:	8b 45 c8             	mov    eax,DWORD PTR [rbp-0x38]
    a8e2:	8d 50 01             	lea    edx,[rax+0x1]
    a8e5:	89 55 c8             	mov    DWORD PTR [rbp-0x38],edx
    a8e8:	48 8b 95 58 fe ff ff 	mov    rdx,QWORD PTR [rbp-0x1a8]
    a8ef:	48 98                	cdqe
    a8f1:	c6 84 02 10 09 00 00 	mov    BYTE PTR [rdx+rax*1+0x910],0x3d
    a8f8:	3d 
    a8f9:	8b 45 c8             	mov    eax,DWORD PTR [rbp-0x38]
    a8fc:	48 98                	cdqe
    a8fe:	48 8d 90 10 09 00 00 	lea    rdx,[rax+0x910]
    a905:	48 8b 85 58 fe ff ff 	mov    rax,QWORD PTR [rbp-0x1a8]
    a90c:	48 01 c2             	add    rdx,rax
    a90f:	48 8b 85 58 ff ff ff 	mov    rax,QWORD PTR [rbp-0xa8]
    a916:	0f b7 c0             	movzx  eax,ax
    a919:	48 89 d6             	mov    rsi,rdx
    a91c:	89 c7                	mov    edi,eax
    a91e:	e8 3b 88 ff ff       	call   315e <As16>
    a923:	83 45 c8 02          	add    DWORD PTR [rbp-0x38],0x2
    a927:	8b 45 c8             	mov    eax,DWORD PTR [rbp-0x38]
    a92a:	89 c2                	mov    edx,eax
    a92c:	48 8b 45 88          	mov    rax,QWORD PTR [rbp-0x78]
    a930:	88 10                	mov    BYTE PTR [rax],dl
    a932:	8b 45 c8             	mov    eax,DWORD PTR [rbp-0x38]
    a935:	48 63 d0             	movsxd rdx,eax
    a938:	48 8b 05 41 4d 00 00 	mov    rax,QWORD PTR [rip+0x4d41]        # f680 <pc>
    a93f:	48 01 d0             	add    rax,rdx
    a942:	48 89 05 37 4d 00 00 	mov    QWORD PTR [rip+0x4d37],rax        # f680 <pc>
    a949:	e9 1c 0b 00 00       	jmp    b46a <parseInst+0x2156>
    a94e:	8b 45 c8             	mov    eax,DWORD PTR [rbp-0x38]
    a951:	8d 50 01             	lea    edx,[rax+0x1]
    a954:	89 55 c8             	mov    DWORD PTR [rbp-0x38],edx
    a957:	48 8b 95 58 fe ff ff 	mov    rdx,QWORD PTR [rbp-0x1a8]
    a95e:	48 98                	cdqe
    a960:	0f b6 8d 63 ff ff ff 	movzx  ecx,BYTE PTR [rbp-0x9d]
    a967:	88 8c 02 10 09 00 00 	mov    BYTE PTR [rdx+rax*1+0x910],cl
    a96e:	80 7d d3 00          	cmp    BYTE PTR [rbp-0x2d],0x0
    a972:	74 1d                	je     a991 <parseInst+0x167d>
    a974:	8b 45 c8             	mov    eax,DWORD PTR [rbp-0x38]
    a977:	8d 50 01             	lea    edx,[rax+0x1]
    a97a:	89 55 c8             	mov    DWORD PTR [rbp-0x38],edx
    a97d:	48 8b 95 58 fe ff ff 	mov    rdx,QWORD PTR [rbp-0x1a8]
    a984:	48 98                	cdqe
    a986:	0f b6 4d d3          	movzx  ecx,BYTE PTR [rbp-0x2d]
    a98a:	88 8c 02 10 09 00 00 	mov    BYTE PTR [rdx+rax*1+0x910],cl
    a991:	8b 45 c8             	mov    eax,DWORD PTR [rbp-0x38]
    a994:	8d 50 01             	lea    edx,[rax+0x1]
    a997:	89 55 c8             	mov    DWORD PTR [rbp-0x38],edx
    a99a:	48 8b 95 58 fe ff ff 	mov    rdx,QWORD PTR [rbp-0x1a8]
    a9a1:	48 98                	cdqe
    a9a3:	0f b6 8d 61 ff ff ff 	movzx  ecx,BYTE PTR [rbp-0x9f]
    a9aa:	88 8c 02 10 09 00 00 	mov    BYTE PTR [rdx+rax*1+0x910],cl
    a9b1:	8b 45 c8             	mov    eax,DWORD PTR [rbp-0x38]
    a9b4:	8d 50 01             	lea    edx,[rax+0x1]
    a9b7:	89 55 c8             	mov    DWORD PTR [rbp-0x38],edx
    a9ba:	48 8b 95 58 fe ff ff 	mov    rdx,QWORD PTR [rbp-0x1a8]
    a9c1:	48 98                	cdqe
    a9c3:	0f b6 8d 60 ff ff ff 	movzx  ecx,BYTE PTR [rbp-0xa0]
    a9ca:	88 8c 02 10 09 00 00 	mov    BYTE PTR [rdx+rax*1+0x910],cl
    a9d1:	8b 45 c8             	mov    eax,DWORD PTR [rbp-0x38]
    a9d4:	8d 50 01             	lea    edx,[rax+0x1]
    a9d7:	89 55 c8             	mov    DWORD PTR [rbp-0x38],edx
    a9da:	48 8b 95 58 ff ff ff 	mov    rdx,QWORD PTR [rbp-0xa8]
    a9e1:	89 d1                	mov    ecx,edx
    a9e3:	48 8b 95 58 fe ff ff 	mov    rdx,QWORD PTR [rbp-0x1a8]
    a9ea:	48 98                	cdqe
    a9ec:	88 8c 02 10 09 00 00 	mov    BYTE PTR [rdx+rax*1+0x910],cl
    a9f3:	8b 45 c8             	mov    eax,DWORD PTR [rbp-0x38]
    a9f6:	89 c2                	mov    edx,eax
    a9f8:	48 8b 45 88          	mov    rax,QWORD PTR [rbp-0x78]
    a9fc:	88 10                	mov    BYTE PTR [rax],dl
    a9fe:	8b 45 c8             	mov    eax,DWORD PTR [rbp-0x38]
    aa01:	48 63 d0             	movsxd rdx,eax
    aa04:	48 8b 05 75 4c 00 00 	mov    rax,QWORD PTR [rip+0x4c75]        # f680 <pc>
    aa0b:	48 01 d0             	add    rax,rdx
    aa0e:	48 89 05 6b 4c 00 00 	mov    QWORD PTR [rip+0x4c6b],rax        # f680 <pc>
    aa15:	e9 50 0a 00 00       	jmp    b46a <parseInst+0x2156>
    aa1a:	48 8b 85 58 fe ff ff 	mov    rax,QWORD PTR [rbp-0x1a8]
    aa21:	8b 80 94 01 00 00    	mov    eax,DWORD PTR [rax+0x194]
    aa27:	83 f8 03             	cmp    eax,0x3
    aa2a:	0f 85 f8 01 00 00    	jne    ac28 <parseInst+0x1914>
    aa30:	48 8b 85 58 fe ff ff 	mov    rax,QWORD PTR [rbp-0x1a8]
    aa37:	8b 80 98 01 00 00    	mov    eax,DWORD PTR [rax+0x198]
    aa3d:	83 f8 07             	cmp    eax,0x7
    aa40:	74 16                	je     aa58 <parseInst+0x1744>
    aa42:	48 8b 85 58 fe ff ff 	mov    rax,QWORD PTR [rbp-0x1a8]
    aa49:	8b 80 98 01 00 00    	mov    eax,DWORD PTR [rax+0x198]
    aa4f:	83 f8 0a             	cmp    eax,0xa
    aa52:	0f 85 d0 01 00 00    	jne    ac28 <parseInst+0x1914>
    aa58:	c6 45 c7 00          	mov    BYTE PTR [rbp-0x39],0x0
    aa5c:	c6 85 53 ff ff ff 66 	mov    BYTE PTR [rbp-0xad],0x66
    aa63:	c6 85 52 ff ff ff 80 	mov    BYTE PTR [rbp-0xae],0x80
    aa6a:	c6 85 51 ff ff ff 00 	mov    BYTE PTR [rbp-0xaf],0x0
    aa71:	48 8b 85 58 fe ff ff 	mov    rax,QWORD PTR [rbp-0x1a8]
    aa78:	8b 80 98 01 00 00    	mov    eax,DWORD PTR [rax+0x198]
    aa7e:	83 f8 07             	cmp    eax,0x7
    aa81:	75 17                	jne    aa9a <parseInst+0x1786>
    aa83:	48 8b 85 58 fe ff ff 	mov    rax,QWORD PTR [rbp-0x1a8]
    aa8a:	48 05 2b 01 00 00    	add    rax,0x12b
    aa90:	48 89 c7             	mov    rdi,rax
    aa93:	e8 53 7e ff ff       	call   28eb <eval_expr>
    aa98:	eb 0e                	jmp    aaa8 <parseInst+0x1794>
    aa9a:	48 8b 85 58 fe ff ff 	mov    rax,QWORD PTR [rbp-0x1a8]
    aaa1:	0f b6 80 2b 01 00 00 	movzx  eax,BYTE PTR [rax+0x12b]
    aaa8:	88 85 50 ff ff ff    	mov    BYTE PTR [rbp-0xb0],al
    aaae:	c7 45 c0 00 00 00 00 	mov    DWORD PTR [rbp-0x40],0x0
    aab5:	48 8b 85 58 fe ff ff 	mov    rax,QWORD PTR [rbp-0x1a8]
    aabc:	48 05 08 01 00 00    	add    rax,0x108
    aac2:	48 89 c7             	mov    rdi,rax
    aac5:	e8 64 db ff ff       	call   862e <find_reg8_index>
    aaca:	0f b6 c0             	movzx  eax,al
    aacd:	89 85 4c ff ff ff    	mov    DWORD PTR [rbp-0xb4],eax
    aad3:	83 bd 4c ff ff ff 03 	cmp    DWORD PTR [rbp-0xb4],0x3
    aada:	7e 0f                	jle    aaeb <parseInst+0x17d7>
    aadc:	83 bd 4c ff ff ff 07 	cmp    DWORD PTR [rbp-0xb4],0x7
    aae3:	7f 06                	jg     aaeb <parseInst+0x17d7>
    aae5:	80 4d c7 40          	or     BYTE PTR [rbp-0x39],0x40
    aae9:	eb 0d                	jmp    aaf8 <parseInst+0x17e4>
    aaeb:	83 bd 4c ff ff ff 07 	cmp    DWORD PTR [rbp-0xb4],0x7
    aaf2:	7e 04                	jle    aaf8 <parseInst+0x17e4>
    aaf4:	80 4d c7 01          	or     BYTE PTR [rbp-0x39],0x1
    aaf8:	83 bd 4c ff ff ff 00 	cmp    DWORD PTR [rbp-0xb4],0x0
    aaff:	75 6e                	jne    ab6f <parseInst+0x185b>
    ab01:	c6 85 52 ff ff ff 3c 	mov    BYTE PTR [rbp-0xae],0x3c
    ab08:	8b 45 c0             	mov    eax,DWORD PTR [rbp-0x40]
    ab0b:	8d 50 01             	lea    edx,[rax+0x1]
    ab0e:	89 55 c0             	mov    DWORD PTR [rbp-0x40],edx
    ab11:	48 8b 95 58 fe ff ff 	mov    rdx,QWORD PTR [rbp-0x1a8]
    ab18:	48 98                	cdqe
    ab1a:	0f b6 8d 52 ff ff ff 	movzx  ecx,BYTE PTR [rbp-0xae]
    ab21:	88 8c 02 10 09 00 00 	mov    BYTE PTR [rdx+rax*1+0x910],cl
    ab28:	8b 45 c0             	mov    eax,DWORD PTR [rbp-0x40]
    ab2b:	8d 50 01             	lea    edx,[rax+0x1]
    ab2e:	89 55 c0             	mov    DWORD PTR [rbp-0x40],edx
    ab31:	48 8b 95 58 fe ff ff 	mov    rdx,QWORD PTR [rbp-0x1a8]
    ab38:	48 98                	cdqe
    ab3a:	0f b6 8d 50 ff ff ff 	movzx  ecx,BYTE PTR [rbp-0xb0]
    ab41:	88 8c 02 10 09 00 00 	mov    BYTE PTR [rdx+rax*1+0x910],cl
    ab48:	8b 45 c0             	mov    eax,DWORD PTR [rbp-0x40]
    ab4b:	89 c2                	mov    edx,eax
    ab4d:	48 8b 45 88          	mov    rax,QWORD PTR [rbp-0x78]
    ab51:	88 10                	mov    BYTE PTR [rax],dl
    ab53:	8b 45 c0             	mov    eax,DWORD PTR [rbp-0x40]
    ab56:	48 63 d0             	movsxd rdx,eax
    ab59:	48 8b 05 20 4b 00 00 	mov    rax,QWORD PTR [rip+0x4b20]        # f680 <pc>
    ab60:	48 01 d0             	add    rax,rdx
    ab63:	48 89 05 16 4b 00 00 	mov    QWORD PTR [rip+0x4b16],rax        # f680 <pc>
    ab6a:	e9 fb 08 00 00       	jmp    b46a <parseInst+0x2156>
    ab6f:	8b 85 4c ff ff ff    	mov    eax,DWORD PTR [rbp-0xb4]
    ab75:	83 c8 f8             	or     eax,0xfffffff8
    ab78:	88 85 51 ff ff ff    	mov    BYTE PTR [rbp-0xaf],al
    ab7e:	80 7d c7 00          	cmp    BYTE PTR [rbp-0x39],0x0
    ab82:	74 1d                	je     aba1 <parseInst+0x188d>
    ab84:	8b 45 c0             	mov    eax,DWORD PTR [rbp-0x40]
    ab87:	8d 50 01             	lea    edx,[rax+0x1]
    ab8a:	89 55 c0             	mov    DWORD PTR [rbp-0x40],edx
    ab8d:	48 8b 95 58 fe ff ff 	mov    rdx,QWORD PTR [rbp-0x1a8]
    ab94:	48 98                	cdqe
    ab96:	0f b6 4d c7          	movzx  ecx,BYTE PTR [rbp-0x39]
    ab9a:	88 8c 02 10 09 00 00 	mov    BYTE PTR [rdx+rax*1+0x910],cl
    aba1:	8b 45 c0             	mov    eax,DWORD PTR [rbp-0x40]
    aba4:	8d 50 01             	lea    edx,[rax+0x1]
    aba7:	89 55 c0             	mov    DWORD PTR [rbp-0x40],edx
    abaa:	48 8b 95 58 fe ff ff 	mov    rdx,QWORD PTR [rbp-0x1a8]
    abb1:	48 98                	cdqe
    abb3:	0f b6 8d 52 ff ff ff 	movzx  ecx,BYTE PTR [rbp-0xae]
    abba:	88 8c 02 10 09 00 00 	mov    BYTE PTR [rdx+rax*1+0x910],cl
    abc1:	8b 45 c0             	mov    eax,DWORD PTR [rbp-0x40]
    abc4:	8d 50 01             	lea    edx,[rax+0x1]
    abc7:	89 55 c0             	mov    DWORD PTR [rbp-0x40],edx
    abca:	48 8b 95 58 fe ff ff 	mov    rdx,QWORD PTR [rbp-0x1a8]
    abd1:	48 98                	cdqe
    abd3:	0f b6 8d 51 ff ff ff 	movzx  ecx,BYTE PTR [rbp-0xaf]
    abda:	88 8c 02 10 09 00 00 	mov    BYTE PTR [rdx+rax*1+0x910],cl
    abe1:	8b 45 c0             	mov    eax,DWORD PTR [rbp-0x40]
    abe4:	8d 50 01             	lea    edx,[rax+0x1]
    abe7:	89 55 c0             	mov    DWORD PTR [rbp-0x40],edx
    abea:	48 8b 95 58 fe ff ff 	mov    rdx,QWORD PTR [rbp-0x1a8]
    abf1:	48 98                	cdqe
    abf3:	0f b6 8d 50 ff ff ff 	movzx  ecx,BYTE PTR [rbp-0xb0]
    abfa:	88 8c 02 10 09 00 00 	mov    BYTE PTR [rdx+rax*1+0x910],cl
    ac01:	8b 45 c0             	mov    eax,DWORD PTR [rbp-0x40]
    ac04:	89 c2                	mov    edx,eax
    ac06:	48 8b 45 88          	mov    rax,QWORD PTR [rbp-0x78]
    ac0a:	88 10                	mov    BYTE PTR [rax],dl
    ac0c:	8b 45 c0             	mov    eax,DWORD PTR [rbp-0x40]
    ac0f:	48 63 d0             	movsxd rdx,eax
    ac12:	48 8b 05 67 4a 00 00 	mov    rax,QWORD PTR [rip+0x4a67]        # f680 <pc>
    ac19:	48 01 d0             	add    rax,rdx
    ac1c:	48 89 05 5d 4a 00 00 	mov    QWORD PTR [rip+0x4a5d],rax        # f680 <pc>
    ac23:	e9 42 08 00 00       	jmp    b46a <parseInst+0x2156>
    ac28:	48 8b 85 58 fe ff ff 	mov    rax,QWORD PTR [rbp-0x1a8]
    ac2f:	8b 80 94 01 00 00    	mov    eax,DWORD PTR [rax+0x194]
    ac35:	83 f8 06             	cmp    eax,0x6
    ac38:	0f 85 36 01 00 00    	jne    ad74 <parseInst+0x1a60>
    ac3e:	48 8b 85 58 fe ff ff 	mov    rax,QWORD PTR [rbp-0x1a8]
    ac45:	8b 80 98 01 00 00    	mov    eax,DWORD PTR [rax+0x198]
    ac4b:	83 f8 06             	cmp    eax,0x6
    ac4e:	0f 85 20 01 00 00    	jne    ad74 <parseInst+0x1a60>
    ac54:	c6 45 bf 48          	mov    BYTE PTR [rbp-0x41],0x48
    ac58:	c6 85 4b ff ff ff 00 	mov    BYTE PTR [rbp-0xb5],0x0
    ac5f:	c6 85 4a ff ff ff 39 	mov    BYTE PTR [rbp-0xb6],0x39
    ac66:	c7 85 44 ff ff ff 00 	mov    DWORD PTR [rbp-0xbc],0x0
    ac6d:	00 00 00 
    ac70:	48 8b 85 58 fe ff ff 	mov    rax,QWORD PTR [rbp-0x1a8]
    ac77:	48 05 08 01 00 00    	add    rax,0x108
    ac7d:	48 89 c7             	mov    rdi,rax
    ac80:	e8 d5 d7 ff ff       	call   845a <find_reg64_index>
    ac85:	0f b6 c0             	movzx  eax,al
    ac88:	89 85 40 ff ff ff    	mov    DWORD PTR [rbp-0xc0],eax
    ac8e:	48 8b 85 58 fe ff ff 	mov    rax,QWORD PTR [rbp-0x1a8]
    ac95:	48 05 2b 01 00 00    	add    rax,0x12b
    ac9b:	48 89 c7             	mov    rdi,rax
    ac9e:	e8 b7 d7 ff ff       	call   845a <find_reg64_index>
    aca3:	0f b6 c0             	movzx  eax,al
    aca6:	89 85 3c ff ff ff    	mov    DWORD PTR [rbp-0xc4],eax
    acac:	83 bd 40 ff ff ff 07 	cmp    DWORD PTR [rbp-0xc0],0x7
    acb3:	7e 04                	jle    acb9 <parseInst+0x19a5>
    acb5:	80 4d bf 01          	or     BYTE PTR [rbp-0x41],0x1
    acb9:	83 bd 3c ff ff ff 07 	cmp    DWORD PTR [rbp-0xc4],0x7
    acc0:	7e 04                	jle    acc6 <parseInst+0x19b2>
    acc2:	80 4d bf 04          	or     BYTE PTR [rbp-0x41],0x4
    acc6:	8b 85 40 ff ff ff    	mov    eax,DWORD PTR [rbp-0xc0]
    accc:	83 e0 07             	and    eax,0x7
    accf:	83 c8 c0             	or     eax,0xffffffc0
    acd2:	88 85 4b ff ff ff    	mov    BYTE PTR [rbp-0xb5],al
    acd8:	8b 85 44 ff ff ff    	mov    eax,DWORD PTR [rbp-0xbc]
    acde:	8d 50 01             	lea    edx,[rax+0x1]
    ace1:	89 95 44 ff ff ff    	mov    DWORD PTR [rbp-0xbc],edx
    ace7:	48 8b 95 58 fe ff ff 	mov    rdx,QWORD PTR [rbp-0x1a8]
    acee:	48 98                	cdqe
    acf0:	0f b6 4d bf          	movzx  ecx,BYTE PTR [rbp-0x41]
    acf4:	88 8c 02 10 09 00 00 	mov    BYTE PTR [rdx+rax*1+0x910],cl
    acfb:	8b 85 44 ff ff ff    	mov    eax,DWORD PTR [rbp-0xbc]
    ad01:	8d 50 01             	lea    edx,[rax+0x1]
    ad04:	89 95 44 ff ff ff    	mov    DWORD PTR [rbp-0xbc],edx
    ad0a:	48 8b 95 58 fe ff ff 	mov    rdx,QWORD PTR [rbp-0x1a8]
    ad11:	48 98                	cdqe
    ad13:	0f b6 8d 4a ff ff ff 	movzx  ecx,BYTE PTR [rbp-0xb6]
    ad1a:	88 8c 02 10 09 00 00 	mov    BYTE PTR [rdx+rax*1+0x910],cl
    ad21:	8b 85 44 ff ff ff    	mov    eax,DWORD PTR [rbp-0xbc]
    ad27:	8d 50 01             	lea    edx,[rax+0x1]
    ad2a:	89 95 44 ff ff ff    	mov    DWORD PTR [rbp-0xbc],edx
    ad30:	48 8b 95 58 fe ff ff 	mov    rdx,QWORD PTR [rbp-0x1a8]
    ad37:	48 98                	cdqe
    ad39:	0f b6 8d 4b ff ff ff 	movzx  ecx,BYTE PTR [rbp-0xb5]
    ad40:	88 8c 02 10 09 00 00 	mov    BYTE PTR [rdx+rax*1+0x910],cl
    ad47:	8b 85 44 ff ff ff    	mov    eax,DWORD PTR [rbp-0xbc]
    ad4d:	89 c2                	mov    edx,eax
    ad4f:	48 8b 45 88          	mov    rax,QWORD PTR [rbp-0x78]
    ad53:	88 10                	mov    BYTE PTR [rax],dl
    ad55:	8b 85 44 ff ff ff    	mov    eax,DWORD PTR [rbp-0xbc]
    ad5b:	48 63 d0             	movsxd rdx,eax
    ad5e:	48 8b 05 1b 49 00 00 	mov    rax,QWORD PTR [rip+0x491b]        # f680 <pc>
    ad65:	48 01 d0             	add    rax,rdx
    ad68:	48 89 05 11 49 00 00 	mov    QWORD PTR [rip+0x4911],rax        # f680 <pc>
    ad6f:	e9 f6 06 00 00       	jmp    b46a <parseInst+0x2156>
    ad74:	48 8b 85 58 fe ff ff 	mov    rax,QWORD PTR [rbp-0x1a8]
    ad7b:	8b 80 94 01 00 00    	mov    eax,DWORD PTR [rax+0x194]
    ad81:	83 f8 05             	cmp    eax,0x5
    ad84:	0f 85 21 01 00 00    	jne    aeab <parseInst+0x1b97>
    ad8a:	48 8b 85 58 fe ff ff 	mov    rax,QWORD PTR [rbp-0x1a8]
    ad91:	8b 80 98 01 00 00    	mov    eax,DWORD PTR [rax+0x198]
    ad97:	83 f8 05             	cmp    eax,0x5
    ad9a:	0f 85 0b 01 00 00    	jne    aeab <parseInst+0x1b97>
    ada0:	c6 45 be 00          	mov    BYTE PTR [rbp-0x42],0x0
    ada4:	c6 85 3b ff ff ff 00 	mov    BYTE PTR [rbp-0xc5],0x0
    adab:	c6 85 3a ff ff ff 39 	mov    BYTE PTR [rbp-0xc6],0x39
    adb2:	c7 45 b8 00 00 00 00 	mov    DWORD PTR [rbp-0x48],0x0
    adb9:	48 8b 85 58 fe ff ff 	mov    rax,QWORD PTR [rbp-0x1a8]
    adc0:	48 05 08 01 00 00    	add    rax,0x108
    adc6:	48 89 c7             	mov    rdi,rax
    adc9:	e8 28 d7 ff ff       	call   84f6 <find_reg32_index>
    adce:	0f b6 c0             	movzx  eax,al
    add1:	89 85 34 ff ff ff    	mov    DWORD PTR [rbp-0xcc],eax
    add7:	48 8b 85 58 fe ff ff 	mov    rax,QWORD PTR [rbp-0x1a8]
    adde:	48 05 2b 01 00 00    	add    rax,0x12b
    ade4:	48 89 c7             	mov    rdi,rax
    ade7:	e8 0a d7 ff ff       	call   84f6 <find_reg32_index>
    adec:	0f b6 c0             	movzx  eax,al
    adef:	89 85 30 ff ff ff    	mov    DWORD PTR [rbp-0xd0],eax
    adf5:	83 bd 34 ff ff ff 07 	cmp    DWORD PTR [rbp-0xcc],0x7
    adfc:	7e 04                	jle    ae02 <parseInst+0x1aee>
    adfe:	80 4d be 41          	or     BYTE PTR [rbp-0x42],0x41
    ae02:	83 bd 30 ff ff ff 07 	cmp    DWORD PTR [rbp-0xd0],0x7
    ae09:	7e 04                	jle    ae0f <parseInst+0x1afb>
    ae0b:	80 4d be 44          	or     BYTE PTR [rbp-0x42],0x44
    ae0f:	8b 85 34 ff ff ff    	mov    eax,DWORD PTR [rbp-0xcc]
    ae15:	83 e0 07             	and    eax,0x7
    ae18:	83 c8 c0             	or     eax,0xffffffc0
    ae1b:	88 85 3b ff ff ff    	mov    BYTE PTR [rbp-0xc5],al
    ae21:	80 7d be 00          	cmp    BYTE PTR [rbp-0x42],0x0
    ae25:	74 1d                	je     ae44 <parseInst+0x1b30>
    ae27:	8b 45 b8             	mov    eax,DWORD PTR [rbp-0x48]
    ae2a:	8d 50 01             	lea    edx,[rax+0x1]
    ae2d:	89 55 b8             	mov    DWORD PTR [rbp-0x48],edx
    ae30:	48 8b 95 58 fe ff ff 	mov    rdx,QWORD PTR [rbp-0x1a8]
    ae37:	48 98                	cdqe
    ae39:	0f b6 4d be          	movzx  ecx,BYTE PTR [rbp-0x42]
    ae3d:	88 8c 02 10 09 00 00 	mov    BYTE PTR [rdx+rax*1+0x910],cl
    ae44:	8b 45 b8             	mov    eax,DWORD PTR [rbp-0x48]
    ae47:	8d 50 01             	lea    edx,[rax+0x1]
    ae4a:	89 55 b8             	mov    DWORD PTR [rbp-0x48],edx
    ae4d:	48 8b 95 58 fe ff ff 	mov    rdx,QWORD PTR [rbp-0x1a8]
    ae54:	48 98                	cdqe
    ae56:	0f b6 8d 3a ff ff ff 	movzx  ecx,BYTE PTR [rbp-0xc6]
    ae5d:	88 8c 02 10 09 00 00 	mov    BYTE PTR [rdx+rax*1+0x910],cl
    ae64:	8b 45 b8             	mov    eax,DWORD PTR [rbp-0x48]
    ae67:	8d 50 01             	lea    edx,[rax+0x1]
    ae6a:	89 55 b8             	mov    DWORD PTR [rbp-0x48],edx
    ae6d:	48 8b 95 58 fe ff ff 	mov    rdx,QWORD PTR [rbp-0x1a8]
    ae74:	48 98                	cdqe
    ae76:	0f b6 8d 3b ff ff ff 	movzx  ecx,BYTE PTR [rbp-0xc5]
    ae7d:	88 8c 02 10 09 00 00 	mov    BYTE PTR [rdx+rax*1+0x910],cl
    ae84:	8b 45 b8             	mov    eax,DWORD PTR [rbp-0x48]
    ae87:	89 c2                	mov    edx,eax
    ae89:	48 8b 45 88          	mov    rax,QWORD PTR [rbp-0x78]
    ae8d:	88 10                	mov    BYTE PTR [rax],dl
    ae8f:	8b 45 b8             	mov    eax,DWORD PTR [rbp-0x48]
    ae92:	48 63 d0             	movsxd rdx,eax
    ae95:	48 8b 05 e4 47 00 00 	mov    rax,QWORD PTR [rip+0x47e4]        # f680 <pc>
    ae9c:	48 01 d0             	add    rax,rdx
    ae9f:	48 89 05 da 47 00 00 	mov    QWORD PTR [rip+0x47da],rax        # f680 <pc>
    aea6:	e9 bf 05 00 00       	jmp    b46a <parseInst+0x2156>
    aeab:	48 8b 85 58 fe ff ff 	mov    rax,QWORD PTR [rbp-0x1a8]
    aeb2:	8b 80 94 01 00 00    	mov    eax,DWORD PTR [rax+0x194]
    aeb8:	83 f8 04             	cmp    eax,0x4
    aebb:	0f 85 48 01 00 00    	jne    b009 <parseInst+0x1cf5>
    aec1:	48 8b 85 58 fe ff ff 	mov    rax,QWORD PTR [rbp-0x1a8]
    aec8:	8b 80 98 01 00 00    	mov    eax,DWORD PTR [rax+0x198]
    aece:	83 f8 04             	cmp    eax,0x4
    aed1:	0f 85 32 01 00 00    	jne    b009 <parseInst+0x1cf5>
    aed7:	c6 85 2f ff ff ff 66 	mov    BYTE PTR [rbp-0xd1],0x66
    aede:	c6 45 b7 00          	mov    BYTE PTR [rbp-0x49],0x0
    aee2:	c6 85 2e ff ff ff 00 	mov    BYTE PTR [rbp-0xd2],0x0
    aee9:	c6 85 2d ff ff ff 39 	mov    BYTE PTR [rbp-0xd3],0x39
    aef0:	c7 45 b0 00 00 00 00 	mov    DWORD PTR [rbp-0x50],0x0
    aef7:	48 8b 85 58 fe ff ff 	mov    rax,QWORD PTR [rbp-0x1a8]
    aefe:	48 05 08 01 00 00    	add    rax,0x108
    af04:	48 89 c7             	mov    rdi,rax
    af07:	e8 86 d6 ff ff       	call   8592 <find_reg16_index>
    af0c:	0f b6 c0             	movzx  eax,al
    af0f:	89 85 28 ff ff ff    	mov    DWORD PTR [rbp-0xd8],eax
    af15:	48 8b 85 58 fe ff ff 	mov    rax,QWORD PTR [rbp-0x1a8]
    af1c:	48 05 2b 01 00 00    	add    rax,0x12b
    af22:	48 89 c7             	mov    rdi,rax
    af25:	e8 68 d6 ff ff       	call   8592 <find_reg16_index>
    af2a:	0f b6 c0             	movzx  eax,al
    af2d:	89 85 24 ff ff ff    	mov    DWORD PTR [rbp-0xdc],eax
    af33:	83 bd 24 ff ff ff 07 	cmp    DWORD PTR [rbp-0xdc],0x7
    af3a:	7e 04                	jle    af40 <parseInst+0x1c2c>
    af3c:	80 4d b7 44          	or     BYTE PTR [rbp-0x49],0x44
    af40:	83 bd 28 ff ff ff 07 	cmp    DWORD PTR [rbp-0xd8],0x7
    af47:	7e 04                	jle    af4d <parseInst+0x1c39>
    af49:	80 4d b7 41          	or     BYTE PTR [rbp-0x49],0x41
    af4d:	8b 85 28 ff ff ff    	mov    eax,DWORD PTR [rbp-0xd8]
    af53:	83 e0 07             	and    eax,0x7
    af56:	83 c8 c0             	or     eax,0xffffffc0
    af59:	88 85 2e ff ff ff    	mov    BYTE PTR [rbp-0xd2],al
    af5f:	8b 45 b0             	mov    eax,DWORD PTR [rbp-0x50]
    af62:	8d 50 01             	lea    edx,[rax+0x1]
    af65:	89 55 b0             	mov    DWORD PTR [rbp-0x50],edx
    af68:	48 8b 95 58 fe ff ff 	mov    rdx,QWORD PTR [rbp-0x1a8]
    af6f:	48 98                	cdqe
    af71:	0f b6 8d 2f ff ff ff 	movzx  ecx,BYTE PTR [rbp-0xd1]
    af78:	88 8c 02 10 09 00 00 	mov    BYTE PTR [rdx+rax*1+0x910],cl
    af7f:	80 7d b7 00          	cmp    BYTE PTR [rbp-0x49],0x0
    af83:	74 1d                	je     afa2 <parseInst+0x1c8e>
    af85:	8b 45 b0             	mov    eax,DWORD PTR [rbp-0x50]
    af88:	8d 50 01             	lea    edx,[rax+0x1]
    af8b:	89 55 b0             	mov    DWORD PTR [rbp-0x50],edx
    af8e:	48 8b 95 58 fe ff ff 	mov    rdx,QWORD PTR [rbp-0x1a8]
    af95:	48 98                	cdqe
    af97:	0f b6 4d b7          	movzx  ecx,BYTE PTR [rbp-0x49]
    af9b:	88 8c 02 10 09 00 00 	mov    BYTE PTR [rdx+rax*1+0x910],cl
    afa2:	8b 45 b0             	mov    eax,DWORD PTR [rbp-0x50]
    afa5:	8d 50 01             	lea    edx,[rax+0x1]
    afa8:	89 55 b0             	mov    DWORD PTR [rbp-0x50],edx
    afab:	48 8b 95 58 fe ff ff 	mov    rdx,QWORD PTR [rbp-0x1a8]
    afb2:	48 98                	cdqe
    afb4:	0f b6 8d 2d ff ff ff 	movzx  ecx,BYTE PTR [rbp-0xd3]
    afbb:	88 8c 02 10 09 00 00 	mov    BYTE PTR [rdx+rax*1+0x910],cl
    afc2:	8b 45 b0             	mov    eax,DWORD PTR [rbp-0x50]
    afc5:	8d 50 01             	lea    edx,[rax+0x1]
    afc8:	89 55 b0             	mov    DWORD PTR [rbp-0x50],edx
    afcb:	48 8b 95 58 fe ff ff 	mov    rdx,QWORD PTR [rbp-0x1a8]
    afd2:	48 98                	cdqe
    afd4:	0f b6 8d 2e ff ff ff 	movzx  ecx,BYTE PTR [rbp-0xd2]
    afdb:	88 8c 02 10 09 00 00 	mov    BYTE PTR [rdx+rax*1+0x910],cl
    afe2:	8b 45 b0             	mov    eax,DWORD PTR [rbp-0x50]
    afe5:	89 c2                	mov    edx,eax
    afe7:	48 8b 45 88          	mov    rax,QWORD PTR [rbp-0x78]
    afeb:	88 10                	mov    BYTE PTR [rax],dl
    afed:	8b 45 b0             	mov    eax,DWORD PTR [rbp-0x50]
    aff0:	48 63 d0             	movsxd rdx,eax
    aff3:	48 8b 05 86 46 00 00 	mov    rax,QWORD PTR [rip+0x4686]        # f680 <pc>
    affa:	48 01 d0             	add    rax,rdx
    affd:	48 89 05 7c 46 00 00 	mov    QWORD PTR [rip+0x467c],rax        # f680 <pc>
    b004:	e9 61 04 00 00       	jmp    b46a <parseInst+0x2156>
    b009:	48 8b 85 58 fe ff ff 	mov    rax,QWORD PTR [rbp-0x1a8]
    b010:	8b 80 94 01 00 00    	mov    eax,DWORD PTR [rax+0x194]
    b016:	83 f8 03             	cmp    eax,0x3
    b019:	0f 85 4b 04 00 00    	jne    b46a <parseInst+0x2156>
    b01f:	48 8b 85 58 fe ff ff 	mov    rax,QWORD PTR [rbp-0x1a8]
    b026:	8b 80 98 01 00 00    	mov    eax,DWORD PTR [rax+0x198]
    b02c:	83 f8 03             	cmp    eax,0x3
    b02f:	0f 85 35 04 00 00    	jne    b46a <parseInst+0x2156>
    b035:	c6 45 af 00          	mov    BYTE PTR [rbp-0x51],0x0
    b039:	c6 85 23 ff ff ff 00 	mov    BYTE PTR [rbp-0xdd],0x0
    b040:	c6 85 22 ff ff ff 3a 	mov    BYTE PTR [rbp-0xde],0x3a
    b047:	c7 45 a8 00 00 00 00 	mov    DWORD PTR [rbp-0x58],0x0
    b04e:	48 8b 85 58 fe ff ff 	mov    rax,QWORD PTR [rbp-0x1a8]
    b055:	48 05 08 01 00 00    	add    rax,0x108
    b05b:	48 89 c7             	mov    rdi,rax
    b05e:	e8 cb d5 ff ff       	call   862e <find_reg8_index>
    b063:	0f b6 c0             	movzx  eax,al
    b066:	89 85 1c ff ff ff    	mov    DWORD PTR [rbp-0xe4],eax
    b06c:	48 8b 85 58 fe ff ff 	mov    rax,QWORD PTR [rbp-0x1a8]
    b073:	48 05 2b 01 00 00    	add    rax,0x12b
    b079:	48 89 c7             	mov    rdi,rax
    b07c:	e8 ad d5 ff ff       	call   862e <find_reg8_index>
    b081:	0f b6 c0             	movzx  eax,al
    b084:	89 85 18 ff ff ff    	mov    DWORD PTR [rbp-0xe8],eax
    b08a:	83 bd 1c ff ff ff 07 	cmp    DWORD PTR [rbp-0xe4],0x7
    b091:	7e 04                	jle    b097 <parseInst+0x1d83>
    b093:	80 4d af 41          	or     BYTE PTR [rbp-0x51],0x41
    b097:	83 bd 18 ff ff ff 07 	cmp    DWORD PTR [rbp-0xe8],0x7
    b09e:	7e 04                	jle    b0a4 <parseInst+0x1d90>
    b0a0:	80 4d af 44          	or     BYTE PTR [rbp-0x51],0x44
    b0a4:	83 bd 18 ff ff ff 03 	cmp    DWORD PTR [rbp-0xe8],0x3
    b0ab:	7e 09                	jle    b0b6 <parseInst+0x1da2>
    b0ad:	83 bd 18 ff ff ff 07 	cmp    DWORD PTR [rbp-0xe8],0x7
    b0b4:	7e 12                	jle    b0c8 <parseInst+0x1db4>
    b0b6:	83 bd 1c ff ff ff 03 	cmp    DWORD PTR [rbp-0xe4],0x3
    b0bd:	7e 0d                	jle    b0cc <parseInst+0x1db8>
    b0bf:	83 bd 1c ff ff ff 07 	cmp    DWORD PTR [rbp-0xe4],0x7
    b0c6:	7f 04                	jg     b0cc <parseInst+0x1db8>
    b0c8:	80 4d af 40          	or     BYTE PTR [rbp-0x51],0x40
    b0cc:	8b 85 1c ff ff ff    	mov    eax,DWORD PTR [rbp-0xe4]
    b0d2:	83 e0 07             	and    eax,0x7
    b0d5:	83 c8 c0             	or     eax,0xffffffc0
    b0d8:	88 85 23 ff ff ff    	mov    BYTE PTR [rbp-0xdd],al
    b0de:	80 7d af 00          	cmp    BYTE PTR [rbp-0x51],0x0
    b0e2:	74 1d                	je     b101 <parseInst+0x1ded>
    b0e4:	8b 45 a8             	mov    eax,DWORD PTR [rbp-0x58]
    b0e7:	8d 50 01             	lea    edx,[rax+0x1]
    b0ea:	89 55 a8             	mov    DWORD PTR [rbp-0x58],edx
    b0ed:	48 8b 95 58 fe ff ff 	mov    rdx,QWORD PTR [rbp-0x1a8]
    b0f4:	48 98                	cdqe
    b0f6:	0f b6 4d af          	movzx  ecx,BYTE PTR [rbp-0x51]
    b0fa:	88 8c 02 10 09 00 00 	mov    BYTE PTR [rdx+rax*1+0x910],cl
    b101:	8b 45 a8             	mov    eax,DWORD PTR [rbp-0x58]
    b104:	8d 50 01             	lea    edx,[rax+0x1]
    b107:	89 55 a8             	mov    DWORD PTR [rbp-0x58],edx
    b10a:	48 8b 95 58 fe ff ff 	mov    rdx,QWORD PTR [rbp-0x1a8]
    b111:	48 98                	cdqe
    b113:	0f b6 8d 22 ff ff ff 	movzx  ecx,BYTE PTR [rbp-0xde]
    b11a:	88 8c 02 10 09 00 00 	mov    BYTE PTR [rdx+rax*1+0x910],cl
    b121:	8b 45 a8             	mov    eax,DWORD PTR [rbp-0x58]
    b124:	8d 50 01             	lea    edx,[rax+0x1]
    b127:	89 55 a8             	mov    DWORD PTR [rbp-0x58],edx
    b12a:	48 8b 95 58 fe ff ff 	mov    rdx,QWORD PTR [rbp-0x1a8]
    b131:	48 98                	cdqe
    b133:	0f b6 8d 23 ff ff ff 	movzx  ecx,BYTE PTR [rbp-0xdd]
    b13a:	88 8c 02 10 09 00 00 	mov    BYTE PTR [rdx+rax*1+0x910],cl
    b141:	8b 45 a8             	mov    eax,DWORD PTR [rbp-0x58]
    b144:	89 c2                	mov    edx,eax
    b146:	48 8b 45 88          	mov    rax,QWORD PTR [rbp-0x78]
    b14a:	88 10                	mov    BYTE PTR [rax],dl
    b14c:	8b 45 a8             	mov    eax,DWORD PTR [rbp-0x58]
    b14f:	48 63 d0             	movsxd rdx,eax
    b152:	48 8b 05 27 45 00 00 	mov    rax,QWORD PTR [rip+0x4527]        # f680 <pc>
    b159:	48 01 d0             	add    rax,rdx
    b15c:	48 89 05 1d 45 00 00 	mov    QWORD PTR [rip+0x451d],rax        # f680 <pc>
    b163:	e9 02 03 00 00       	jmp    b46a <parseInst+0x2156>
    b168:	48 8b 85 58 fe ff ff 	mov    rax,QWORD PTR [rbp-0x1a8]
    b16f:	48 83 c0 04          	add    rax,0x4
    b173:	48 89 c6             	mov    rsi,rax
    b176:	48 8d 05 83 40 00 00 	lea    rax,[rip+0x4083]        # f200 <JCC>
    b17d:	48 89 c7             	mov    rdi,rax
    b180:	e8 65 71 ff ff       	call   22ea <is2arrin>
    b185:	85 c0                	test   eax,eax
    b187:	0f 84 7e 02 00 00    	je     b40b <parseInst+0x20f7>
    b18d:	c7 45 84 00 00 00 00 	mov    DWORD PTR [rbp-0x7c],0x0
    b194:	c6 45 a7 00          	mov    BYTE PTR [rbp-0x59],0x0
    b198:	48 8b 85 58 fe ff ff 	mov    rax,QWORD PTR [rbp-0x1a8]
    b19f:	48 83 c0 04          	add    rax,0x4
    b1a3:	48 8d 15 8c 0e 00 00 	lea    rdx,[rip+0xe8c]        # c036 <_IO_stdin_used+0x36>
    b1aa:	48 89 d6             	mov    rsi,rdx
    b1ad:	48 89 c7             	mov    rdi,rax
    b1b0:	e8 9b 6e ff ff       	call   2050 <strcasecmp@plt>
    b1b5:	85 c0                	test   eax,eax
    b1b7:	74 21                	je     b1da <parseInst+0x1ec6>
    b1b9:	48 8b 85 58 fe ff ff 	mov    rax,QWORD PTR [rbp-0x1a8]
    b1c0:	48 83 c0 04          	add    rax,0x4
    b1c4:	48 8d 15 80 0e 00 00 	lea    rdx,[rip+0xe80]        # c04b <_IO_stdin_used+0x4b>
    b1cb:	48 89 d6             	mov    rsi,rdx
    b1ce:	48 89 c7             	mov    rdi,rax
    b1d1:	e8 7a 6e ff ff       	call   2050 <strcasecmp@plt>
    b1d6:	85 c0                	test   eax,eax
    b1d8:	75 09                	jne    b1e3 <parseInst+0x1ecf>
    b1da:	c6 45 a7 84          	mov    BYTE PTR [rbp-0x59],0x84
    b1de:	e9 95 01 00 00       	jmp    b378 <parseInst+0x2064>
    b1e3:	48 8b 85 58 fe ff ff 	mov    rax,QWORD PTR [rbp-0x1a8]
    b1ea:	48 83 c0 04          	add    rax,0x4
    b1ee:	48 8d 15 44 0e 00 00 	lea    rdx,[rip+0xe44]        # c039 <_IO_stdin_used+0x39>
    b1f5:	48 89 d6             	mov    rsi,rdx
    b1f8:	48 89 c7             	mov    rdi,rax
    b1fb:	e8 50 6e ff ff       	call   2050 <strcasecmp@plt>
    b200:	85 c0                	test   eax,eax
    b202:	74 21                	je     b225 <parseInst+0x1f11>
    b204:	48 8b 85 58 fe ff ff 	mov    rax,QWORD PTR [rbp-0x1a8]
    b20b:	48 83 c0 04          	add    rax,0x4
    b20f:	48 8d 15 78 0e 00 00 	lea    rdx,[rip+0xe78]        # c08e <_IO_stdin_used+0x8e>
    b216:	48 89 d6             	mov    rsi,rdx
    b219:	48 89 c7             	mov    rdi,rax
    b21c:	e8 2f 6e ff ff       	call   2050 <strcasecmp@plt>
    b221:	85 c0                	test   eax,eax
    b223:	75 09                	jne    b22e <parseInst+0x1f1a>
    b225:	c6 45 a7 85          	mov    BYTE PTR [rbp-0x59],0x85
    b229:	e9 4a 01 00 00       	jmp    b378 <parseInst+0x2064>
    b22e:	48 8b 85 58 fe ff ff 	mov    rax,QWORD PTR [rbp-0x1a8]
    b235:	48 83 c0 04          	add    rax,0x4
    b239:	48 8d 15 00 0e 00 00 	lea    rdx,[rip+0xe00]        # c040 <_IO_stdin_used+0x40>
    b240:	48 89 d6             	mov    rsi,rdx
    b243:	48 89 c7             	mov    rdi,rax
    b246:	e8 05 6e ff ff       	call   2050 <strcasecmp@plt>
    b24b:	85 c0                	test   eax,eax
    b24d:	75 09                	jne    b258 <parseInst+0x1f44>
    b24f:	c6 45 a7 8c          	mov    BYTE PTR [rbp-0x59],0x8c
    b253:	e9 20 01 00 00       	jmp    b378 <parseInst+0x2064>
    b258:	48 8b 85 58 fe ff ff 	mov    rax,QWORD PTR [rbp-0x1a8]
    b25f:	48 83 c0 04          	add    rax,0x4
    b263:	48 8d 15 d9 0d 00 00 	lea    rdx,[rip+0xdd9]        # c043 <_IO_stdin_used+0x43>
    b26a:	48 89 d6             	mov    rsi,rdx
    b26d:	48 89 c7             	mov    rdi,rax
    b270:	e8 db 6d ff ff       	call   2050 <strcasecmp@plt>
    b275:	85 c0                	test   eax,eax
    b277:	75 09                	jne    b282 <parseInst+0x1f6e>
    b279:	c6 45 a7 8d          	mov    BYTE PTR [rbp-0x59],0x8d
    b27d:	e9 f6 00 00 00       	jmp    b378 <parseInst+0x2064>
    b282:	48 8b 85 58 fe ff ff 	mov    rax,QWORD PTR [rbp-0x1a8]
    b289:	48 83 c0 04          	add    rax,0x4
    b28d:	48 8d 15 b3 0d 00 00 	lea    rdx,[rip+0xdb3]        # c047 <_IO_stdin_used+0x47>
    b294:	48 89 d6             	mov    rsi,rdx
    b297:	48 89 c7             	mov    rdi,rax
    b29a:	e8 b1 6d ff ff       	call   2050 <strcasecmp@plt>
    b29f:	85 c0                	test   eax,eax
    b2a1:	75 09                	jne    b2ac <parseInst+0x1f98>
    b2a3:	c6 45 a7 8e          	mov    BYTE PTR [rbp-0x59],0x8e
    b2a7:	e9 cc 00 00 00       	jmp    b378 <parseInst+0x2064>
    b2ac:	48 8b 85 58 fe ff ff 	mov    rax,QWORD PTR [rbp-0x1a8]
    b2b3:	48 83 c0 04          	add    rax,0x4
    b2b7:	48 8d 15 7f 0d 00 00 	lea    rdx,[rip+0xd7f]        # c03d <_IO_stdin_used+0x3d>
    b2be:	48 89 d6             	mov    rsi,rdx
    b2c1:	48 89 c7             	mov    rdi,rax
    b2c4:	e8 87 6d ff ff       	call   2050 <strcasecmp@plt>
    b2c9:	85 c0                	test   eax,eax
    b2cb:	75 09                	jne    b2d6 <parseInst+0x1fc2>
    b2cd:	c6 45 a7 8f          	mov    BYTE PTR [rbp-0x59],0x8f
    b2d1:	e9 a2 00 00 00       	jmp    b378 <parseInst+0x2064>
    b2d6:	48 8b 85 58 fe ff ff 	mov    rax,QWORD PTR [rbp-0x1a8]
    b2dd:	48 83 c0 04          	add    rax,0x4
    b2e1:	48 8d 15 69 0d 00 00 	lea    rdx,[rip+0xd69]        # c051 <_IO_stdin_used+0x51>
    b2e8:	48 89 d6             	mov    rsi,rdx
    b2eb:	48 89 c7             	mov    rdi,rax
    b2ee:	e8 5d 6d ff ff       	call   2050 <strcasecmp@plt>
    b2f3:	85 c0                	test   eax,eax
    b2f5:	74 21                	je     b318 <parseInst+0x2004>
    b2f7:	48 8b 85 58 fe ff ff 	mov    rax,QWORD PTR [rbp-0x1a8]
    b2fe:	48 83 c0 04          	add    rax,0x4
    b302:	48 8d 15 89 0d 00 00 	lea    rdx,[rip+0xd89]        # c092 <_IO_stdin_used+0x92>
    b309:	48 89 d6             	mov    rsi,rdx
    b30c:	48 89 c7             	mov    rdi,rax
    b30f:	e8 3c 6d ff ff       	call   2050 <strcasecmp@plt>
    b314:	85 c0                	test   eax,eax
    b316:	75 06                	jne    b31e <parseInst+0x200a>
    b318:	c6 45 a7 82          	mov    BYTE PTR [rbp-0x59],0x82
    b31c:	eb 5a                	jmp    b378 <parseInst+0x2064>
    b31e:	48 8b 85 58 fe ff ff 	mov    rax,QWORD PTR [rbp-0x1a8]
    b325:	48 83 c0 04          	add    rax,0x4
    b329:	48 8d 15 1e 0d 00 00 	lea    rdx,[rip+0xd1e]        # c04e <_IO_stdin_used+0x4e>
    b330:	48 89 d6             	mov    rsi,rdx
    b333:	48 89 c7             	mov    rdi,rax
    b336:	e8 15 6d ff ff       	call   2050 <strcasecmp@plt>
    b33b:	85 c0                	test   eax,eax
    b33d:	75 06                	jne    b345 <parseInst+0x2031>
    b33f:	c6 45 a7 87          	mov    BYTE PTR [rbp-0x59],0x87
    b343:	eb 33                	jmp    b378 <parseInst+0x2064>
    b345:	48 8b 85 58 fe ff ff 	mov    rax,QWORD PTR [rbp-0x1a8]
    b34c:	48 8d 50 04          	lea    rdx,[rax+0x4]
    b350:	48 8b 05 09 43 00 00 	mov    rax,QWORD PTR [rip+0x4309]        # f660 <stderr@GLIBC_2.2.5>
    b357:	48 8d 0d c6 1c 00 00 	lea    rcx,[rip+0x1cc6]        # d024 <_IO_stdin_used+0x1024>
    b35e:	48 89 ce             	mov    rsi,rcx
    b361:	48 89 c7             	mov    rdi,rax
    b364:	b8 00 00 00 00       	mov    eax,0x0
    b369:	e8 92 6d ff ff       	call   2100 <fprintf@plt>
    b36e:	bf 01 00 00 00       	mov    edi,0x1
    b373:	e8 e8 6d ff ff       	call   2160 <exit@plt>
    b378:	8b 45 84             	mov    eax,DWORD PTR [rbp-0x7c]
    b37b:	8d 50 01             	lea    edx,[rax+0x1]
    b37e:	89 55 84             	mov    DWORD PTR [rbp-0x7c],edx
    b381:	48 8b 95 58 fe ff ff 	mov    rdx,QWORD PTR [rbp-0x1a8]
    b388:	48 98                	cdqe
    b38a:	c6 84 02 10 09 00 00 	mov    BYTE PTR [rdx+rax*1+0x910],0xf
    b391:	0f 
    b392:	8b 45 84             	mov    eax,DWORD PTR [rbp-0x7c]
    b395:	8d 50 01             	lea    edx,[rax+0x1]
    b398:	89 55 84             	mov    DWORD PTR [rbp-0x7c],edx
    b39b:	48 8b 95 58 fe ff ff 	mov    rdx,QWORD PTR [rbp-0x1a8]
    b3a2:	48 98                	cdqe
    b3a4:	0f b6 4d a7          	movzx  ecx,BYTE PTR [rbp-0x59]
    b3a8:	88 8c 02 10 09 00 00 	mov    BYTE PTR [rdx+rax*1+0x910],cl
    b3af:	8b 45 84             	mov    eax,DWORD PTR [rbp-0x7c]
    b3b2:	48 98                	cdqe
    b3b4:	48 8d 90 10 09 00 00 	lea    rdx,[rax+0x910]
    b3bb:	48 8b 85 58 fe ff ff 	mov    rax,QWORD PTR [rbp-0x1a8]
    b3c2:	48 01 d0             	add    rax,rdx
    b3c5:	48 89 c6             	mov    rsi,rax
    b3c8:	bf 00 00 00 00       	mov    edi,0x0
    b3cd:	e8 bd 7d ff ff       	call   318f <As32>
    b3d2:	83 45 84 04          	add    DWORD PTR [rbp-0x7c],0x4
    b3d6:	8b 45 84             	mov    eax,DWORD PTR [rbp-0x7c]
    b3d9:	48 63 d0             	movsxd rdx,eax
    b3dc:	48 8b 05 9d 42 00 00 	mov    rax,QWORD PTR [rip+0x429d]        # f680 <pc>
    b3e3:	48 01 d0             	add    rax,rdx
    b3e6:	48 89 05 93 42 00 00 	mov    QWORD PTR [rip+0x4293],rax        # f680 <pc>
    b3ed:	8b 45 84             	mov    eax,DWORD PTR [rbp-0x7c]
    b3f0:	89 c2                	mov    edx,eax
    b3f2:	48 8b 45 88          	mov    rax,QWORD PTR [rbp-0x78]
    b3f6:	88 10                	mov    BYTE PTR [rax],dl
    b3f8:	48 8b 85 58 fe ff ff 	mov    rax,QWORD PTR [rbp-0x1a8]
    b3ff:	c7 80 a8 01 00 00 00 	mov    DWORD PTR [rax+0x1a8],0x0
    b406:	00 00 00 
    b409:	eb 5f                	jmp    b46a <parseInst+0x2156>
    b40b:	48 8b 85 58 fe ff ff 	mov    rax,QWORD PTR [rbp-0x1a8]
    b412:	48 83 c0 04          	add    rax,0x4
    b416:	48 8d 15 f8 0b 00 00 	lea    rdx,[rip+0xbf8]        # c015 <_IO_stdin_used+0x15>
    b41d:	48 89 d6             	mov    rsi,rdx
    b420:	48 89 c7             	mov    rdi,rax
    b423:	e8 28 6c ff ff       	call   2050 <strcasecmp@plt>
    b428:	85 c0                	test   eax,eax
    b42a:	75 3e                	jne    b46a <parseInst+0x2156>
    b42c:	48 8b 85 58 fe ff ff 	mov    rax,QWORD PTR [rbp-0x1a8]
    b433:	c6 80 10 09 00 00 0f 	mov    BYTE PTR [rax+0x910],0xf
    b43a:	48 8b 85 58 fe ff ff 	mov    rax,QWORD PTR [rbp-0x1a8]
    b441:	c6 80 11 09 00 00 05 	mov    BYTE PTR [rax+0x911],0x5
    b448:	48 8b 45 88          	mov    rax,QWORD PTR [rbp-0x78]
    b44c:	c6 00 02             	mov    BYTE PTR [rax],0x2
    b44f:	48 8b 05 2a 42 00 00 	mov    rax,QWORD PTR [rip+0x422a]        # f680 <pc>
    b456:	48 83 c0 02          	add    rax,0x2
    b45a:	48 89 05 1f 42 00 00 	mov    QWORD PTR [rip+0x421f],rax        # f680 <pc>
    b461:	eb 07                	jmp    b46a <parseInst+0x2156>
    b463:	90                   	nop
    b464:	eb 04                	jmp    b46a <parseInst+0x2156>
    b466:	90                   	nop
    b467:	eb 01                	jmp    b46a <parseInst+0x2156>
    b469:	90                   	nop
    b46a:	c9                   	leave
    b46b:	c3                   	ret

000000000000b46c <parse_size_directives>:
parse_size_directives():
    b46c:	55                   	push   rbp
    b46d:	48 89 e5             	mov    rbp,rsp
    b470:	48 83 ec 40          	sub    rsp,0x40
    b474:	48 89 7d c8          	mov    QWORD PTR [rbp-0x38],rdi
    b478:	48 8b 45 c8          	mov    rax,QWORD PTR [rbp-0x38]
    b47c:	8b 00                	mov    eax,DWORD PTR [rax]
    b47e:	89 45 e4             	mov    DWORD PTR [rbp-0x1c],eax
    b481:	48 8b 45 c8          	mov    rax,QWORD PTR [rbp-0x38]
    b485:	48 05 10 09 00 00    	add    rax,0x910
    b48b:	48 89 45 d8          	mov    QWORD PTR [rbp-0x28],rax
    b48f:	83 7d e4 08          	cmp    DWORD PTR [rbp-0x1c],0x8
    b493:	0f 84 90 01 00 00    	je     b629 <parse_size_directives+0x1bd>
    b499:	83 7d e4 08          	cmp    DWORD PTR [rbp-0x1c],0x8
    b49d:	0f 8f 04 02 00 00    	jg     b6a7 <parse_size_directives+0x23b>
    b4a3:	83 7d e4 06          	cmp    DWORD PTR [rbp-0x1c],0x6
    b4a7:	0f 84 ff 00 00 00    	je     b5ac <parse_size_directives+0x140>
    b4ad:	83 7d e4 06          	cmp    DWORD PTR [rbp-0x1c],0x6
    b4b1:	0f 8f f0 01 00 00    	jg     b6a7 <parse_size_directives+0x23b>
    b4b7:	83 7d e4 02          	cmp    DWORD PTR [rbp-0x1c],0x2
    b4bb:	74 0b                	je     b4c8 <parse_size_directives+0x5c>
    b4bd:	83 7d e4 04          	cmp    DWORD PTR [rbp-0x1c],0x4
    b4c1:	74 65                	je     b528 <parse_size_directives+0xbc>
    b4c3:	e9 df 01 00 00       	jmp    b6a7 <parse_size_directives+0x23b>
    b4c8:	48 8b 45 c8          	mov    rax,QWORD PTR [rbp-0x38]
    b4cc:	8b 80 08 02 00 00    	mov    eax,DWORD PTR [rax+0x208]
    b4d2:	48 63 d0             	movsxd rdx,eax
    b4d5:	48 8b 45 c8          	mov    rax,QWORD PTR [rbp-0x38]
    b4d9:	48 8d 88 08 01 00 00 	lea    rcx,[rax+0x108]
    b4e0:	48 8b 45 d8          	mov    rax,QWORD PTR [rbp-0x28]
    b4e4:	48 89 ce             	mov    rsi,rcx
    b4e7:	48 89 c7             	mov    rdi,rax
    b4ea:	e8 21 6c ff ff       	call   2110 <memcpy@plt>
    b4ef:	48 8b 45 c8          	mov    rax,QWORD PTR [rbp-0x38]
    b4f3:	8b 80 08 02 00 00    	mov    eax,DWORD PTR [rax+0x208]
    b4f9:	89 c2                	mov    edx,eax
    b4fb:	48 8b 45 c8          	mov    rax,QWORD PTR [rbp-0x38]
    b4ff:	88 90 50 09 00 00    	mov    BYTE PTR [rax+0x950],dl
    b505:	48 8b 45 c8          	mov    rax,QWORD PTR [rbp-0x38]
    b509:	8b 80 08 02 00 00    	mov    eax,DWORD PTR [rax+0x208]
    b50f:	48 63 d0             	movsxd rdx,eax
    b512:	48 8b 05 67 41 00 00 	mov    rax,QWORD PTR [rip+0x4167]        # f680 <pc>
    b519:	48 01 d0             	add    rax,rdx
    b51c:	48 89 05 5d 41 00 00 	mov    QWORD PTR [rip+0x415d],rax        # f680 <pc>
    b523:	e9 7f 01 00 00       	jmp    b6a7 <parse_size_directives+0x23b>
    b528:	c7 45 fc 00 00 00 00 	mov    DWORD PTR [rbp-0x4],0x0
    b52f:	c7 45 f8 00 00 00 00 	mov    DWORD PTR [rbp-0x8],0x0
    b536:	eb 3a                	jmp    b572 <parse_size_directives+0x106>
    b538:	8b 45 fc             	mov    eax,DWORD PTR [rbp-0x4]
    b53b:	48 63 d0             	movsxd rdx,eax
    b53e:	48 8b 45 d8          	mov    rax,QWORD PTR [rbp-0x28]
    b542:	48 01 c2             	add    rdx,rax
    b545:	48 8b 45 c8          	mov    rax,QWORD PTR [rbp-0x38]
    b549:	8b 4d f8             	mov    ecx,DWORD PTR [rbp-0x8]
    b54c:	48 63 c9             	movsxd rcx,ecx
    b54f:	48 83 e9 80          	sub    rcx,0xffffffffffffff80
    b553:	0f b7 44 48 08       	movzx  eax,WORD PTR [rax+rcx*2+0x8]
    b558:	0f b7 c0             	movzx  eax,ax
    b55b:	48 89 d6             	mov    rsi,rdx
    b55e:	89 c7                	mov    edi,eax
    b560:	e8 f9 7b ff ff       	call   315e <As16>
    b565:	8b 45 fc             	mov    eax,DWORD PTR [rbp-0x4]
    b568:	83 c0 02             	add    eax,0x2
    b56b:	89 45 fc             	mov    DWORD PTR [rbp-0x4],eax
    b56e:	83 45 f8 01          	add    DWORD PTR [rbp-0x8],0x1
    b572:	48 8b 45 c8          	mov    rax,QWORD PTR [rbp-0x38]
    b576:	8b 80 08 03 00 00    	mov    eax,DWORD PTR [rax+0x308]
    b57c:	39 45 f8             	cmp    DWORD PTR [rbp-0x8],eax
    b57f:	7c b7                	jl     b538 <parse_size_directives+0xcc>
    b581:	8b 45 fc             	mov    eax,DWORD PTR [rbp-0x4]
    b584:	89 c2                	mov    edx,eax
    b586:	48 8b 45 c8          	mov    rax,QWORD PTR [rbp-0x38]
    b58a:	88 90 50 09 00 00    	mov    BYTE PTR [rax+0x950],dl
    b590:	8b 45 fc             	mov    eax,DWORD PTR [rbp-0x4]
    b593:	48 63 d0             	movsxd rdx,eax
    b596:	48 8b 05 e3 40 00 00 	mov    rax,QWORD PTR [rip+0x40e3]        # f680 <pc>
    b59d:	48 01 d0             	add    rax,rdx
    b5a0:	48 89 05 d9 40 00 00 	mov    QWORD PTR [rip+0x40d9],rax        # f680 <pc>
    b5a7:	e9 fb 00 00 00       	jmp    b6a7 <parse_size_directives+0x23b>
    b5ac:	c7 45 f4 00 00 00 00 	mov    DWORD PTR [rbp-0xc],0x0
    b5b3:	c7 45 f0 00 00 00 00 	mov    DWORD PTR [rbp-0x10],0x0
    b5ba:	eb 36                	jmp    b5f2 <parse_size_directives+0x186>
    b5bc:	8b 45 f4             	mov    eax,DWORD PTR [rbp-0xc]
    b5bf:	48 63 d0             	movsxd rdx,eax
    b5c2:	48 8b 45 d8          	mov    rax,QWORD PTR [rbp-0x28]
    b5c6:	48 01 c2             	add    rdx,rax
    b5c9:	48 8b 45 c8          	mov    rax,QWORD PTR [rbp-0x38]
    b5cd:	8b 4d f0             	mov    ecx,DWORD PTR [rbp-0x10]
    b5d0:	48 63 c9             	movsxd rcx,ecx
    b5d3:	48 83 c1 40          	add    rcx,0x40
    b5d7:	8b 44 88 08          	mov    eax,DWORD PTR [rax+rcx*4+0x8]
    b5db:	48 89 d6             	mov    rsi,rdx
    b5de:	89 c7                	mov    edi,eax
    b5e0:	e8 aa 7b ff ff       	call   318f <As32>
    b5e5:	8b 45 f4             	mov    eax,DWORD PTR [rbp-0xc]
    b5e8:	83 c0 04             	add    eax,0x4
    b5eb:	89 45 f4             	mov    DWORD PTR [rbp-0xc],eax
    b5ee:	83 45 f0 01          	add    DWORD PTR [rbp-0x10],0x1
    b5f2:	48 8b 45 c8          	mov    rax,QWORD PTR [rbp-0x38]
    b5f6:	8b 80 08 05 00 00    	mov    eax,DWORD PTR [rax+0x508]
    b5fc:	39 45 f0             	cmp    DWORD PTR [rbp-0x10],eax
    b5ff:	7c bb                	jl     b5bc <parse_size_directives+0x150>
    b601:	8b 45 f4             	mov    eax,DWORD PTR [rbp-0xc]
    b604:	89 c2                	mov    edx,eax
    b606:	48 8b 45 c8          	mov    rax,QWORD PTR [rbp-0x38]
    b60a:	88 90 50 09 00 00    	mov    BYTE PTR [rax+0x950],dl
    b610:	8b 45 f4             	mov    eax,DWORD PTR [rbp-0xc]
    b613:	48 63 d0             	movsxd rdx,eax
    b616:	48 8b 05 63 40 00 00 	mov    rax,QWORD PTR [rip+0x4063]        # f680 <pc>
    b61d:	48 01 d0             	add    rax,rdx
    b620:	48 89 05 59 40 00 00 	mov    QWORD PTR [rip+0x4059],rax        # f680 <pc>
    b627:	eb 7e                	jmp    b6a7 <parse_size_directives+0x23b>
    b629:	c7 45 ec 00 00 00 00 	mov    DWORD PTR [rbp-0x14],0x0
    b630:	c7 45 e8 00 00 00 00 	mov    DWORD PTR [rbp-0x18],0x0
    b637:	eb 38                	jmp    b671 <parse_size_directives+0x205>
    b639:	8b 45 ec             	mov    eax,DWORD PTR [rbp-0x14]
    b63c:	48 63 d0             	movsxd rdx,eax
    b63f:	48 8b 45 d8          	mov    rax,QWORD PTR [rbp-0x28]
    b643:	48 01 c2             	add    rdx,rax
    b646:	48 8b 45 c8          	mov    rax,QWORD PTR [rbp-0x38]
    b64a:	8b 4d e8             	mov    ecx,DWORD PTR [rbp-0x18]
    b64d:	48 63 c9             	movsxd rcx,ecx
    b650:	48 83 c1 20          	add    rcx,0x20
    b654:	48 8b 44 c8 08       	mov    rax,QWORD PTR [rax+rcx*8+0x8]
    b659:	48 89 d6             	mov    rsi,rdx
    b65c:	48 89 c7             	mov    rdi,rax
    b65f:	e8 7a 7b ff ff       	call   31de <As64>
    b664:	8b 45 ec             	mov    eax,DWORD PTR [rbp-0x14]
    b667:	83 c0 08             	add    eax,0x8
    b66a:	89 45 ec             	mov    DWORD PTR [rbp-0x14],eax
    b66d:	83 45 e8 01          	add    DWORD PTR [rbp-0x18],0x1
    b671:	48 8b 45 c8          	mov    rax,QWORD PTR [rbp-0x38]
    b675:	8b 80 08 09 00 00    	mov    eax,DWORD PTR [rax+0x908]
    b67b:	39 45 e8             	cmp    DWORD PTR [rbp-0x18],eax
    b67e:	7c b9                	jl     b639 <parse_size_directives+0x1cd>
    b680:	8b 45 ec             	mov    eax,DWORD PTR [rbp-0x14]
    b683:	89 c2                	mov    edx,eax
    b685:	48 8b 45 c8          	mov    rax,QWORD PTR [rbp-0x38]
    b689:	88 90 50 09 00 00    	mov    BYTE PTR [rax+0x950],dl
    b68f:	8b 45 ec             	mov    eax,DWORD PTR [rbp-0x14]
    b692:	48 63 d0             	movsxd rdx,eax
    b695:	48 8b 05 e4 3f 00 00 	mov    rax,QWORD PTR [rip+0x3fe4]        # f680 <pc>
    b69c:	48 01 d0             	add    rax,rdx
    b69f:	48 89 05 da 3f 00 00 	mov    QWORD PTR [rip+0x3fda],rax        # f680 <pc>
    b6a6:	90                   	nop
    b6a7:	90                   	nop
    b6a8:	c9                   	leave
    b6a9:	c3                   	ret

000000000000b6aa <ELFgenfile>:
ELFgenfile():
    b6aa:	55                   	push   rbp
    b6ab:	48 89 e5             	mov    rbp,rsp
    b6ae:	48 81 ec d0 00 00 00 	sub    rsp,0xd0
    b6b5:	48 89 bd 48 ff ff ff 	mov    QWORD PTR [rbp-0xb8],rdi
    b6bc:	48 89 b5 40 ff ff ff 	mov    QWORD PTR [rbp-0xc0],rsi
    b6c3:	48 89 95 38 ff ff ff 	mov    QWORD PTR [rbp-0xc8],rdx
    b6ca:	48 89 8d 30 ff ff ff 	mov    QWORD PTR [rbp-0xd0],rcx
    b6d1:	48 83 bd 48 ff ff ff 	cmp    QWORD PTR [rbp-0xb8],0x0
    b6d8:	00 
    b6d9:	0f 84 c6 01 00 00    	je     b8a5 <ELFgenfile+0x1fb>
    b6df:	48 b8 7f 45 4c 46 02 	movabs rax,0x10102464c457f
    b6e6:	01 01 00 
    b6e9:	ba 00 00 00 00       	mov    edx,0x0
    b6ee:	48 89 45 a0          	mov    QWORD PTR [rbp-0x60],rax
    b6f2:	48 89 55 a8          	mov    QWORD PTR [rbp-0x58],rdx
    b6f6:	48 b8 02 00 3e 00 01 	movabs rax,0x1003e0002
    b6fd:	00 00 00 
    b700:	ba 00 00 00 00       	mov    edx,0x0
    b705:	48 89 45 b0          	mov    QWORD PTR [rbp-0x50],rax
    b709:	48 89 55 b8          	mov    QWORD PTR [rbp-0x48],rdx
    b70d:	48 c7 45 c0 40 00 00 	mov    QWORD PTR [rbp-0x40],0x40
    b714:	00 
    b715:	48 c7 45 c8 00 00 00 	mov    QWORD PTR [rbp-0x38],0x0
    b71c:	00 
    b71d:	48 b8 00 00 00 00 40 	movabs rax,0x38004000000000
    b724:	00 38 00 
    b727:	ba 01 00 00 00       	mov    edx,0x1
    b72c:	48 89 45 d0          	mov    QWORD PTR [rbp-0x30],rax
    b730:	48 89 55 d8          	mov    QWORD PTR [rbp-0x28],rdx
    b734:	48 c7 45 98 00 10 00 	mov    QWORD PTR [rbp-0x68],0x1000
    b73b:	00 
    b73c:	48 c7 45 90 00 10 40 	mov    QWORD PTR [rbp-0x70],0x401000
    b743:	00 
    b744:	48 8b 85 40 ff ff ff 	mov    rax,QWORD PTR [rbp-0xc0]
    b74b:	48 89 45 b8          	mov    QWORD PTR [rbp-0x48],rax
    b74f:	48 8b 95 48 ff ff ff 	mov    rdx,QWORD PTR [rbp-0xb8]
    b756:	48 8d 45 a0          	lea    rax,[rbp-0x60]
    b75a:	48 89 d1             	mov    rcx,rdx
    b75d:	ba 40 00 00 00       	mov    edx,0x40
    b762:	be 01 00 00 00       	mov    esi,0x1
    b767:	48 89 c7             	mov    rdi,rax
    b76a:	e8 01 6a ff ff       	call   2170 <fwrite@plt>
    b76f:	48 b8 01 00 00 00 07 	movabs rax,0x700000001
    b776:	00 00 00 
    b779:	ba 00 00 00 00       	mov    edx,0x0
    b77e:	48 89 85 50 ff ff ff 	mov    QWORD PTR [rbp-0xb0],rax
    b785:	48 89 95 58 ff ff ff 	mov    QWORD PTR [rbp-0xa8],rdx
    b78c:	48 c7 85 60 ff ff ff 	mov    QWORD PTR [rbp-0xa0],0x0
    b793:	00 00 00 00 
    b797:	48 c7 85 68 ff ff ff 	mov    QWORD PTR [rbp-0x98],0x0
    b79e:	00 00 00 00 
    b7a2:	48 c7 85 70 ff ff ff 	mov    QWORD PTR [rbp-0x90],0x0
    b7a9:	00 00 00 00 
    b7ad:	48 c7 85 78 ff ff ff 	mov    QWORD PTR [rbp-0x88],0x0
    b7b4:	00 00 00 00 
    b7b8:	48 c7 45 80 00 10 00 	mov    QWORD PTR [rbp-0x80],0x1000
    b7bf:	00 
    b7c0:	48 8b 45 98          	mov    rax,QWORD PTR [rbp-0x68]
    b7c4:	48 89 85 58 ff ff ff 	mov    QWORD PTR [rbp-0xa8],rax
    b7cb:	48 8b 45 90          	mov    rax,QWORD PTR [rbp-0x70]
    b7cf:	48 89 85 60 ff ff ff 	mov    QWORD PTR [rbp-0xa0],rax
    b7d6:	48 8b 45 90          	mov    rax,QWORD PTR [rbp-0x70]
    b7da:	48 89 85 68 ff ff ff 	mov    QWORD PTR [rbp-0x98],rax
    b7e1:	48 8b 85 30 ff ff ff 	mov    rax,QWORD PTR [rbp-0xd0]
    b7e8:	48 89 85 70 ff ff ff 	mov    QWORD PTR [rbp-0x90],rax
    b7ef:	48 8b 85 30 ff ff ff 	mov    rax,QWORD PTR [rbp-0xd0]
    b7f6:	48 89 85 78 ff ff ff 	mov    QWORD PTR [rbp-0x88],rax
    b7fd:	48 8b 95 48 ff ff ff 	mov    rdx,QWORD PTR [rbp-0xb8]
    b804:	48 8d 85 50 ff ff ff 	lea    rax,[rbp-0xb0]
    b80b:	48 89 d1             	mov    rcx,rdx
    b80e:	ba 38 00 00 00       	mov    edx,0x38
    b813:	be 01 00 00 00       	mov    esi,0x1
    b818:	48 89 c7             	mov    rdi,rax
    b81b:	e8 50 69 ff ff       	call   2170 <fwrite@plt>
    b820:	48 c7 45 f8 88 0f 00 	mov    QWORD PTR [rbp-0x8],0xf88
    b827:	00 
    b828:	48 8b 45 f8          	mov    rax,QWORD PTR [rbp-0x8]
    b82c:	48 89 c6             	mov    rsi,rax
    b82f:	bf 01 00 00 00       	mov    edi,0x1
    b834:	e8 a7 68 ff ff       	call   20e0 <calloc@plt>
    b839:	48 89 45 f0          	mov    QWORD PTR [rbp-0x10],rax
    b83d:	48 8b 8d 48 ff ff ff 	mov    rcx,QWORD PTR [rbp-0xb8]
    b844:	48 8b 55 f8          	mov    rdx,QWORD PTR [rbp-0x8]
    b848:	48 8b 45 f0          	mov    rax,QWORD PTR [rbp-0x10]
    b84c:	be 01 00 00 00       	mov    esi,0x1
    b851:	48 89 c7             	mov    rdi,rax
    b854:	e8 17 69 ff ff       	call   2170 <fwrite@plt>
    b859:	48 8b 45 f0          	mov    rax,QWORD PTR [rbp-0x10]
    b85d:	48 89 c7             	mov    rdi,rax
    b860:	e8 cb 67 ff ff       	call   2030 <free@plt>
    b865:	66 c7 45 ee 00 10    	mov    WORD PTR [rbp-0x12],0x1000
    b86b:	48 0f bf 55 ee       	movsx  rdx,WORD PTR [rbp-0x12]
    b870:	48 8b 05 09 3e 00 00 	mov    rax,QWORD PTR [rip+0x3e09]        # f680 <pc>
    b877:	48 01 d0             	add    rax,rdx
    b87a:	48 89 05 ff 3d 00 00 	mov    QWORD PTR [rip+0x3dff],rax        # f680 <pc>
    b881:	48 8b 95 30 ff ff ff 	mov    rdx,QWORD PTR [rbp-0xd0]
    b888:	48 8b 8d 48 ff ff ff 	mov    rcx,QWORD PTR [rbp-0xb8]
    b88f:	48 8b 85 38 ff ff ff 	mov    rax,QWORD PTR [rbp-0xc8]
    b896:	be 01 00 00 00       	mov    esi,0x1
    b89b:	48 89 c7             	mov    rdi,rax
    b89e:	e8 cd 68 ff ff       	call   2170 <fwrite@plt>
    b8a3:	eb 01                	jmp    b8a6 <ELFgenfile+0x1fc>
    b8a5:	90                   	nop
    b8a6:	c9                   	leave
    b8a7:	c3                   	ret

000000000000b8a8 <compiler>:
compiler():
    b8a8:	55                   	push   rbp
    b8a9:	48 89 e5             	mov    rbp,rsp
    b8ac:	48 83 ec 30          	sub    rsp,0x30
    b8b0:	48 89 7d e8          	mov    QWORD PTR [rbp-0x18],rdi
    b8b4:	48 89 75 e0          	mov    QWORD PTR [rbp-0x20],rsi
    b8b8:	48 89 55 d8          	mov    QWORD PTR [rbp-0x28],rdx
    b8bc:	48 83 7d e8 00       	cmp    QWORD PTR [rbp-0x18],0x0
    b8c1:	0f 84 85 04 00 00    	je     bd4c <compiler+0x4a4>
    b8c7:	c7 45 fc 00 00 00 00 	mov    DWORD PTR [rbp-0x4],0x0
    b8ce:	c7 45 f8 00 00 00 00 	mov    DWORD PTR [rbp-0x8],0x0
    b8d5:	e9 cc 00 00 00       	jmp    b9a6 <compiler+0xfe>
    b8da:	8b 45 f8             	mov    eax,DWORD PTR [rbp-0x8]
    b8dd:	48 98                	cdqe
    b8df:	48 69 c0 58 09 00 00 	imul   rax,rax,0x958
    b8e6:	48 8d 15 d3 9d 00 00 	lea    rdx,[rip+0x9dd3]        # 156c0 <ast>
    b8ed:	8b 04 10             	mov    eax,DWORD PTR [rax+rdx*1]
    b8f0:	83 f8 01             	cmp    eax,0x1
    b8f3:	75 23                	jne    b918 <compiler+0x70>
    b8f5:	8b 45 f8             	mov    eax,DWORD PTR [rbp-0x8]
    b8f8:	48 98                	cdqe
    b8fa:	48 69 c0 58 09 00 00 	imul   rax,rax,0x958
    b901:	48 8d 15 b8 9d 00 00 	lea    rdx,[rip+0x9db8]        # 156c0 <ast>
    b908:	48 01 d0             	add    rax,rdx
    b90b:	48 89 c7             	mov    rdi,rax
    b90e:	e8 01 da ff ff       	call   9314 <parseInst>
    b913:	e9 8a 00 00 00       	jmp    b9a2 <compiler+0xfa>
    b918:	8b 45 f8             	mov    eax,DWORD PTR [rbp-0x8]
    b91b:	48 98                	cdqe
    b91d:	48 69 c0 58 09 00 00 	imul   rax,rax,0x958
    b924:	48 8d 15 95 9d 00 00 	lea    rdx,[rip+0x9d95]        # 156c0 <ast>
    b92b:	8b 04 10             	mov    eax,DWORD PTR [rax+rdx*1]
    b92e:	83 f8 02             	cmp    eax,0x2
    b931:	74 51                	je     b984 <compiler+0xdc>
    b933:	8b 45 f8             	mov    eax,DWORD PTR [rbp-0x8]
    b936:	48 98                	cdqe
    b938:	48 69 c0 58 09 00 00 	imul   rax,rax,0x958
    b93f:	48 8d 15 7a 9d 00 00 	lea    rdx,[rip+0x9d7a]        # 156c0 <ast>
    b946:	8b 04 10             	mov    eax,DWORD PTR [rax+rdx*1]
    b949:	83 f8 04             	cmp    eax,0x4
    b94c:	74 36                	je     b984 <compiler+0xdc>
    b94e:	8b 45 f8             	mov    eax,DWORD PTR [rbp-0x8]
    b951:	48 98                	cdqe
    b953:	48 69 c0 58 09 00 00 	imul   rax,rax,0x958
    b95a:	48 8d 15 5f 9d 00 00 	lea    rdx,[rip+0x9d5f]        # 156c0 <ast>
    b961:	8b 04 10             	mov    eax,DWORD PTR [rax+rdx*1]
    b964:	83 f8 06             	cmp    eax,0x6
    b967:	74 1b                	je     b984 <compiler+0xdc>
    b969:	8b 45 f8             	mov    eax,DWORD PTR [rbp-0x8]
    b96c:	48 98                	cdqe
    b96e:	48 69 c0 58 09 00 00 	imul   rax,rax,0x958
    b975:	48 8d 15 44 9d 00 00 	lea    rdx,[rip+0x9d44]        # 156c0 <ast>
    b97c:	8b 04 10             	mov    eax,DWORD PTR [rax+rdx*1]
    b97f:	83 f8 08             	cmp    eax,0x8
    b982:	75 1e                	jne    b9a2 <compiler+0xfa>
    b984:	8b 45 f8             	mov    eax,DWORD PTR [rbp-0x8]
    b987:	48 98                	cdqe
    b989:	48 69 c0 58 09 00 00 	imul   rax,rax,0x958
    b990:	48 8d 15 29 9d 00 00 	lea    rdx,[rip+0x9d29]        # 156c0 <ast>
    b997:	48 01 d0             	add    rax,rdx
    b99a:	48 89 c7             	mov    rdi,rax
    b99d:	e8 ca fa ff ff       	call   b46c <parse_size_directives>
    b9a2:	83 45 f8 01          	add    DWORD PTR [rbp-0x8],0x1
    b9a6:	8b 05 14 fd 25 00    	mov    eax,DWORD PTR [rip+0x25fd14]        # 26b6c0 <ast_count>
    b9ac:	39 45 f8             	cmp    DWORD PTR [rbp-0x8],eax
    b9af:	0f 8c 25 ff ff ff    	jl     b8da <compiler+0x32>
    b9b5:	e8 d9 98 ff ff       	call   5293 <collect_labels>
    b9ba:	48 8b 55 d8          	mov    rdx,QWORD PTR [rbp-0x28]
    b9be:	48 89 02             	mov    QWORD PTR [rdx],rax
    b9c1:	e8 4e 9b ff ff       	call   5514 <resolve_labels>
    b9c6:	c7 45 f4 00 00 00 00 	mov    DWORD PTR [rbp-0xc],0x0
    b9cd:	e9 60 03 00 00       	jmp    bd32 <compiler+0x48a>
    b9d2:	8b 45 f4             	mov    eax,DWORD PTR [rbp-0xc]
    b9d5:	48 98                	cdqe
    b9d7:	48 69 c0 58 09 00 00 	imul   rax,rax,0x958
    b9de:	48 8d 15 db 9c 00 00 	lea    rdx,[rip+0x9cdb]        # 156c0 <ast>
    b9e5:	8b 04 10             	mov    eax,DWORD PTR [rax+rdx*1]
    b9e8:	83 f8 01             	cmp    eax,0x1
    b9eb:	0f 85 8e 00 00 00    	jne    ba7f <compiler+0x1d7>
    b9f1:	8b 45 f4             	mov    eax,DWORD PTR [rbp-0xc]
    b9f4:	48 98                	cdqe
    b9f6:	48 69 c0 58 09 00 00 	imul   rax,rax,0x958
    b9fd:	48 8d 15 0c a6 00 00 	lea    rdx,[rip+0xa60c]        # 16010 <ast+0x950>
    ba04:	0f b6 04 10          	movzx  eax,BYTE PTR [rax+rdx*1]
    ba08:	84 c0                	test   al,al
    ba0a:	74 73                	je     ba7f <compiler+0x1d7>
    ba0c:	8b 45 f4             	mov    eax,DWORD PTR [rbp-0xc]
    ba0f:	48 98                	cdqe
    ba11:	48 69 c0 58 09 00 00 	imul   rax,rax,0x958
    ba18:	48 8d 15 f1 a5 00 00 	lea    rdx,[rip+0xa5f1]        # 16010 <ast+0x950>
    ba1f:	0f b6 04 10          	movzx  eax,BYTE PTR [rax+rdx*1]
    ba23:	0f b6 c0             	movzx  eax,al
    ba26:	8b 55 f4             	mov    edx,DWORD PTR [rbp-0xc]
    ba29:	48 63 d2             	movsxd rdx,edx
    ba2c:	48 69 d2 58 09 00 00 	imul   rdx,rdx,0x958
    ba33:	48 8d 8a 10 09 00 00 	lea    rcx,[rdx+0x910]
    ba3a:	48 8d 15 7f 9c 00 00 	lea    rdx,[rip+0x9c7f]        # 156c0 <ast>
    ba41:	48 8d 34 11          	lea    rsi,[rcx+rdx*1]
    ba45:	8b 55 fc             	mov    edx,DWORD PTR [rbp-0x4]
    ba48:	48 63 ca             	movsxd rcx,edx
    ba4b:	48 8b 55 e8          	mov    rdx,QWORD PTR [rbp-0x18]
    ba4f:	48 01 d1             	add    rcx,rdx
    ba52:	48 89 c2             	mov    rdx,rax
    ba55:	48 89 cf             	mov    rdi,rcx
    ba58:	e8 b3 66 ff ff       	call   2110 <memcpy@plt>
    ba5d:	8b 45 f4             	mov    eax,DWORD PTR [rbp-0xc]
    ba60:	48 98                	cdqe
    ba62:	48 69 c0 58 09 00 00 	imul   rax,rax,0x958
    ba69:	48 8d 15 a0 a5 00 00 	lea    rdx,[rip+0xa5a0]        # 16010 <ast+0x950>
    ba70:	0f b6 04 10          	movzx  eax,BYTE PTR [rax+rdx*1]
    ba74:	0f b6 c0             	movzx  eax,al
    ba77:	01 45 fc             	add    DWORD PTR [rbp-0x4],eax
    ba7a:	e9 af 02 00 00       	jmp    bd2e <compiler+0x486>
    ba7f:	8b 45 f4             	mov    eax,DWORD PTR [rbp-0xc]
    ba82:	48 98                	cdqe
    ba84:	48 69 c0 58 09 00 00 	imul   rax,rax,0x958
    ba8b:	48 8d 15 2e 9c 00 00 	lea    rdx,[rip+0x9c2e]        # 156c0 <ast>
    ba92:	8b 04 10             	mov    eax,DWORD PTR [rax+rdx*1]
    ba95:	83 f8 02             	cmp    eax,0x2
    ba98:	0f 85 8e 00 00 00    	jne    bb2c <compiler+0x284>
    ba9e:	8b 45 f4             	mov    eax,DWORD PTR [rbp-0xc]
    baa1:	48 98                	cdqe
    baa3:	48 69 c0 58 09 00 00 	imul   rax,rax,0x958
    baaa:	48 8d 15 5f a5 00 00 	lea    rdx,[rip+0xa55f]        # 16010 <ast+0x950>
    bab1:	0f b6 04 10          	movzx  eax,BYTE PTR [rax+rdx*1]
    bab5:	84 c0                	test   al,al
    bab7:	74 73                	je     bb2c <compiler+0x284>
    bab9:	8b 45 f4             	mov    eax,DWORD PTR [rbp-0xc]
    babc:	48 98                	cdqe
    babe:	48 69 c0 58 09 00 00 	imul   rax,rax,0x958
    bac5:	48 8d 15 44 a5 00 00 	lea    rdx,[rip+0xa544]        # 16010 <ast+0x950>
    bacc:	0f b6 04 10          	movzx  eax,BYTE PTR [rax+rdx*1]
    bad0:	0f b6 c0             	movzx  eax,al
    bad3:	8b 55 f4             	mov    edx,DWORD PTR [rbp-0xc]
    bad6:	48 63 d2             	movsxd rdx,edx
    bad9:	48 69 d2 58 09 00 00 	imul   rdx,rdx,0x958
    bae0:	48 8d 8a 10 09 00 00 	lea    rcx,[rdx+0x910]
    bae7:	48 8d 15 d2 9b 00 00 	lea    rdx,[rip+0x9bd2]        # 156c0 <ast>
    baee:	48 8d 34 11          	lea    rsi,[rcx+rdx*1]
    baf2:	8b 55 fc             	mov    edx,DWORD PTR [rbp-0x4]
    baf5:	48 63 ca             	movsxd rcx,edx
    baf8:	48 8b 55 e8          	mov    rdx,QWORD PTR [rbp-0x18]
    bafc:	48 01 d1             	add    rcx,rdx
    baff:	48 89 c2             	mov    rdx,rax
    bb02:	48 89 cf             	mov    rdi,rcx
    bb05:	e8 06 66 ff ff       	call   2110 <memcpy@plt>
    bb0a:	8b 45 f4             	mov    eax,DWORD PTR [rbp-0xc]
    bb0d:	48 98                	cdqe
    bb0f:	48 69 c0 58 09 00 00 	imul   rax,rax,0x958
    bb16:	48 8d 15 f3 a4 00 00 	lea    rdx,[rip+0xa4f3]        # 16010 <ast+0x950>
    bb1d:	0f b6 04 10          	movzx  eax,BYTE PTR [rax+rdx*1]
    bb21:	0f b6 c0             	movzx  eax,al
    bb24:	01 45 fc             	add    DWORD PTR [rbp-0x4],eax
    bb27:	e9 02 02 00 00       	jmp    bd2e <compiler+0x486>
    bb2c:	8b 45 f4             	mov    eax,DWORD PTR [rbp-0xc]
    bb2f:	48 98                	cdqe
    bb31:	48 69 c0 58 09 00 00 	imul   rax,rax,0x958
    bb38:	48 8d 15 81 9b 00 00 	lea    rdx,[rip+0x9b81]        # 156c0 <ast>
    bb3f:	8b 04 10             	mov    eax,DWORD PTR [rax+rdx*1]
    bb42:	83 f8 04             	cmp    eax,0x4
    bb45:	0f 85 8e 00 00 00    	jne    bbd9 <compiler+0x331>
    bb4b:	8b 45 f4             	mov    eax,DWORD PTR [rbp-0xc]
    bb4e:	48 98                	cdqe
    bb50:	48 69 c0 58 09 00 00 	imul   rax,rax,0x958
    bb57:	48 8d 15 b2 a4 00 00 	lea    rdx,[rip+0xa4b2]        # 16010 <ast+0x950>
    bb5e:	0f b6 04 10          	movzx  eax,BYTE PTR [rax+rdx*1]
    bb62:	84 c0                	test   al,al
    bb64:	74 73                	je     bbd9 <compiler+0x331>
    bb66:	8b 45 f4             	mov    eax,DWORD PTR [rbp-0xc]
    bb69:	48 98                	cdqe
    bb6b:	48 69 c0 58 09 00 00 	imul   rax,rax,0x958
    bb72:	48 8d 15 97 a4 00 00 	lea    rdx,[rip+0xa497]        # 16010 <ast+0x950>
    bb79:	0f b6 04 10          	movzx  eax,BYTE PTR [rax+rdx*1]
    bb7d:	0f b6 c0             	movzx  eax,al
    bb80:	8b 55 f4             	mov    edx,DWORD PTR [rbp-0xc]
    bb83:	48 63 d2             	movsxd rdx,edx
    bb86:	48 69 d2 58 09 00 00 	imul   rdx,rdx,0x958
    bb8d:	48 8d 8a 10 09 00 00 	lea    rcx,[rdx+0x910]
    bb94:	48 8d 15 25 9b 00 00 	lea    rdx,[rip+0x9b25]        # 156c0 <ast>
    bb9b:	48 8d 34 11          	lea    rsi,[rcx+rdx*1]
    bb9f:	8b 55 fc             	mov    edx,DWORD PTR [rbp-0x4]
    bba2:	48 63 ca             	movsxd rcx,edx
    bba5:	48 8b 55 e8          	mov    rdx,QWORD PTR [rbp-0x18]
    bba9:	48 01 d1             	add    rcx,rdx
    bbac:	48 89 c2             	mov    rdx,rax
    bbaf:	48 89 cf             	mov    rdi,rcx
    bbb2:	e8 59 65 ff ff       	call   2110 <memcpy@plt>
    bbb7:	8b 45 f4             	mov    eax,DWORD PTR [rbp-0xc]
    bbba:	48 98                	cdqe
    bbbc:	48 69 c0 58 09 00 00 	imul   rax,rax,0x958
    bbc3:	48 8d 15 46 a4 00 00 	lea    rdx,[rip+0xa446]        # 16010 <ast+0x950>
    bbca:	0f b6 04 10          	movzx  eax,BYTE PTR [rax+rdx*1]
    bbce:	0f b6 c0             	movzx  eax,al
    bbd1:	01 45 fc             	add    DWORD PTR [rbp-0x4],eax
    bbd4:	e9 55 01 00 00       	jmp    bd2e <compiler+0x486>
    bbd9:	8b 45 f4             	mov    eax,DWORD PTR [rbp-0xc]
    bbdc:	48 98                	cdqe
    bbde:	48 69 c0 58 09 00 00 	imul   rax,rax,0x958
    bbe5:	48 8d 15 d4 9a 00 00 	lea    rdx,[rip+0x9ad4]        # 156c0 <ast>
    bbec:	8b 04 10             	mov    eax,DWORD PTR [rax+rdx*1]
    bbef:	83 f8 06             	cmp    eax,0x6
    bbf2:	0f 85 8e 00 00 00    	jne    bc86 <compiler+0x3de>
    bbf8:	8b 45 f4             	mov    eax,DWORD PTR [rbp-0xc]
    bbfb:	48 98                	cdqe
    bbfd:	48 69 c0 58 09 00 00 	imul   rax,rax,0x958
    bc04:	48 8d 15 05 a4 00 00 	lea    rdx,[rip+0xa405]        # 16010 <ast+0x950>
    bc0b:	0f b6 04 10          	movzx  eax,BYTE PTR [rax+rdx*1]
    bc0f:	84 c0                	test   al,al
    bc11:	74 73                	je     bc86 <compiler+0x3de>
    bc13:	8b 45 f4             	mov    eax,DWORD PTR [rbp-0xc]
    bc16:	48 98                	cdqe
    bc18:	48 69 c0 58 09 00 00 	imul   rax,rax,0x958
    bc1f:	48 8d 15 ea a3 00 00 	lea    rdx,[rip+0xa3ea]        # 16010 <ast+0x950>
    bc26:	0f b6 04 10          	movzx  eax,BYTE PTR [rax+rdx*1]
    bc2a:	0f b6 c0             	movzx  eax,al
    bc2d:	8b 55 f4             	mov    edx,DWORD PTR [rbp-0xc]
    bc30:	48 63 d2             	movsxd rdx,edx
    bc33:	48 69 d2 58 09 00 00 	imul   rdx,rdx,0x958
    bc3a:	48 8d 8a 10 09 00 00 	lea    rcx,[rdx+0x910]
    bc41:	48 8d 15 78 9a 00 00 	lea    rdx,[rip+0x9a78]        # 156c0 <ast>
    bc48:	48 8d 34 11          	lea    rsi,[rcx+rdx*1]
    bc4c:	8b 55 fc             	mov    edx,DWORD PTR [rbp-0x4]
    bc4f:	48 63 ca             	movsxd rcx,edx
    bc52:	48 8b 55 e8          	mov    rdx,QWORD PTR [rbp-0x18]
    bc56:	48 01 d1             	add    rcx,rdx
    bc59:	48 89 c2             	mov    rdx,rax
    bc5c:	48 89 cf             	mov    rdi,rcx
    bc5f:	e8 ac 64 ff ff       	call   2110 <memcpy@plt>
    bc64:	8b 45 f4             	mov    eax,DWORD PTR [rbp-0xc]
    bc67:	48 98                	cdqe
    bc69:	48 69 c0 58 09 00 00 	imul   rax,rax,0x958
    bc70:	48 8d 15 99 a3 00 00 	lea    rdx,[rip+0xa399]        # 16010 <ast+0x950>
    bc77:	0f b6 04 10          	movzx  eax,BYTE PTR [rax+rdx*1]
    bc7b:	0f b6 c0             	movzx  eax,al
    bc7e:	01 45 fc             	add    DWORD PTR [rbp-0x4],eax
    bc81:	e9 a8 00 00 00       	jmp    bd2e <compiler+0x486>
    bc86:	8b 45 f4             	mov    eax,DWORD PTR [rbp-0xc]
    bc89:	48 98                	cdqe
    bc8b:	48 69 c0 58 09 00 00 	imul   rax,rax,0x958
    bc92:	48 8d 15 27 9a 00 00 	lea    rdx,[rip+0x9a27]        # 156c0 <ast>
    bc99:	8b 04 10             	mov    eax,DWORD PTR [rax+rdx*1]
    bc9c:	83 f8 08             	cmp    eax,0x8
    bc9f:	0f 85 89 00 00 00    	jne    bd2e <compiler+0x486>
    bca5:	8b 45 f4             	mov    eax,DWORD PTR [rbp-0xc]
    bca8:	48 98                	cdqe
    bcaa:	48 69 c0 58 09 00 00 	imul   rax,rax,0x958
    bcb1:	48 8d 15 58 a3 00 00 	lea    rdx,[rip+0xa358]        # 16010 <ast+0x950>
    bcb8:	0f b6 04 10          	movzx  eax,BYTE PTR [rax+rdx*1]
    bcbc:	84 c0                	test   al,al
    bcbe:	74 6e                	je     bd2e <compiler+0x486>
    bcc0:	8b 45 f4             	mov    eax,DWORD PTR [rbp-0xc]
    bcc3:	48 98                	cdqe
    bcc5:	48 69 c0 58 09 00 00 	imul   rax,rax,0x958
    bccc:	48 8d 15 3d a3 00 00 	lea    rdx,[rip+0xa33d]        # 16010 <ast+0x950>
    bcd3:	0f b6 04 10          	movzx  eax,BYTE PTR [rax+rdx*1]
    bcd7:	0f b6 c0             	movzx  eax,al
    bcda:	8b 55 f4             	mov    edx,DWORD PTR [rbp-0xc]
    bcdd:	48 63 d2             	movsxd rdx,edx
    bce0:	48 69 d2 58 09 00 00 	imul   rdx,rdx,0x958
    bce7:	48 8d 8a 10 09 00 00 	lea    rcx,[rdx+0x910]
    bcee:	48 8d 15 cb 99 00 00 	lea    rdx,[rip+0x99cb]        # 156c0 <ast>
    bcf5:	48 8d 34 11          	lea    rsi,[rcx+rdx*1]
    bcf9:	8b 55 fc             	mov    edx,DWORD PTR [rbp-0x4]
    bcfc:	48 63 ca             	movsxd rcx,edx
    bcff:	48 8b 55 e8          	mov    rdx,QWORD PTR [rbp-0x18]
    bd03:	48 01 d1             	add    rcx,rdx
    bd06:	48 89 c2             	mov    rdx,rax
    bd09:	48 89 cf             	mov    rdi,rcx
    bd0c:	e8 ff 63 ff ff       	call   2110 <memcpy@plt>
    bd11:	8b 45 f4             	mov    eax,DWORD PTR [rbp-0xc]
    bd14:	48 98                	cdqe
    bd16:	48 69 c0 58 09 00 00 	imul   rax,rax,0x958
    bd1d:	48 8d 15 ec a2 00 00 	lea    rdx,[rip+0xa2ec]        # 16010 <ast+0x950>
    bd24:	0f b6 04 10          	movzx  eax,BYTE PTR [rax+rdx*1]
    bd28:	0f b6 c0             	movzx  eax,al
    bd2b:	01 45 fc             	add    DWORD PTR [rbp-0x4],eax
    bd2e:	83 45 f4 01          	add    DWORD PTR [rbp-0xc],0x1
    bd32:	8b 05 88 f9 25 00    	mov    eax,DWORD PTR [rip+0x25f988]        # 26b6c0 <ast_count>
    bd38:	39 45 f4             	cmp    DWORD PTR [rbp-0xc],eax
    bd3b:	0f 8c 91 fc ff ff    	jl     b9d2 <compiler+0x12a>
    bd41:	48 8b 45 e0          	mov    rax,QWORD PTR [rbp-0x20]
    bd45:	8b 55 fc             	mov    edx,DWORD PTR [rbp-0x4]
    bd48:	89 10                	mov    DWORD PTR [rax],edx
    bd4a:	eb 01                	jmp    bd4d <compiler+0x4a5>
    bd4c:	90                   	nop
    bd4d:	c9                   	leave
    bd4e:	c3                   	ret

000000000000bd4f <handl_pipeline>:
handl_pipeline():
    bd4f:	55                   	push   rbp
    bd50:	48 89 e5             	mov    rbp,rsp
    bd53:	48 83 ec 30          	sub    rsp,0x30
    bd57:	89 7d dc             	mov    DWORD PTR [rbp-0x24],edi
    bd5a:	48 89 75 d0          	mov    QWORD PTR [rbp-0x30],rsi
    bd5e:	c7 45 ec 00 00 00 00 	mov    DWORD PTR [rbp-0x14],0x0
    bd65:	48 c7 45 e0 00 10 40 	mov    QWORD PTR [rbp-0x20],0x401000
    bd6c:	00 
    bd6d:	48 8b 45 d0          	mov    rax,QWORD PTR [rbp-0x30]
    bd71:	48 8b 00             	mov    rax,QWORD PTR [rax]
    bd74:	48 8d 15 c3 12 00 00 	lea    rdx,[rip+0x12c3]        # d03e <_IO_stdin_used+0x103e>
    bd7b:	48 89 d6             	mov    rsi,rdx
    bd7e:	48 89 c7             	mov    rdi,rax
    bd81:	e8 ba 63 ff ff       	call   2140 <fopen@plt>
    bd86:	48 89 45 f8          	mov    QWORD PTR [rbp-0x8],rax
    bd8a:	48 8b 45 f8          	mov    rax,QWORD PTR [rbp-0x8]
    bd8e:	48 89 c7             	mov    rdi,rax
    bd91:	e8 f6 74 ff ff       	call   328c <LEXER>
    bd96:	e8 07 6d ff ff       	call   2aa2 <DEBUG_PRINT_TOKENS>
    bd9b:	48 8b 45 f8          	mov    rax,QWORD PTR [rbp-0x8]
    bd9f:	48 89 c7             	mov    rdi,rax
    bda2:	e8 e9 62 ff ff       	call   2090 <fclose@plt>
    bda7:	e8 33 9c ff ff       	call   59df <PARSE>
    bdac:	48 8b 45 d0          	mov    rax,QWORD PTR [rbp-0x30]
    bdb0:	48 83 c0 08          	add    rax,0x8
    bdb4:	48 8b 00             	mov    rax,QWORD PTR [rax]
    bdb7:	48 8d 15 82 12 00 00 	lea    rdx,[rip+0x1282]        # d040 <_IO_stdin_used+0x1040>
    bdbe:	48 89 d6             	mov    rsi,rdx
    bdc1:	48 89 c7             	mov    rdi,rax
    bdc4:	e8 77 63 ff ff       	call   2140 <fopen@plt>
    bdc9:	48 89 45 f0          	mov    QWORD PTR [rbp-0x10],rax
    bdcd:	48 8d 55 e0          	lea    rdx,[rbp-0x20]
    bdd1:	48 8d 45 ec          	lea    rax,[rbp-0x14]
    bdd5:	48 89 c6             	mov    rsi,rax
    bdd8:	48 8d 05 01 f9 25 00 	lea    rax,[rip+0x25f901]        # 26b6e0 <text.0>
    bddf:	48 89 c7             	mov    rdi,rax
    bde2:	e8 c1 fa ff ff       	call   b8a8 <compiler>
    bde7:	8b 45 ec             	mov    eax,DWORD PTR [rbp-0x14]
    bdea:	48 63 d0             	movsxd rdx,eax
    bded:	48 8b 75 e0          	mov    rsi,QWORD PTR [rbp-0x20]
    bdf1:	48 8b 45 f0          	mov    rax,QWORD PTR [rbp-0x10]
    bdf5:	48 89 d1             	mov    rcx,rdx
    bdf8:	48 8d 15 e1 f8 25 00 	lea    rdx,[rip+0x25f8e1]        # 26b6e0 <text.0>
    bdff:	48 89 c7             	mov    rdi,rax
    be02:	e8 a3 f8 ff ff       	call   b6aa <ELFgenfile>
    be07:	e8 f8 8c ff ff       	call   4b04 <DEBUG_PRINT_AST>
    be0c:	48 8b 45 f0          	mov    rax,QWORD PTR [rbp-0x10]
    be10:	48 89 c7             	mov    rdi,rax
    be13:	e8 78 62 ff ff       	call   2090 <fclose@plt>
    be18:	48 8b 15 61 38 00 00 	mov    rdx,QWORD PTR [rip+0x3861]        # f680 <pc>
    be1f:	48 8b 45 d0          	mov    rax,QWORD PTR [rbp-0x30]
    be23:	48 83 c0 08          	add    rax,0x8
    be27:	48 8b 00             	mov    rax,QWORD PTR [rax]
    be2a:	48 89 c6             	mov    rsi,rax
    be2d:	48 8d 05 14 12 00 00 	lea    rax,[rip+0x1214]        # d048 <_IO_stdin_used+0x1048>
    be34:	48 89 c7             	mov    rdi,rax
    be37:	b8 00 00 00 00       	mov    eax,0x0
    be3c:	e8 5f 62 ff ff       	call   20a0 <printf@plt>
    be41:	bf 00 00 00 00       	mov    edi,0x0
    be46:	e8 15 63 ff ff       	call   2160 <exit@plt>

000000000000be4b <main>:
main():
    be4b:	55                   	push   rbp
    be4c:	48 89 e5             	mov    rbp,rsp
    be4f:	48 83 ec 40          	sub    rsp,0x40
    be53:	89 7d cc             	mov    DWORD PTR [rbp-0x34],edi
    be56:	48 89 75 c0          	mov    QWORD PTR [rbp-0x40],rsi
    be5a:	83 7d cc 01          	cmp    DWORD PTR [rbp-0x34],0x1
    be5e:	7f 19                	jg     be79 <main+0x2e>
    be60:	48 8d 05 11 12 00 00 	lea    rax,[rip+0x1211]        # d078 <_IO_stdin_used+0x1078>
    be67:	48 89 c7             	mov    rdi,rax
    be6a:	e8 11 62 ff ff       	call   2080 <puts@plt>
    be6f:	b8 01 00 00 00       	mov    eax,0x1
    be74:	e9 54 01 00 00       	jmp    bfcd <main+0x182>
    be79:	48 c7 45 f8 00 00 00 	mov    QWORD PTR [rbp-0x8],0x0
    be80:	00 
    be81:	48 8d 05 1d 12 00 00 	lea    rax,[rip+0x121d]        # d0a5 <_IO_stdin_used+0x10a5>
    be88:	48 89 45 f0          	mov    QWORD PTR [rbp-0x10],rax
    be8c:	c7 45 ec 01 00 00 00 	mov    DWORD PTR [rbp-0x14],0x1
    be93:	e9 e6 00 00 00       	jmp    bf7e <main+0x133>
    be98:	8b 45 ec             	mov    eax,DWORD PTR [rbp-0x14]
    be9b:	48 98                	cdqe
    be9d:	48 8d 14 c5 00 00 00 	lea    rdx,[rax*8+0x0]
    bea4:	00 
    bea5:	48 8b 45 c0          	mov    rax,QWORD PTR [rbp-0x40]
    bea9:	48 01 d0             	add    rax,rdx
    beac:	48 8b 00             	mov    rax,QWORD PTR [rax]
    beaf:	ba 02 00 00 00       	mov    edx,0x2
    beb4:	48 8d 0d f0 11 00 00 	lea    rcx,[rip+0x11f0]        # d0ab <_IO_stdin_used+0x10ab>
    bebb:	48 89 ce             	mov    rsi,rcx
    bebe:	48 89 c7             	mov    rdi,rax
    bec1:	e8 aa 61 ff ff       	call   2070 <strncmp@plt>
    bec6:	85 c0                	test   eax,eax
    bec8:	75 24                	jne    beee <main+0xa3>
    beca:	8b 45 ec             	mov    eax,DWORD PTR [rbp-0x14]
    becd:	48 98                	cdqe
    becf:	48 8d 14 c5 00 00 00 	lea    rdx,[rax*8+0x0]
    bed6:	00 
    bed7:	48 8b 45 c0          	mov    rax,QWORD PTR [rbp-0x40]
    bedb:	48 01 d0             	add    rax,rdx
    bede:	48 8b 00             	mov    rax,QWORD PTR [rax]
    bee1:	48 83 c0 02          	add    rax,0x2
    bee5:	48 89 45 f8          	mov    QWORD PTR [rbp-0x8],rax
    bee9:	e9 8c 00 00 00       	jmp    bf7a <main+0x12f>
    beee:	8b 45 ec             	mov    eax,DWORD PTR [rbp-0x14]
    bef1:	48 98                	cdqe
    bef3:	48 8d 14 c5 00 00 00 	lea    rdx,[rax*8+0x0]
    befa:	00 
    befb:	48 8b 45 c0          	mov    rax,QWORD PTR [rbp-0x40]
    beff:	48 01 d0             	add    rax,rdx
    bf02:	48 8b 00             	mov    rax,QWORD PTR [rax]
    bf05:	ba 02 00 00 00       	mov    edx,0x2
    bf0a:	48 8d 0d 9d 11 00 00 	lea    rcx,[rip+0x119d]        # d0ae <_IO_stdin_used+0x10ae>
    bf11:	48 89 ce             	mov    rsi,rcx
    bf14:	48 89 c7             	mov    rdi,rax
    bf17:	e8 54 61 ff ff       	call   2070 <strncmp@plt>
    bf1c:	85 c0                	test   eax,eax
    bf1e:	75 21                	jne    bf41 <main+0xf6>
    bf20:	8b 45 ec             	mov    eax,DWORD PTR [rbp-0x14]
    bf23:	48 98                	cdqe
    bf25:	48 8d 14 c5 00 00 00 	lea    rdx,[rax*8+0x0]
    bf2c:	00 
    bf2d:	48 8b 45 c0          	mov    rax,QWORD PTR [rbp-0x40]
    bf31:	48 01 d0             	add    rax,rdx
    bf34:	48 8b 00             	mov    rax,QWORD PTR [rax]
    bf37:	48 83 c0 02          	add    rax,0x2
    bf3b:	48 89 45 f0          	mov    QWORD PTR [rbp-0x10],rax
    bf3f:	eb 39                	jmp    bf7a <main+0x12f>
    bf41:	8b 45 ec             	mov    eax,DWORD PTR [rbp-0x14]
    bf44:	48 98                	cdqe
    bf46:	48 8d 14 c5 00 00 00 	lea    rdx,[rax*8+0x0]
    bf4d:	00 
    bf4e:	48 8b 45 c0          	mov    rax,QWORD PTR [rbp-0x40]
    bf52:	48 01 d0             	add    rax,rdx
    bf55:	48 8b 00             	mov    rax,QWORD PTR [rax]
    bf58:	0f b6 00             	movzx  eax,BYTE PTR [rax]
    bf5b:	3c 2d                	cmp    al,0x2d
    bf5d:	74 1b                	je     bf7a <main+0x12f>
    bf5f:	8b 45 ec             	mov    eax,DWORD PTR [rbp-0x14]
    bf62:	48 98                	cdqe
    bf64:	48 8d 14 c5 00 00 00 	lea    rdx,[rax*8+0x0]
    bf6b:	00 
    bf6c:	48 8b 45 c0          	mov    rax,QWORD PTR [rbp-0x40]
    bf70:	48 01 d0             	add    rax,rdx
    bf73:	48 8b 00             	mov    rax,QWORD PTR [rax]
    bf76:	48 89 45 f8          	mov    QWORD PTR [rbp-0x8],rax
    bf7a:	83 45 ec 01          	add    DWORD PTR [rbp-0x14],0x1
    bf7e:	8b 45 ec             	mov    eax,DWORD PTR [rbp-0x14]
    bf81:	3b 45 cc             	cmp    eax,DWORD PTR [rbp-0x34]
    bf84:	0f 8c 0e ff ff ff    	jl     be98 <main+0x4d>
    bf8a:	48 83 7d f8 00       	cmp    QWORD PTR [rbp-0x8],0x0
    bf8f:	75 16                	jne    bfa7 <main+0x15c>
    bf91:	48 8d 05 20 11 00 00 	lea    rax,[rip+0x1120]        # d0b8 <_IO_stdin_used+0x10b8>
    bf98:	48 89 c7             	mov    rdi,rax
    bf9b:	e8 e0 60 ff ff       	call   2080 <puts@plt>
    bfa0:	b8 01 00 00 00       	mov    eax,0x1
    bfa5:	eb 26                	jmp    bfcd <main+0x182>
    bfa7:	48 8b 45 f8          	mov    rax,QWORD PTR [rbp-0x8]
    bfab:	48 89 45 d0          	mov    QWORD PTR [rbp-0x30],rax
    bfaf:	48 8b 45 f0          	mov    rax,QWORD PTR [rbp-0x10]
    bfb3:	48 89 45 d8          	mov    QWORD PTR [rbp-0x28],rax
    bfb7:	48 8d 45 d0          	lea    rax,[rbp-0x30]
    bfbb:	48 89 c6             	mov    rsi,rax
    bfbe:	bf 02 00 00 00       	mov    edi,0x2
    bfc3:	e8 87 fd ff ff       	call   bd4f <handl_pipeline>
    bfc8:	b8 00 00 00 00       	mov    eax,0x0
    bfcd:	c9                   	leave
    bfce:	c3                   	ret

Disassembly of section .fini:

000000000000bfd0 <_fini>:
_fini():
    bfd0:	48 83 ec 08          	sub    rsp,0x8
    bfd4:	48 83 c4 08          	add    rsp,0x8
    bfd8:	c3                   	ret
