
AmmOS:     формат файла elf64-x86-64


Дизассемблирование раздела .init:

0000000000402000 <_init>:
  402000:	48 83 ec 08          	sub    rsp,0x8
  402004:	48 8b 05 d5 bf 00 00 	mov    rax,QWORD PTR [rip+0xbfd5]        # 40dfe0 <__gmon_start__@Base>
  40200b:	48 85 c0             	test   rax,rax
  40200e:	74 02                	je     402012 <_init+0x12>
  402010:	ff d0                	call   rax
  402012:	48 83 c4 08          	add    rsp,0x8
  402016:	c3                   	ret

Дизассемблирование раздела .plt:

0000000000402020 <putchar@plt-0x10>:
  402020:	ff 35 ca bf 00 00    	push   QWORD PTR [rip+0xbfca]        # 40dff0 <_GLOBAL_OFFSET_TABLE_+0x8>
  402026:	ff 25 cc bf 00 00    	jmp    QWORD PTR [rip+0xbfcc]        # 40dff8 <_GLOBAL_OFFSET_TABLE_+0x10>
  40202c:	0f 1f 40 00          	nop    DWORD PTR [rax+0x0]

0000000000402030 <putchar@plt>:
  402030:	ff 25 ca bf 00 00    	jmp    QWORD PTR [rip+0xbfca]        # 40e000 <putchar@GLIBC_2.2.5>
  402036:	68 00 00 00 00       	push   0x0
  40203b:	e9 e0 ff ff ff       	jmp    402020 <_init+0x20>

0000000000402040 <strncpy@plt>:
  402040:	ff 25 c2 bf 00 00    	jmp    QWORD PTR [rip+0xbfc2]        # 40e008 <strncpy@GLIBC_2.2.5>
  402046:	68 01 00 00 00       	push   0x1
  40204b:	e9 d0 ff ff ff       	jmp    402020 <_init+0x20>

0000000000402050 <remove@plt>:
  402050:	ff 25 ba bf 00 00    	jmp    QWORD PTR [rip+0xbfba]        # 40e010 <remove@GLIBC_2.2.5>
  402056:	68 02 00 00 00       	push   0x2
  40205b:	e9 c0 ff ff ff       	jmp    402020 <_init+0x20>

0000000000402060 <strncmp@plt>:
  402060:	ff 25 b2 bf 00 00    	jmp    QWORD PTR [rip+0xbfb2]        # 40e018 <strncmp@GLIBC_2.2.5>
  402066:	68 03 00 00 00       	push   0x3
  40206b:	e9 b0 ff ff ff       	jmp    402020 <_init+0x20>

0000000000402070 <_exit@plt>:
  402070:	ff 25 aa bf 00 00    	jmp    QWORD PTR [rip+0xbfaa]        # 40e020 <_exit@GLIBC_2.2.5>
  402076:	68 04 00 00 00       	push   0x4
  40207b:	e9 a0 ff ff ff       	jmp    402020 <_init+0x20>

0000000000402080 <strcpy@plt>:
  402080:	ff 25 a2 bf 00 00    	jmp    QWORD PTR [rip+0xbfa2]        # 40e028 <strcpy@GLIBC_2.2.5>
  402086:	68 05 00 00 00       	push   0x5
  40208b:	e9 90 ff ff ff       	jmp    402020 <_init+0x20>

0000000000402090 <mkdir@plt>:
  402090:	ff 25 9a bf 00 00    	jmp    QWORD PTR [rip+0xbf9a]        # 40e030 <mkdir@GLIBC_2.2.5>
  402096:	68 06 00 00 00       	push   0x6
  40209b:	e9 80 ff ff ff       	jmp    402020 <_init+0x20>

00000000004020a0 <puts@plt>:
  4020a0:	ff 25 92 bf 00 00    	jmp    QWORD PTR [rip+0xbf92]        # 40e038 <puts@GLIBC_2.2.5>
  4020a6:	68 07 00 00 00       	push   0x7
  4020ab:	e9 70 ff ff ff       	jmp    402020 <_init+0x20>

00000000004020b0 <fread@plt>:
  4020b0:	ff 25 8a bf 00 00    	jmp    QWORD PTR [rip+0xbf8a]        # 40e040 <fread@GLIBC_2.2.5>
  4020b6:	68 08 00 00 00       	push   0x8
  4020bb:	e9 60 ff ff ff       	jmp    402020 <_init+0x20>

00000000004020c0 <write@plt>:
  4020c0:	ff 25 82 bf 00 00    	jmp    QWORD PTR [rip+0xbf82]        # 40e048 <write@GLIBC_2.2.5>
  4020c6:	68 09 00 00 00       	push   0x9
  4020cb:	e9 50 ff ff ff       	jmp    402020 <_init+0x20>

00000000004020d0 <getpid@plt>:
  4020d0:	ff 25 7a bf 00 00    	jmp    QWORD PTR [rip+0xbf7a]        # 40e050 <getpid@GLIBC_2.2.5>
  4020d6:	68 0a 00 00 00       	push   0xa
  4020db:	e9 40 ff ff ff       	jmp    402020 <_init+0x20>

00000000004020e0 <fclose@plt>:
  4020e0:	ff 25 72 bf 00 00    	jmp    QWORD PTR [rip+0xbf72]        # 40e058 <fclose@GLIBC_2.2.5>
  4020e6:	68 0b 00 00 00       	push   0xb
  4020eb:	e9 30 ff ff ff       	jmp    402020 <_init+0x20>

00000000004020f0 <opendir@plt>:
  4020f0:	ff 25 6a bf 00 00    	jmp    QWORD PTR [rip+0xbf6a]        # 40e060 <opendir@GLIBC_2.2.5>
  4020f6:	68 0c 00 00 00       	push   0xc
  4020fb:	e9 20 ff ff ff       	jmp    402020 <_init+0x20>

0000000000402100 <rmdir@plt>:
  402100:	ff 25 62 bf 00 00    	jmp    QWORD PTR [rip+0xbf62]        # 40e068 <rmdir@GLIBC_2.2.5>
  402106:	68 0d 00 00 00       	push   0xd
  40210b:	e9 10 ff ff ff       	jmp    402020 <_init+0x20>

0000000000402110 <strlen@plt>:
  402110:	ff 25 5a bf 00 00    	jmp    QWORD PTR [rip+0xbf5a]        # 40e070 <strlen@GLIBC_2.2.5>
  402116:	68 0e 00 00 00       	push   0xe
  40211b:	e9 00 ff ff ff       	jmp    402020 <_init+0x20>

0000000000402120 <chdir@plt>:
  402120:	ff 25 52 bf 00 00    	jmp    QWORD PTR [rip+0xbf52]        # 40e078 <chdir@GLIBC_2.2.5>
  402126:	68 0f 00 00 00       	push   0xf
  40212b:	e9 f0 fe ff ff       	jmp    402020 <_init+0x20>

0000000000402130 <mmap@plt>:
  402130:	ff 25 4a bf 00 00    	jmp    QWORD PTR [rip+0xbf4a]        # 40e080 <mmap@GLIBC_2.2.5>
  402136:	68 10 00 00 00       	push   0x10
  40213b:	e9 e0 fe ff ff       	jmp    402020 <_init+0x20>

0000000000402140 <strchr@plt>:
  402140:	ff 25 42 bf 00 00    	jmp    QWORD PTR [rip+0xbf42]        # 40e088 <strchr@GLIBC_2.2.5>
  402146:	68 11 00 00 00       	push   0x11
  40214b:	e9 d0 fe ff ff       	jmp    402020 <_init+0x20>

0000000000402150 <printf@plt>:
  402150:	ff 25 3a bf 00 00    	jmp    QWORD PTR [rip+0xbf3a]        # 40e090 <printf@GLIBC_2.2.5>
  402156:	68 12 00 00 00       	push   0x12
  40215b:	e9 c0 fe ff ff       	jmp    402020 <_init+0x20>

0000000000402160 <snprintf@plt>:
  402160:	ff 25 32 bf 00 00    	jmp    QWORD PTR [rip+0xbf32]        # 40e098 <snprintf@GLIBC_2.2.5>
  402166:	68 13 00 00 00       	push   0x13
  40216b:	e9 b0 fe ff ff       	jmp    402020 <_init+0x20>

0000000000402170 <fputs@plt>:
  402170:	ff 25 2a bf 00 00    	jmp    QWORD PTR [rip+0xbf2a]        # 40e0a0 <fputs@GLIBC_2.2.5>
  402176:	68 14 00 00 00       	push   0x14
  40217b:	e9 a0 fe ff ff       	jmp    402020 <_init+0x20>

0000000000402180 <memset@plt>:
  402180:	ff 25 22 bf 00 00    	jmp    QWORD PTR [rip+0xbf22]        # 40e0a8 <memset@GLIBC_2.2.5>
  402186:	68 15 00 00 00       	push   0x15
  40218b:	e9 90 fe ff ff       	jmp    402020 <_init+0x20>

0000000000402190 <getcwd@plt>:
  402190:	ff 25 1a bf 00 00    	jmp    QWORD PTR [rip+0xbf1a]        # 40e0b0 <getcwd@GLIBC_2.2.5>
  402196:	68 16 00 00 00       	push   0x16
  40219b:	e9 80 fe ff ff       	jmp    402020 <_init+0x20>

00000000004021a0 <fgetc@plt>:
  4021a0:	ff 25 12 bf 00 00    	jmp    QWORD PTR [rip+0xbf12]        # 40e0b8 <fgetc@GLIBC_2.2.5>
  4021a6:	68 17 00 00 00       	push   0x17
  4021ab:	e9 70 fe ff ff       	jmp    402020 <_init+0x20>

00000000004021b0 <closedir@plt>:
  4021b0:	ff 25 0a bf 00 00    	jmp    QWORD PTR [rip+0xbf0a]        # 40e0c0 <closedir@GLIBC_2.2.5>
  4021b6:	68 18 00 00 00       	push   0x18
  4021bb:	e9 60 fe ff ff       	jmp    402020 <_init+0x20>

00000000004021c0 <fputc@plt>:
  4021c0:	ff 25 02 bf 00 00    	jmp    QWORD PTR [rip+0xbf02]        # 40e0c8 <fputc@GLIBC_2.2.5>
  4021c6:	68 19 00 00 00       	push   0x19
  4021cb:	e9 50 fe ff ff       	jmp    402020 <_init+0x20>

00000000004021d0 <strcspn@plt>:
  4021d0:	ff 25 fa be 00 00    	jmp    QWORD PTR [rip+0xbefa]        # 40e0d0 <strcspn@GLIBC_2.2.5>
  4021d6:	68 1a 00 00 00       	push   0x1a
  4021db:	e9 40 fe ff ff       	jmp    402020 <_init+0x20>

00000000004021e0 <srand@plt>:
  4021e0:	ff 25 f2 be 00 00    	jmp    QWORD PTR [rip+0xbef2]        # 40e0d8 <srand@GLIBC_2.2.5>
  4021e6:	68 1b 00 00 00       	push   0x1b
  4021eb:	e9 30 fe ff ff       	jmp    402020 <_init+0x20>

00000000004021f0 <fgets@plt>:
  4021f0:	ff 25 ea be 00 00    	jmp    QWORD PTR [rip+0xbeea]        # 40e0e0 <fgets@GLIBC_2.2.5>
  4021f6:	68 1c 00 00 00       	push   0x1c
  4021fb:	e9 20 fe ff ff       	jmp    402020 <_init+0x20>

0000000000402200 <execve@plt>:
  402200:	ff 25 e2 be 00 00    	jmp    QWORD PTR [rip+0xbee2]        # 40e0e8 <execve@GLIBC_2.2.5>
  402206:	68 1d 00 00 00       	push   0x1d
  40220b:	e9 10 fe ff ff       	jmp    402020 <_init+0x20>

0000000000402210 <atoll@plt>:
  402210:	ff 25 da be 00 00    	jmp    QWORD PTR [rip+0xbeda]        # 40e0f0 <atoll@GLIBC_2.2.5>
  402216:	68 1e 00 00 00       	push   0x1e
  40221b:	e9 00 fe ff ff       	jmp    402020 <_init+0x20>

0000000000402220 <strcmp@plt>:
  402220:	ff 25 d2 be 00 00    	jmp    QWORD PTR [rip+0xbed2]        # 40e0f8 <strcmp@GLIBC_2.2.5>
  402226:	68 1f 00 00 00       	push   0x1f
  40222b:	e9 f0 fd ff ff       	jmp    402020 <_init+0x20>

0000000000402230 <putc@plt>:
  402230:	ff 25 ca be 00 00    	jmp    QWORD PTR [rip+0xbeca]        # 40e100 <putc@GLIBC_2.2.5>
  402236:	68 20 00 00 00       	push   0x20
  40223b:	e9 e0 fd ff ff       	jmp    402020 <_init+0x20>

0000000000402240 <getchar@plt>:
  402240:	ff 25 c2 be 00 00    	jmp    QWORD PTR [rip+0xbec2]        # 40e108 <getchar@GLIBC_2.2.5>
  402246:	68 21 00 00 00       	push   0x21
  40224b:	e9 d0 fd ff ff       	jmp    402020 <_init+0x20>

0000000000402250 <signal@plt>:
  402250:	ff 25 ba be 00 00    	jmp    QWORD PTR [rip+0xbeba]        # 40e110 <signal@GLIBC_2.2.5>
  402256:	68 22 00 00 00       	push   0x22
  40225b:	e9 c0 fd ff ff       	jmp    402020 <_init+0x20>

0000000000402260 <fprintf@plt>:
  402260:	ff 25 b2 be 00 00    	jmp    QWORD PTR [rip+0xbeb2]        # 40e118 <fprintf@GLIBC_2.2.5>
  402266:	68 23 00 00 00       	push   0x23
  40226b:	e9 b0 fd ff ff       	jmp    402020 <_init+0x20>

0000000000402270 <ftell@plt>:
  402270:	ff 25 aa be 00 00    	jmp    QWORD PTR [rip+0xbeaa]        # 40e120 <ftell@GLIBC_2.2.5>
  402276:	68 24 00 00 00       	push   0x24
  40227b:	e9 a0 fd ff ff       	jmp    402020 <_init+0x20>

0000000000402280 <stat@plt>:
  402280:	ff 25 a2 be 00 00    	jmp    QWORD PTR [rip+0xbea2]        # 40e128 <stat@GLIBC_2.33>
  402286:	68 25 00 00 00       	push   0x25
  40228b:	e9 90 fd ff ff       	jmp    402020 <_init+0x20>

0000000000402290 <memcpy@plt>:
  402290:	ff 25 9a be 00 00    	jmp    QWORD PTR [rip+0xbe9a]        # 40e130 <memcpy@GLIBC_2.14>
  402296:	68 26 00 00 00       	push   0x26
  40229b:	e9 80 fd ff ff       	jmp    402020 <_init+0x20>

00000000004022a0 <kill@plt>:
  4022a0:	ff 25 92 be 00 00    	jmp    QWORD PTR [rip+0xbe92]        # 40e138 <kill@GLIBC_2.2.5>
  4022a6:	68 27 00 00 00       	push   0x27
  4022ab:	e9 70 fd ff ff       	jmp    402020 <_init+0x20>

00000000004022b0 <truncate@plt>:
  4022b0:	ff 25 8a be 00 00    	jmp    QWORD PTR [rip+0xbe8a]        # 40e140 <truncate@GLIBC_2.2.5>
  4022b6:	68 28 00 00 00       	push   0x28
  4022bb:	e9 60 fd ff ff       	jmp    402020 <_init+0x20>

00000000004022c0 <time@plt>:
  4022c0:	ff 25 82 be 00 00    	jmp    QWORD PTR [rip+0xbe82]        # 40e148 <time@GLIBC_2.2.5>
  4022c6:	68 29 00 00 00       	push   0x29
  4022cb:	e9 50 fd ff ff       	jmp    402020 <_init+0x20>

00000000004022d0 <readdir@plt>:
  4022d0:	ff 25 7a be 00 00    	jmp    QWORD PTR [rip+0xbe7a]        # 40e150 <readdir@GLIBC_2.2.5>
  4022d6:	68 2a 00 00 00       	push   0x2a
  4022db:	e9 40 fd ff ff       	jmp    402020 <_init+0x20>

00000000004022e0 <fflush@plt>:
  4022e0:	ff 25 72 be 00 00    	jmp    QWORD PTR [rip+0xbe72]        # 40e158 <fflush@GLIBC_2.2.5>
  4022e6:	68 2b 00 00 00       	push   0x2b
  4022eb:	e9 30 fd ff ff       	jmp    402020 <_init+0x20>

00000000004022f0 <__isoc99_sscanf@plt>:
  4022f0:	ff 25 6a be 00 00    	jmp    QWORD PTR [rip+0xbe6a]        # 40e160 <__isoc99_sscanf@GLIBC_2.7>
  4022f6:	68 2c 00 00 00       	push   0x2c
  4022fb:	e9 20 fd ff ff       	jmp    402020 <_init+0x20>

0000000000402300 <fseek@plt>:
  402300:	ff 25 62 be 00 00    	jmp    QWORD PTR [rip+0xbe62]        # 40e168 <fseek@GLIBC_2.2.5>
  402306:	68 2d 00 00 00       	push   0x2d
  40230b:	e9 10 fd ff ff       	jmp    402020 <_init+0x20>

0000000000402310 <pthread_create@plt>:
  402310:	ff 25 5a be 00 00    	jmp    QWORD PTR [rip+0xbe5a]        # 40e170 <pthread_create@GLIBC_2.34>
  402316:	68 2e 00 00 00       	push   0x2e
  40231b:	e9 00 fd ff ff       	jmp    402020 <_init+0x20>

0000000000402320 <memmove@plt>:
  402320:	ff 25 52 be 00 00    	jmp    QWORD PTR [rip+0xbe52]        # 40e178 <memmove@GLIBC_2.2.5>
  402326:	68 2f 00 00 00       	push   0x2f
  40232b:	e9 f0 fc ff ff       	jmp    402020 <_init+0x20>

0000000000402330 <fopen@plt>:
  402330:	ff 25 4a be 00 00    	jmp    QWORD PTR [rip+0xbe4a]        # 40e180 <fopen@GLIBC_2.2.5>
  402336:	68 30 00 00 00       	push   0x30
  40233b:	e9 e0 fc ff ff       	jmp    402020 <_init+0x20>

0000000000402340 <perror@plt>:
  402340:	ff 25 42 be 00 00    	jmp    QWORD PTR [rip+0xbe42]        # 40e188 <perror@GLIBC_2.2.5>
  402346:	68 31 00 00 00       	push   0x31
  40234b:	e9 d0 fc ff ff       	jmp    402020 <_init+0x20>

0000000000402350 <strtok@plt>:
  402350:	ff 25 3a be 00 00    	jmp    QWORD PTR [rip+0xbe3a]        # 40e190 <strtok@GLIBC_2.2.5>
  402356:	68 32 00 00 00       	push   0x32
  40235b:	e9 c0 fc ff ff       	jmp    402020 <_init+0x20>

0000000000402360 <__isoc99_scanf@plt>:
  402360:	ff 25 32 be 00 00    	jmp    QWORD PTR [rip+0xbe32]        # 40e198 <__isoc99_scanf@GLIBC_2.7>
  402366:	68 33 00 00 00       	push   0x33
  40236b:	e9 b0 fc ff ff       	jmp    402020 <_init+0x20>

0000000000402370 <atoi@plt>:
  402370:	ff 25 2a be 00 00    	jmp    QWORD PTR [rip+0xbe2a]        # 40e1a0 <atoi@GLIBC_2.2.5>
  402376:	68 34 00 00 00       	push   0x34
  40237b:	e9 a0 fc ff ff       	jmp    402020 <_init+0x20>

0000000000402380 <sprintf@plt>:
  402380:	ff 25 22 be 00 00    	jmp    QWORD PTR [rip+0xbe22]        # 40e1a8 <sprintf@GLIBC_2.2.5>
  402386:	68 35 00 00 00       	push   0x35
  40238b:	e9 90 fc ff ff       	jmp    402020 <_init+0x20>

0000000000402390 <exit@plt>:
  402390:	ff 25 1a be 00 00    	jmp    QWORD PTR [rip+0xbe1a]        # 40e1b0 <exit@GLIBC_2.2.5>
  402396:	68 36 00 00 00       	push   0x36
  40239b:	e9 80 fc ff ff       	jmp    402020 <_init+0x20>

00000000004023a0 <fwrite@plt>:
  4023a0:	ff 25 12 be 00 00    	jmp    QWORD PTR [rip+0xbe12]        # 40e1b8 <fwrite@GLIBC_2.2.5>
  4023a6:	68 37 00 00 00       	push   0x37
  4023ab:	e9 70 fc ff ff       	jmp    402020 <_init+0x20>

00000000004023b0 <sleep@plt>:
  4023b0:	ff 25 0a be 00 00    	jmp    QWORD PTR [rip+0xbe0a]        # 40e1c0 <sleep@GLIBC_2.2.5>
  4023b6:	68 38 00 00 00       	push   0x38
  4023bb:	e9 60 fc ff ff       	jmp    402020 <_init+0x20>

00000000004023c0 <fork@plt>:
  4023c0:	ff 25 02 be 00 00    	jmp    QWORD PTR [rip+0xbe02]        # 40e1c8 <fork@GLIBC_2.2.5>
  4023c6:	68 39 00 00 00       	push   0x39
  4023cb:	e9 50 fc ff ff       	jmp    402020 <_init+0x20>

00000000004023d0 <strstr@plt>:
  4023d0:	ff 25 fa bd 00 00    	jmp    QWORD PTR [rip+0xbdfa]        # 40e1d0 <strstr@GLIBC_2.2.5>
  4023d6:	68 3a 00 00 00       	push   0x3a
  4023db:	e9 40 fc ff ff       	jmp    402020 <_init+0x20>

00000000004023e0 <rand@plt>:
  4023e0:	ff 25 f2 bd 00 00    	jmp    QWORD PTR [rip+0xbdf2]        # 40e1d8 <rand@GLIBC_2.2.5>
  4023e6:	68 3b 00 00 00       	push   0x3b
  4023eb:	e9 30 fc ff ff       	jmp    402020 <_init+0x20>

00000000004023f0 <__ctype_b_loc@plt>:
  4023f0:	ff 25 ea bd 00 00    	jmp    QWORD PTR [rip+0xbdea]        # 40e1e0 <__ctype_b_loc@GLIBC_2.3>
  4023f6:	68 3c 00 00 00       	push   0x3c
  4023fb:	e9 20 fc ff ff       	jmp    402020 <_init+0x20>

Дизассемблирование раздела .text:

0000000000402400 <_start>:
  402400:	31 ed                	xor    ebp,ebp
  402402:	49 89 d1             	mov    r9,rdx
  402405:	5e                   	pop    rsi
  402406:	48 89 e2             	mov    rdx,rsp
  402409:	48 83 e4 f0          	and    rsp,0xfffffffffffffff0
  40240d:	50                   	push   rax
  40240e:	54                   	push   rsp
  40240f:	45 31 c0             	xor    r8d,r8d
  402412:	31 c9                	xor    ecx,ecx
  402414:	48 c7 c7 2b 4f 40 00 	mov    rdi,0x404f2b
  40241b:	ff 15 b7 bb 00 00    	call   QWORD PTR [rip+0xbbb7]        # 40dfd8 <__libc_start_main@GLIBC_2.34>
  402421:	f4                   	hlt
  402422:	66 2e 0f 1f 84 00 00 	cs nop WORD PTR [rax+rax*1+0x0]
  402429:	00 00 00 
  40242c:	0f 1f 40 00          	nop    DWORD PTR [rax+0x0]

0000000000402430 <_dl_relocate_static_pie>:
  402430:	c3                   	ret
  402431:	66 2e 0f 1f 84 00 00 	cs nop WORD PTR [rax+rax*1+0x0]
  402438:	00 00 00 
  40243b:	0f 1f 44 00 00       	nop    DWORD PTR [rax+rax*1+0x0]

0000000000402440 <deregister_tm_clones>:
  402440:	b8 a0 e3 40 00       	mov    eax,0x40e3a0
  402445:	48 3d a0 e3 40 00    	cmp    rax,0x40e3a0
  40244b:	74 13                	je     402460 <deregister_tm_clones+0x20>
  40244d:	b8 00 00 00 00       	mov    eax,0x0
  402452:	48 85 c0             	test   rax,rax
  402455:	74 09                	je     402460 <deregister_tm_clones+0x20>
  402457:	bf a0 e3 40 00       	mov    edi,0x40e3a0
  40245c:	ff e0                	jmp    rax
  40245e:	66 90                	xchg   ax,ax
  402460:	c3                   	ret
  402461:	66 66 2e 0f 1f 84 00 	data16 cs nop WORD PTR [rax+rax*1+0x0]
  402468:	00 00 00 00 
  40246c:	0f 1f 40 00          	nop    DWORD PTR [rax+0x0]

0000000000402470 <register_tm_clones>:
  402470:	be a0 e3 40 00       	mov    esi,0x40e3a0
  402475:	48 81 ee a0 e3 40 00 	sub    rsi,0x40e3a0
  40247c:	48 89 f0             	mov    rax,rsi
  40247f:	48 c1 ee 3f          	shr    rsi,0x3f
  402483:	48 c1 f8 03          	sar    rax,0x3
  402487:	48 01 c6             	add    rsi,rax
  40248a:	48 d1 fe             	sar    rsi,1
  40248d:	74 11                	je     4024a0 <register_tm_clones+0x30>
  40248f:	b8 00 00 00 00       	mov    eax,0x0
  402494:	48 85 c0             	test   rax,rax
  402497:	74 07                	je     4024a0 <register_tm_clones+0x30>
  402499:	bf a0 e3 40 00       	mov    edi,0x40e3a0
  40249e:	ff e0                	jmp    rax
  4024a0:	c3                   	ret
  4024a1:	66 66 2e 0f 1f 84 00 	data16 cs nop WORD PTR [rax+rax*1+0x0]
  4024a8:	00 00 00 00 
  4024ac:	0f 1f 40 00          	nop    DWORD PTR [rax+0x0]

00000000004024b0 <__do_global_dtors_aux>:
  4024b0:	f3 0f 1e fa          	endbr64
  4024b4:	80 3d 0d bf 00 00 00 	cmp    BYTE PTR [rip+0xbf0d],0x0        # 40e3c8 <completed.0>
  4024bb:	75 13                	jne    4024d0 <__do_global_dtors_aux+0x20>
  4024bd:	55                   	push   rbp
  4024be:	48 89 e5             	mov    rbp,rsp
  4024c1:	e8 7a ff ff ff       	call   402440 <deregister_tm_clones>
  4024c6:	c6 05 fb be 00 00 01 	mov    BYTE PTR [rip+0xbefb],0x1        # 40e3c8 <completed.0>
  4024cd:	5d                   	pop    rbp
  4024ce:	c3                   	ret
  4024cf:	90                   	nop
  4024d0:	c3                   	ret
  4024d1:	66 66 2e 0f 1f 84 00 	data16 cs nop WORD PTR [rax+rax*1+0x0]
  4024d8:	00 00 00 00 
  4024dc:	0f 1f 40 00          	nop    DWORD PTR [rax+0x0]

00000000004024e0 <frame_dummy>:
  4024e0:	f3 0f 1e fa          	endbr64
  4024e4:	eb 8a                	jmp    402470 <register_tm_clones>

00000000004024e6 <amm_init>:
  4024e6:	55                   	push   rbp
  4024e7:	48 89 e5             	mov    rbp,rsp
  4024ea:	41 b9 00 00 00 00    	mov    r9d,0x0
  4024f0:	41 b8 ff ff ff ff    	mov    r8d,0xffffffff
  4024f6:	b9 22 00 00 00       	mov    ecx,0x22
  4024fb:	ba 03 00 00 00       	mov    edx,0x3
  402500:	be 00 00 10 00       	mov    esi,0x100000
  402505:	bf 00 00 00 00       	mov    edi,0x0
  40250a:	e8 21 fc ff ff       	call   402130 <mmap@plt>
  40250f:	48 89 05 6a d8 04 00 	mov    QWORD PTR [rip+0x4d86a],rax        # 44fd80 <MEMORY>
  402516:	48 8b 05 63 d8 04 00 	mov    rax,QWORD PTR [rip+0x4d863]        # 44fd80 <MEMORY>
  40251d:	48 83 f8 ff          	cmp    rax,0xffffffffffffffff
  402521:	75 19                	jne    40253c <amm_init+0x56>
  402523:	48 8d 05 de 7a 00 00 	lea    rax,[rip+0x7ade]        # 40a008 <_IO_stdin_used+0x8>
  40252a:	48 89 c7             	mov    rdi,rax
  40252d:	e8 0e fe ff ff       	call   402340 <perror@plt>
  402532:	bf 01 00 00 00       	mov    edi,0x1
  402537:	e8 54 fe ff ff       	call   402390 <exit@plt>
  40253c:	48 8b 05 3d d8 04 00 	mov    rax,QWORD PTR [rip+0x4d83d]        # 44fd80 <MEMORY>
  402543:	ba 00 00 10 00       	mov    edx,0x100000
  402548:	be 00 00 00 00       	mov    esi,0x0
  40254d:	48 89 c7             	mov    rdi,rax
  402550:	e8 2b fc ff ff       	call   402180 <memset@plt>
  402555:	ba 00 00 04 00       	mov    edx,0x40000
  40255a:	be 00 00 00 00       	mov    esi,0x0
  40255f:	48 8d 05 1a d8 00 00 	lea    rax,[rip+0xd81a]        # 40fd80 <bit_map>
  402566:	48 89 c7             	mov    rdi,rax
  402569:	e8 12 fc ff ff       	call   402180 <memset@plt>
  40256e:	90                   	nop
  40256f:	5d                   	pop    rbp
  402570:	c3                   	ret

0000000000402571 <amm_malloc>:
  402571:	55                   	push   rbp
  402572:	48 89 e5             	mov    rbp,rsp
  402575:	53                   	push   rbx
  402576:	89 7d e4             	mov    DWORD PTR [rbp-0x1c],edi
  402579:	83 7d e4 00          	cmp    DWORD PTR [rbp-0x1c],0x0
  40257d:	7f 0a                	jg     402589 <amm_malloc+0x18>
  40257f:	b8 00 00 00 00       	mov    eax,0x0
  402584:	e9 cd 00 00 00       	jmp    402656 <amm_malloc+0xe5>
  402589:	8b 45 e4             	mov    eax,DWORD PTR [rbp-0x1c]
  40258c:	48 98                	cdqe
  40258e:	48 83 c0 07          	add    rax,0x7
  402592:	48 c1 e8 02          	shr    rax,0x2
  402596:	bb d0 05 00 00       	mov    ebx,0x5d0
  40259b:	b9 00 00 00 00       	mov    ecx,0x0
  4025a0:	e9 9e 00 00 00       	jmp    402643 <amm_malloc+0xd2>
  4025a5:	89 ca                	mov    edx,ecx
  4025a7:	48 63 d2             	movsxd rdx,edx
  4025aa:	48 8d 35 cf d7 00 00 	lea    rsi,[rip+0xd7cf]        # 40fd80 <bit_map>
  4025b1:	0f b6 14 32          	movzx  edx,BYTE PTR [rdx+rsi*1]
  4025b5:	84 d2                	test   dl,dl
  4025b7:	75 7e                	jne    402637 <amm_malloc+0xc6>
  4025b9:	48 89 da             	mov    rdx,rbx
  4025bc:	48 83 c2 01          	add    rdx,0x1
  4025c0:	48 89 d3             	mov    rbx,rdx
  4025c3:	48 89 da             	mov    rdx,rbx
  4025c6:	48 39 c2             	cmp    rdx,rax
  4025c9:	75 71                	jne    40263c <amm_malloc+0xcb>
  4025cb:	89 ca                	mov    edx,ecx
  4025cd:	89 d6                	mov    esi,edx
  4025cf:	89 c2                	mov    edx,eax
  4025d1:	89 f0                	mov    eax,esi
  4025d3:	29 d0                	sub    eax,edx
  4025d5:	83 c0 01             	add    eax,0x1
  4025d8:	89 45 f4             	mov    DWORD PTR [rbp-0xc],eax
  4025db:	8b 55 f4             	mov    edx,DWORD PTR [rbp-0xc]
  4025de:	eb 16                	jmp    4025f6 <amm_malloc+0x85>
  4025e0:	89 d0                	mov    eax,edx
  4025e2:	48 98                	cdqe
  4025e4:	48 8d 35 95 d7 00 00 	lea    rsi,[rip+0xd795]        # 40fd80 <bit_map>
  4025eb:	c6 04 30 01          	mov    BYTE PTR [rax+rsi*1],0x1
  4025ef:	89 d0                	mov    eax,edx
  4025f1:	83 c0 01             	add    eax,0x1
  4025f4:	89 c2                	mov    edx,eax
  4025f6:	89 c8                	mov    eax,ecx
  4025f8:	39 c2                	cmp    edx,eax
  4025fa:	7e e4                	jle    4025e0 <amm_malloc+0x6f>
  4025fc:	48 8b 05 e5 bd 00 00 	mov    rax,QWORD PTR [rip+0xbde5]        # 40e3e8 <amm_malloc_count>
  402603:	48 83 c0 01          	add    rax,0x1
  402607:	48 89 05 da bd 00 00 	mov    QWORD PTR [rip+0xbdda],rax        # 40e3e8 <amm_malloc_count>
  40260e:	48 8b 15 6b d7 04 00 	mov    rdx,QWORD PTR [rip+0x4d76b]        # 44fd80 <MEMORY>
  402615:	8b 45 f4             	mov    eax,DWORD PTR [rbp-0xc]
  402618:	c1 e0 02             	shl    eax,0x2
  40261b:	48 98                	cdqe
  40261d:	48 01 d0             	add    rax,rdx
  402620:	48 89 45 e8          	mov    QWORD PTR [rbp-0x18],rax
  402624:	48 8b 45 e8          	mov    rax,QWORD PTR [rbp-0x18]
  402628:	8b 55 e4             	mov    edx,DWORD PTR [rbp-0x1c]
  40262b:	89 10                	mov    DWORD PTR [rax],edx
  40262d:	48 8b 45 e8          	mov    rax,QWORD PTR [rbp-0x18]
  402631:	48 83 c0 04          	add    rax,0x4
  402635:	eb 1f                	jmp    402656 <amm_malloc+0xe5>
  402637:	bb 00 00 00 00       	mov    ebx,0x0
  40263c:	89 ca                	mov    edx,ecx
  40263e:	83 c2 01             	add    edx,0x1
  402641:	89 d1                	mov    ecx,edx
  402643:	89 ca                	mov    edx,ecx
  402645:	81 fa ff ff 03 00    	cmp    edx,0x3ffff
  40264b:	0f 8e 54 ff ff ff    	jle    4025a5 <amm_malloc+0x34>
  402651:	b8 00 00 00 00       	mov    eax,0x0
  402656:	48 8b 5d f8          	mov    rbx,QWORD PTR [rbp-0x8]
  40265a:	c9                   	leave
  40265b:	c3                   	ret

000000000040265c <amm_free>:
  40265c:	55                   	push   rbp
  40265d:	48 89 e5             	mov    rbp,rsp
  402660:	48 89 7d d8          	mov    QWORD PTR [rbp-0x28],rdi
  402664:	48 83 7d d8 00       	cmp    QWORD PTR [rbp-0x28],0x0
  402669:	0f 84 8e 00 00 00    	je     4026fd <amm_free+0xa1>
  40266f:	48 8b 45 d8          	mov    rax,QWORD PTR [rbp-0x28]
  402673:	48 83 e8 04          	sub    rax,0x4
  402677:	48 89 45 f0          	mov    QWORD PTR [rbp-0x10],rax
  40267b:	48 8b 45 f0          	mov    rax,QWORD PTR [rbp-0x10]
  40267f:	8b 00                	mov    eax,DWORD PTR [rax]
  402681:	89 45 ec             	mov    DWORD PTR [rbp-0x14],eax
  402684:	48 8b 05 f5 d6 04 00 	mov    rax,QWORD PTR [rip+0x4d6f5]        # 44fd80 <MEMORY>
  40268b:	48 8b 55 f0          	mov    rdx,QWORD PTR [rbp-0x10]
  40268f:	48 29 c2             	sub    rdx,rax
  402692:	48 89 d0             	mov    rax,rdx
  402695:	48 8d 50 03          	lea    rdx,[rax+0x3]
  402699:	48 85 c0             	test   rax,rax
  40269c:	48 0f 48 c2          	cmovs  rax,rdx
  4026a0:	48 c1 f8 02          	sar    rax,0x2
  4026a4:	89 45 e8             	mov    DWORD PTR [rbp-0x18],eax
  4026a7:	8b 45 ec             	mov    eax,DWORD PTR [rbp-0x14]
  4026aa:	48 98                	cdqe
  4026ac:	48 83 c0 07          	add    rax,0x7
  4026b0:	48 c1 e8 02          	shr    rax,0x2
  4026b4:	89 45 e4             	mov    DWORD PTR [rbp-0x1c],eax
  4026b7:	8b 45 e8             	mov    eax,DWORD PTR [rbp-0x18]
  4026ba:	89 45 fc             	mov    DWORD PTR [rbp-0x4],eax
  4026bd:	eb 14                	jmp    4026d3 <amm_free+0x77>
  4026bf:	8b 45 fc             	mov    eax,DWORD PTR [rbp-0x4]
  4026c2:	48 98                	cdqe
  4026c4:	48 8d 15 b5 d6 00 00 	lea    rdx,[rip+0xd6b5]        # 40fd80 <bit_map>
  4026cb:	c6 04 10 00          	mov    BYTE PTR [rax+rdx*1],0x0
  4026cf:	83 45 fc 01          	add    DWORD PTR [rbp-0x4],0x1
  4026d3:	8b 55 e8             	mov    edx,DWORD PTR [rbp-0x18]
  4026d6:	8b 45 e4             	mov    eax,DWORD PTR [rbp-0x1c]
  4026d9:	01 d0                	add    eax,edx
  4026db:	39 45 fc             	cmp    DWORD PTR [rbp-0x4],eax
  4026de:	7d 09                	jge    4026e9 <amm_free+0x8d>
  4026e0:	81 7d fc ff ff 03 00 	cmp    DWORD PTR [rbp-0x4],0x3ffff
  4026e7:	7e d6                	jle    4026bf <amm_free+0x63>
  4026e9:	48 8b 05 f0 bc 00 00 	mov    rax,QWORD PTR [rip+0xbcf0]        # 40e3e0 <amm_free_count>
  4026f0:	48 83 c0 01          	add    rax,0x1
  4026f4:	48 89 05 e5 bc 00 00 	mov    QWORD PTR [rip+0xbce5],rax        # 40e3e0 <amm_free_count>
  4026fb:	eb 01                	jmp    4026fe <amm_free+0xa2>
  4026fd:	90                   	nop
  4026fe:	5d                   	pop    rbp
  4026ff:	c3                   	ret

0000000000402700 <append>:
  402700:	55                   	push   rbp
  402701:	48 89 e5             	mov    rbp,rsp
  402704:	48 83 ec 30          	sub    rsp,0x30
  402708:	48 89 7d e8          	mov    QWORD PTR [rbp-0x18],rdi
  40270c:	48 89 75 e0          	mov    QWORD PTR [rbp-0x20],rsi
  402710:	48 89 55 d8          	mov    QWORD PTR [rbp-0x28],rdx
  402714:	89 c8                	mov    eax,ecx
  402716:	88 45 d4             	mov    BYTE PTR [rbp-0x2c],al
  402719:	48 8b 45 e0          	mov    rax,QWORD PTR [rbp-0x20]
  40271d:	8b 00                	mov    eax,DWORD PTR [rax]
  40271f:	85 c0                	test   eax,eax
  402721:	7f 0a                	jg     40272d <append+0x2d>
  402723:	48 8b 45 e0          	mov    rax,QWORD PTR [rbp-0x20]
  402727:	c7 00 04 00 00 00    	mov    DWORD PTR [rax],0x4
  40272d:	48 83 7d d8 00       	cmp    QWORD PTR [rbp-0x28],0x0
  402732:	75 11                	jne    402745 <append+0x45>
  402734:	48 8b 45 e0          	mov    rax,QWORD PTR [rbp-0x20]
  402738:	8b 00                	mov    eax,DWORD PTR [rax]
  40273a:	89 c7                	mov    edi,eax
  40273c:	e8 30 fe ff ff       	call   402571 <amm_malloc>
  402741:	48 89 45 d8          	mov    QWORD PTR [rbp-0x28],rax
  402745:	48 8b 45 e8          	mov    rax,QWORD PTR [rbp-0x18]
  402749:	8b 10                	mov    edx,DWORD PTR [rax]
  40274b:	48 8b 45 e0          	mov    rax,QWORD PTR [rbp-0x20]
  40274f:	8b 00                	mov    eax,DWORD PTR [rax]
  402751:	39 c2                	cmp    edx,eax
  402753:	7c 78                	jl     4027cd <append+0xcd>
  402755:	48 8b 45 e0          	mov    rax,QWORD PTR [rbp-0x20]
  402759:	8b 00                	mov    eax,DWORD PTR [rax]
  40275b:	8d 14 00             	lea    edx,[rax+rax*1]
  40275e:	48 8b 45 e0          	mov    rax,QWORD PTR [rbp-0x20]
  402762:	89 10                	mov    DWORD PTR [rax],edx
  402764:	48 8b 45 e0          	mov    rax,QWORD PTR [rbp-0x20]
  402768:	8b 00                	mov    eax,DWORD PTR [rax]
  40276a:	89 c7                	mov    edi,eax
  40276c:	e8 00 fe ff ff       	call   402571 <amm_malloc>
  402771:	48 89 45 f0          	mov    QWORD PTR [rbp-0x10],rax
  402775:	48 83 7d f0 00       	cmp    QWORD PTR [rbp-0x10],0x0
  40277a:	75 06                	jne    402782 <append+0x82>
  40277c:	48 8b 45 d8          	mov    rax,QWORD PTR [rbp-0x28]
  402780:	eb 74                	jmp    4027f6 <append+0xf6>
  402782:	c7 45 fc 00 00 00 00 	mov    DWORD PTR [rbp-0x4],0x0
  402789:	eb 23                	jmp    4027ae <append+0xae>
  40278b:	8b 45 fc             	mov    eax,DWORD PTR [rbp-0x4]
  40278e:	48 63 d0             	movsxd rdx,eax
  402791:	48 8b 45 d8          	mov    rax,QWORD PTR [rbp-0x28]
  402795:	48 01 d0             	add    rax,rdx
  402798:	8b 55 fc             	mov    edx,DWORD PTR [rbp-0x4]
  40279b:	48 63 ca             	movsxd rcx,edx
  40279e:	48 8b 55 f0          	mov    rdx,QWORD PTR [rbp-0x10]
  4027a2:	48 01 ca             	add    rdx,rcx
  4027a5:	0f b6 00             	movzx  eax,BYTE PTR [rax]
  4027a8:	88 02                	mov    BYTE PTR [rdx],al
  4027aa:	83 45 fc 01          	add    DWORD PTR [rbp-0x4],0x1
  4027ae:	48 8b 45 e8          	mov    rax,QWORD PTR [rbp-0x18]
  4027b2:	8b 00                	mov    eax,DWORD PTR [rax]
  4027b4:	39 45 fc             	cmp    DWORD PTR [rbp-0x4],eax
  4027b7:	7c d2                	jl     40278b <append+0x8b>
  4027b9:	48 8b 45 d8          	mov    rax,QWORD PTR [rbp-0x28]
  4027bd:	48 89 c7             	mov    rdi,rax
  4027c0:	e8 97 fe ff ff       	call   40265c <amm_free>
  4027c5:	48 8b 45 f0          	mov    rax,QWORD PTR [rbp-0x10]
  4027c9:	48 89 45 d8          	mov    QWORD PTR [rbp-0x28],rax
  4027cd:	48 8b 45 e8          	mov    rax,QWORD PTR [rbp-0x18]
  4027d1:	8b 00                	mov    eax,DWORD PTR [rax]
  4027d3:	48 63 d0             	movsxd rdx,eax
  4027d6:	48 8b 45 d8          	mov    rax,QWORD PTR [rbp-0x28]
  4027da:	48 01 c2             	add    rdx,rax
  4027dd:	0f b6 45 d4          	movzx  eax,BYTE PTR [rbp-0x2c]
  4027e1:	88 02                	mov    BYTE PTR [rdx],al
  4027e3:	48 8b 45 e8          	mov    rax,QWORD PTR [rbp-0x18]
  4027e7:	8b 00                	mov    eax,DWORD PTR [rax]
  4027e9:	8d 50 01             	lea    edx,[rax+0x1]
  4027ec:	48 8b 45 e8          	mov    rax,QWORD PTR [rbp-0x18]
  4027f0:	89 10                	mov    DWORD PTR [rax],edx
  4027f2:	48 8b 45 d8          	mov    rax,QWORD PTR [rbp-0x28]
  4027f6:	c9                   	leave
  4027f7:	c3                   	ret

00000000004027f8 <TwoDappend>:
  4027f8:	55                   	push   rbp
  4027f9:	48 89 e5             	mov    rbp,rsp
  4027fc:	48 83 ec 40          	sub    rsp,0x40
  402800:	48 89 7d d8          	mov    QWORD PTR [rbp-0x28],rdi
  402804:	48 89 75 d0          	mov    QWORD PTR [rbp-0x30],rsi
  402808:	48 89 55 c8          	mov    QWORD PTR [rbp-0x38],rdx
  40280c:	48 89 4d c0          	mov    QWORD PTR [rbp-0x40],rcx
  402810:	48 8b 45 d0          	mov    rax,QWORD PTR [rbp-0x30]
  402814:	8b 00                	mov    eax,DWORD PTR [rax]
  402816:	85 c0                	test   eax,eax
  402818:	75 2a                	jne    402844 <TwoDappend+0x4c>
  40281a:	48 8b 45 d0          	mov    rax,QWORD PTR [rbp-0x30]
  40281e:	c7 00 04 00 00 00    	mov    DWORD PTR [rax],0x4
  402824:	48 8b 45 d0          	mov    rax,QWORD PTR [rbp-0x30]
  402828:	8b 00                	mov    eax,DWORD PTR [rax]
  40282a:	48 98                	cdqe
  40282c:	c1 e0 03             	shl    eax,0x3
  40282f:	89 c7                	mov    edi,eax
  402831:	e8 3b fd ff ff       	call   402571 <amm_malloc>
  402836:	48 89 45 c8          	mov    QWORD PTR [rbp-0x38],rax
  40283a:	48 8b 45 d8          	mov    rax,QWORD PTR [rbp-0x28]
  40283e:	c7 00 00 00 00 00    	mov    DWORD PTR [rax],0x0
  402844:	48 8b 45 d8          	mov    rax,QWORD PTR [rbp-0x28]
  402848:	8b 10                	mov    edx,DWORD PTR [rax]
  40284a:	48 8b 45 d0          	mov    rax,QWORD PTR [rbp-0x30]
  40284e:	8b 00                	mov    eax,DWORD PTR [rax]
  402850:	39 c2                	cmp    edx,eax
  402852:	0f 8c 82 00 00 00    	jl     4028da <TwoDappend+0xe2>
  402858:	48 8b 45 d0          	mov    rax,QWORD PTR [rbp-0x30]
  40285c:	8b 00                	mov    eax,DWORD PTR [rax]
  40285e:	01 c0                	add    eax,eax
  402860:	89 45 f8             	mov    DWORD PTR [rbp-0x8],eax
  402863:	8b 45 f8             	mov    eax,DWORD PTR [rbp-0x8]
  402866:	48 98                	cdqe
  402868:	c1 e0 03             	shl    eax,0x3
  40286b:	89 c7                	mov    edi,eax
  40286d:	e8 ff fc ff ff       	call   402571 <amm_malloc>
  402872:	48 89 45 f0          	mov    QWORD PTR [rbp-0x10],rax
  402876:	c7 45 fc 00 00 00 00 	mov    DWORD PTR [rbp-0x4],0x0
  40287d:	eb 33                	jmp    4028b2 <TwoDappend+0xba>
  40287f:	8b 45 fc             	mov    eax,DWORD PTR [rbp-0x4]
  402882:	48 98                	cdqe
  402884:	48 8d 14 c5 00 00 00 	lea    rdx,[rax*8+0x0]
  40288b:	00 
  40288c:	48 8b 45 c8          	mov    rax,QWORD PTR [rbp-0x38]
  402890:	48 01 d0             	add    rax,rdx
  402893:	8b 55 fc             	mov    edx,DWORD PTR [rbp-0x4]
  402896:	48 63 d2             	movsxd rdx,edx
  402899:	48 8d 0c d5 00 00 00 	lea    rcx,[rdx*8+0x0]
  4028a0:	00 
  4028a1:	48 8b 55 f0          	mov    rdx,QWORD PTR [rbp-0x10]
  4028a5:	48 01 ca             	add    rdx,rcx
  4028a8:	48 8b 00             	mov    rax,QWORD PTR [rax]
  4028ab:	48 89 02             	mov    QWORD PTR [rdx],rax
  4028ae:	83 45 fc 01          	add    DWORD PTR [rbp-0x4],0x1
  4028b2:	48 8b 45 d8          	mov    rax,QWORD PTR [rbp-0x28]
  4028b6:	8b 00                	mov    eax,DWORD PTR [rax]
  4028b8:	39 45 fc             	cmp    DWORD PTR [rbp-0x4],eax
  4028bb:	7c c2                	jl     40287f <TwoDappend+0x87>
  4028bd:	48 8b 45 c8          	mov    rax,QWORD PTR [rbp-0x38]
  4028c1:	48 89 c7             	mov    rdi,rax
  4028c4:	e8 93 fd ff ff       	call   40265c <amm_free>
  4028c9:	48 8b 45 f0          	mov    rax,QWORD PTR [rbp-0x10]
  4028cd:	48 89 45 c8          	mov    QWORD PTR [rbp-0x38],rax
  4028d1:	48 8b 45 d0          	mov    rax,QWORD PTR [rbp-0x30]
  4028d5:	8b 55 f8             	mov    edx,DWORD PTR [rbp-0x8]
  4028d8:	89 10                	mov    DWORD PTR [rax],edx
  4028da:	48 8b 45 c0          	mov    rax,QWORD PTR [rbp-0x40]
  4028de:	48 89 c7             	mov    rdi,rax
  4028e1:	e8 2a f8 ff ff       	call   402110 <strlen@plt>
  4028e6:	83 c0 01             	add    eax,0x1
  4028e9:	89 45 ec             	mov    DWORD PTR [rbp-0x14],eax
  4028ec:	48 8b 45 c0          	mov    rax,QWORD PTR [rbp-0x40]
  4028f0:	48 89 c7             	mov    rdi,rax
  4028f3:	e8 12 1e 00 00       	call   40470a <astrdup>
  4028f8:	48 89 45 e0          	mov    QWORD PTR [rbp-0x20],rax
  4028fc:	48 83 7d e0 00       	cmp    QWORD PTR [rbp-0x20],0x0
  402901:	75 16                	jne    402919 <TwoDappend+0x121>
  402903:	48 8d 05 0a 77 00 00 	lea    rax,[rip+0x770a]        # 40a014 <_IO_stdin_used+0x14>
  40290a:	48 89 c7             	mov    rdi,rax
  40290d:	e8 8e f7 ff ff       	call   4020a0 <puts@plt>
  402912:	b8 00 00 00 00       	mov    eax,0x0
  402917:	eb 31                	jmp    40294a <TwoDappend+0x152>
  402919:	48 8b 45 d8          	mov    rax,QWORD PTR [rbp-0x28]
  40291d:	8b 00                	mov    eax,DWORD PTR [rax]
  40291f:	48 98                	cdqe
  402921:	48 8d 14 c5 00 00 00 	lea    rdx,[rax*8+0x0]
  402928:	00 
  402929:	48 8b 45 c8          	mov    rax,QWORD PTR [rbp-0x38]
  40292d:	48 01 c2             	add    rdx,rax
  402930:	48 8b 45 e0          	mov    rax,QWORD PTR [rbp-0x20]
  402934:	48 89 02             	mov    QWORD PTR [rdx],rax
  402937:	48 8b 45 d8          	mov    rax,QWORD PTR [rbp-0x28]
  40293b:	8b 00                	mov    eax,DWORD PTR [rax]
  40293d:	8d 50 01             	lea    edx,[rax+0x1]
  402940:	48 8b 45 d8          	mov    rax,QWORD PTR [rbp-0x28]
  402944:	89 10                	mov    DWORD PTR [rax],edx
  402946:	48 8b 45 c8          	mov    rax,QWORD PTR [rbp-0x38]
  40294a:	c9                   	leave
  40294b:	c3                   	ret

000000000040294c <TwoDfree>:
  40294c:	55                   	push   rbp
  40294d:	48 89 e5             	mov    rbp,rsp
  402950:	48 83 ec 20          	sub    rsp,0x20
  402954:	48 89 7d e8          	mov    QWORD PTR [rbp-0x18],rdi
  402958:	89 75 e4             	mov    DWORD PTR [rbp-0x1c],esi
  40295b:	48 83 7d e8 00       	cmp    QWORD PTR [rbp-0x18],0x0
  402960:	74 5e                	je     4029c0 <TwoDfree+0x74>
  402962:	c7 45 fc 00 00 00 00 	mov    DWORD PTR [rbp-0x4],0x0
  402969:	eb 3f                	jmp    4029aa <TwoDfree+0x5e>
  40296b:	8b 45 fc             	mov    eax,DWORD PTR [rbp-0x4]
  40296e:	48 98                	cdqe
  402970:	48 8d 14 c5 00 00 00 	lea    rdx,[rax*8+0x0]
  402977:	00 
  402978:	48 8b 45 e8          	mov    rax,QWORD PTR [rbp-0x18]
  40297c:	48 01 d0             	add    rax,rdx
  40297f:	48 8b 00             	mov    rax,QWORD PTR [rax]
  402982:	48 85 c0             	test   rax,rax
  402985:	74 1f                	je     4029a6 <TwoDfree+0x5a>
  402987:	8b 45 fc             	mov    eax,DWORD PTR [rbp-0x4]
  40298a:	48 98                	cdqe
  40298c:	48 8d 14 c5 00 00 00 	lea    rdx,[rax*8+0x0]
  402993:	00 
  402994:	48 8b 45 e8          	mov    rax,QWORD PTR [rbp-0x18]
  402998:	48 01 d0             	add    rax,rdx
  40299b:	48 8b 00             	mov    rax,QWORD PTR [rax]
  40299e:	48 89 c7             	mov    rdi,rax
  4029a1:	e8 b6 fc ff ff       	call   40265c <amm_free>
  4029a6:	83 45 fc 01          	add    DWORD PTR [rbp-0x4],0x1
  4029aa:	8b 45 fc             	mov    eax,DWORD PTR [rbp-0x4]
  4029ad:	3b 45 e4             	cmp    eax,DWORD PTR [rbp-0x1c]
  4029b0:	7c b9                	jl     40296b <TwoDfree+0x1f>
  4029b2:	48 8b 45 e8          	mov    rax,QWORD PTR [rbp-0x18]
  4029b6:	48 89 c7             	mov    rdi,rax
  4029b9:	e8 9e fc ff ff       	call   40265c <amm_free>
  4029be:	eb 01                	jmp    4029c1 <TwoDfree+0x75>
  4029c0:	90                   	nop
  4029c1:	c9                   	leave
  4029c2:	c3                   	ret

00000000004029c3 <dict_set>:
  4029c3:	55                   	push   rbp
  4029c4:	48 89 e5             	mov    rbp,rsp
  4029c7:	48 83 ec 20          	sub    rsp,0x20
  4029cb:	89 f8                	mov    eax,edi
  4029cd:	48 89 75 e0          	mov    QWORD PTR [rbp-0x20],rsi
  4029d1:	88 45 ec             	mov    BYTE PTR [rbp-0x14],al
  4029d4:	c7 45 fc 00 00 00 00 	mov    DWORD PTR [rbp-0x4],0x0
  4029db:	eb 5b                	jmp    402a38 <dict_set+0x75>
  4029dd:	8b 45 fc             	mov    eax,DWORD PTR [rbp-0x4]
  4029e0:	48 63 d0             	movsxd rdx,eax
  4029e3:	48 89 d0             	mov    rax,rdx
  4029e6:	48 c1 e0 06          	shl    rax,0x6
  4029ea:	48 01 c2             	add    rdx,rax
  4029ed:	48 8d 05 0c ba 00 00 	lea    rax,[rip+0xba0c]        # 40e400 <aunicode>
  4029f4:	0f b6 04 02          	movzx  eax,BYTE PTR [rdx+rax*1]
  4029f8:	38 45 ec             	cmp    BYTE PTR [rbp-0x14],al
  4029fb:	75 37                	jne    402a34 <dict_set+0x71>
  4029fd:	8b 45 fc             	mov    eax,DWORD PTR [rbp-0x4]
  402a00:	48 63 d0             	movsxd rdx,eax
  402a03:	48 89 d0             	mov    rax,rdx
  402a06:	48 c1 e0 06          	shl    rax,0x6
  402a0a:	48 01 d0             	add    rax,rdx
  402a0d:	48 8d 15 ec b9 00 00 	lea    rdx,[rip+0xb9ec]        # 40e400 <aunicode>
  402a14:	48 01 d0             	add    rax,rdx
  402a17:	48 8d 48 01          	lea    rcx,[rax+0x1]
  402a1b:	48 8b 45 e0          	mov    rax,QWORD PTR [rbp-0x20]
  402a1f:	ba 40 00 00 00       	mov    edx,0x40
  402a24:	48 89 c6             	mov    rsi,rax
  402a27:	48 89 cf             	mov    rdi,rcx
  402a2a:	e8 11 f6 ff ff       	call   402040 <strncpy@plt>
  402a2f:	e9 81 00 00 00       	jmp    402ab5 <dict_set+0xf2>
  402a34:	83 45 fc 01          	add    DWORD PTR [rbp-0x4],0x1
  402a38:	8b 05 26 d3 00 00    	mov    eax,DWORD PTR [rip+0xd326]        # 40fd64 <aunicode_count>
  402a3e:	39 45 fc             	cmp    DWORD PTR [rbp-0x4],eax
  402a41:	7c 9a                	jl     4029dd <dict_set+0x1a>
  402a43:	8b 05 1b d3 00 00    	mov    eax,DWORD PTR [rip+0xd31b]        # 40fd64 <aunicode_count>
  402a49:	83 f8 63             	cmp    eax,0x63
  402a4c:	7f 67                	jg     402ab5 <dict_set+0xf2>
  402a4e:	8b 05 10 d3 00 00    	mov    eax,DWORD PTR [rip+0xd310]        # 40fd64 <aunicode_count>
  402a54:	48 63 d0             	movsxd rdx,eax
  402a57:	48 89 d0             	mov    rax,rdx
  402a5a:	48 c1 e0 06          	shl    rax,0x6
  402a5e:	48 8d 0c 10          	lea    rcx,[rax+rdx*1]
  402a62:	48 8d 15 97 b9 00 00 	lea    rdx,[rip+0xb997]        # 40e400 <aunicode>
  402a69:	0f b6 45 ec          	movzx  eax,BYTE PTR [rbp-0x14]
  402a6d:	88 04 11             	mov    BYTE PTR [rcx+rdx*1],al
  402a70:	8b 05 ee d2 00 00    	mov    eax,DWORD PTR [rip+0xd2ee]        # 40fd64 <aunicode_count>
  402a76:	48 63 d0             	movsxd rdx,eax
  402a79:	48 89 d0             	mov    rax,rdx
  402a7c:	48 c1 e0 06          	shl    rax,0x6
  402a80:	48 01 d0             	add    rax,rdx
  402a83:	48 8d 15 76 b9 00 00 	lea    rdx,[rip+0xb976]        # 40e400 <aunicode>
  402a8a:	48 01 d0             	add    rax,rdx
  402a8d:	48 8d 48 01          	lea    rcx,[rax+0x1]
  402a91:	48 8b 45 e0          	mov    rax,QWORD PTR [rbp-0x20]
  402a95:	ba 40 00 00 00       	mov    edx,0x40
  402a9a:	48 89 c6             	mov    rsi,rax
  402a9d:	48 89 cf             	mov    rdi,rcx
  402aa0:	e8 9b f5 ff ff       	call   402040 <strncpy@plt>
  402aa5:	8b 05 b9 d2 00 00    	mov    eax,DWORD PTR [rip+0xd2b9]        # 40fd64 <aunicode_count>
  402aab:	83 c0 01             	add    eax,0x1
  402aae:	89 05 b0 d2 00 00    	mov    DWORD PTR [rip+0xd2b0],eax        # 40fd64 <aunicode_count>
  402ab4:	90                   	nop
  402ab5:	c9                   	leave
  402ab6:	c3                   	ret

0000000000402ab7 <dict_get>:
  402ab7:	55                   	push   rbp
  402ab8:	48 89 e5             	mov    rbp,rsp
  402abb:	89 f8                	mov    eax,edi
  402abd:	88 45 ec             	mov    BYTE PTR [rbp-0x14],al
  402ac0:	c7 45 fc 00 00 00 00 	mov    DWORD PTR [rbp-0x4],0x0
  402ac7:	eb 44                	jmp    402b0d <dict_get+0x56>
  402ac9:	8b 45 fc             	mov    eax,DWORD PTR [rbp-0x4]
  402acc:	48 63 d0             	movsxd rdx,eax
  402acf:	48 89 d0             	mov    rax,rdx
  402ad2:	48 c1 e0 06          	shl    rax,0x6
  402ad6:	48 01 c2             	add    rdx,rax
  402ad9:	48 8d 05 20 b9 00 00 	lea    rax,[rip+0xb920]        # 40e400 <aunicode>
  402ae0:	0f b6 04 02          	movzx  eax,BYTE PTR [rdx+rax*1]
  402ae4:	38 45 ec             	cmp    BYTE PTR [rbp-0x14],al
  402ae7:	75 20                	jne    402b09 <dict_get+0x52>
  402ae9:	8b 45 fc             	mov    eax,DWORD PTR [rbp-0x4]
  402aec:	48 63 d0             	movsxd rdx,eax
  402aef:	48 89 d0             	mov    rax,rdx
  402af2:	48 c1 e0 06          	shl    rax,0x6
  402af6:	48 01 d0             	add    rax,rdx
  402af9:	48 8d 15 00 b9 00 00 	lea    rdx,[rip+0xb900]        # 40e400 <aunicode>
  402b00:	48 01 d0             	add    rax,rdx
  402b03:	48 83 c0 01          	add    rax,0x1
  402b07:	eb 14                	jmp    402b1d <dict_get+0x66>
  402b09:	83 45 fc 01          	add    DWORD PTR [rbp-0x4],0x1
  402b0d:	8b 05 51 d2 00 00    	mov    eax,DWORD PTR [rip+0xd251]        # 40fd64 <aunicode_count>
  402b13:	39 45 fc             	cmp    DWORD PTR [rbp-0x4],eax
  402b16:	7c b1                	jl     402ac9 <dict_get+0x12>
  402b18:	b8 00 00 00 00       	mov    eax,0x0
  402b1d:	5d                   	pop    rbp
  402b1e:	c3                   	ret

0000000000402b1f <aencrypt>:
  402b1f:	55                   	push   rbp
  402b20:	48 89 e5             	mov    rbp,rsp
  402b23:	48 83 ec 30          	sub    rsp,0x30
  402b27:	48 89 7d d8          	mov    QWORD PTR [rbp-0x28],rdi
  402b2b:	48 89 75 d0          	mov    QWORD PTR [rbp-0x30],rsi
  402b2f:	48 8b 45 d8          	mov    rax,QWORD PTR [rbp-0x28]
  402b33:	48 8d 15 ed 74 00 00 	lea    rdx,[rip+0x74ed]        # 40a027 <_IO_stdin_used+0x27>
  402b3a:	48 89 d6             	mov    rsi,rdx
  402b3d:	48 89 c7             	mov    rdi,rax
  402b40:	e8 eb f7 ff ff       	call   402330 <fopen@plt>
  402b45:	48 89 45 f8          	mov    QWORD PTR [rbp-0x8],rax
  402b49:	48 8b 45 d0          	mov    rax,QWORD PTR [rbp-0x30]
  402b4d:	48 8d 15 d5 74 00 00 	lea    rdx,[rip+0x74d5]        # 40a029 <_IO_stdin_used+0x29>
  402b54:	48 89 d6             	mov    rsi,rdx
  402b57:	48 89 c7             	mov    rdi,rax
  402b5a:	e8 d1 f7 ff ff       	call   402330 <fopen@plt>
  402b5f:	48 89 45 f0          	mov    QWORD PTR [rbp-0x10],rax
  402b63:	48 83 7d f8 00       	cmp    QWORD PTR [rbp-0x8],0x0
  402b68:	74 07                	je     402b71 <aencrypt+0x52>
  402b6a:	48 83 7d f0 00       	cmp    QWORD PTR [rbp-0x10],0x0
  402b6f:	75 77                	jne    402be8 <aencrypt+0xc9>
  402b71:	48 83 7d f8 00       	cmp    QWORD PTR [rbp-0x8],0x0
  402b76:	74 0c                	je     402b84 <aencrypt+0x65>
  402b78:	48 8b 45 f8          	mov    rax,QWORD PTR [rbp-0x8]
  402b7c:	48 89 c7             	mov    rdi,rax
  402b7f:	e8 5c f5 ff ff       	call   4020e0 <fclose@plt>
  402b84:	48 83 7d f0 00       	cmp    QWORD PTR [rbp-0x10],0x0
  402b89:	0f 84 88 00 00 00    	je     402c17 <aencrypt+0xf8>
  402b8f:	48 8b 45 f0          	mov    rax,QWORD PTR [rbp-0x10]
  402b93:	48 89 c7             	mov    rdi,rax
  402b96:	e8 45 f5 ff ff       	call   4020e0 <fclose@plt>
  402b9b:	eb 7a                	jmp    402c17 <aencrypt+0xf8>
  402b9d:	0f be 45 ef          	movsx  eax,BYTE PTR [rbp-0x11]
  402ba1:	89 c7                	mov    edi,eax
  402ba3:	e8 0f ff ff ff       	call   402ab7 <dict_get>
  402ba8:	48 89 45 e0          	mov    QWORD PTR [rbp-0x20],rax
  402bac:	48 83 7d e0 00       	cmp    QWORD PTR [rbp-0x20],0x0
  402bb1:	75 22                	jne    402bd5 <aencrypt+0xb6>
  402bb3:	48 8b 45 f0          	mov    rax,QWORD PTR [rbp-0x10]
  402bb7:	48 89 c1             	mov    rcx,rax
  402bba:	ba 07 00 00 00       	mov    edx,0x7
  402bbf:	be 01 00 00 00       	mov    esi,0x1
  402bc4:	48 8d 05 60 74 00 00 	lea    rax,[rip+0x7460]        # 40a02b <_IO_stdin_used+0x2b>
  402bcb:	48 89 c7             	mov    rdi,rax
  402bce:	e8 cd f7 ff ff       	call   4023a0 <fwrite@plt>
  402bd3:	eb 13                	jmp    402be8 <aencrypt+0xc9>
  402bd5:	48 8b 55 f0          	mov    rdx,QWORD PTR [rbp-0x10]
  402bd9:	48 8b 45 e0          	mov    rax,QWORD PTR [rbp-0x20]
  402bdd:	48 89 d6             	mov    rsi,rdx
  402be0:	48 89 c7             	mov    rdi,rax
  402be3:	e8 88 f5 ff ff       	call   402170 <fputs@plt>
  402be8:	48 8b 45 f8          	mov    rax,QWORD PTR [rbp-0x8]
  402bec:	48 89 c7             	mov    rdi,rax
  402bef:	e8 ac f5 ff ff       	call   4021a0 <fgetc@plt>
  402bf4:	88 45 ef             	mov    BYTE PTR [rbp-0x11],al
  402bf7:	80 7d ef ff          	cmp    BYTE PTR [rbp-0x11],0xff
  402bfb:	75 a0                	jne    402b9d <aencrypt+0x7e>
  402bfd:	48 8b 45 f8          	mov    rax,QWORD PTR [rbp-0x8]
  402c01:	48 89 c7             	mov    rdi,rax
  402c04:	e8 d7 f4 ff ff       	call   4020e0 <fclose@plt>
  402c09:	48 8b 45 f0          	mov    rax,QWORD PTR [rbp-0x10]
  402c0d:	48 89 c7             	mov    rdi,rax
  402c10:	e8 cb f4 ff ff       	call   4020e0 <fclose@plt>
  402c15:	eb 01                	jmp    402c18 <aencrypt+0xf9>
  402c17:	90                   	nop
  402c18:	c9                   	leave
  402c19:	c3                   	ret

0000000000402c1a <adecrypt>:
  402c1a:	55                   	push   rbp
  402c1b:	48 89 e5             	mov    rbp,rsp
  402c1e:	48 83 ec 70          	sub    rsp,0x70
  402c22:	48 89 7d 98          	mov    QWORD PTR [rbp-0x68],rdi
  402c26:	48 89 75 90          	mov    QWORD PTR [rbp-0x70],rsi
  402c2a:	48 8b 45 98          	mov    rax,QWORD PTR [rbp-0x68]
  402c2e:	48 8d 15 f2 73 00 00 	lea    rdx,[rip+0x73f2]        # 40a027 <_IO_stdin_used+0x27>
  402c35:	48 89 d6             	mov    rsi,rdx
  402c38:	48 89 c7             	mov    rdi,rax
  402c3b:	e8 f0 f6 ff ff       	call   402330 <fopen@plt>
  402c40:	48 89 45 f0          	mov    QWORD PTR [rbp-0x10],rax
  402c44:	48 8b 45 90          	mov    rax,QWORD PTR [rbp-0x70]
  402c48:	48 8d 15 da 73 00 00 	lea    rdx,[rip+0x73da]        # 40a029 <_IO_stdin_used+0x29>
  402c4f:	48 89 d6             	mov    rsi,rdx
  402c52:	48 89 c7             	mov    rdi,rax
  402c55:	e8 d6 f6 ff ff       	call   402330 <fopen@plt>
  402c5a:	48 89 45 e8          	mov    QWORD PTR [rbp-0x18],rax
  402c5e:	48 83 7d f0 00       	cmp    QWORD PTR [rbp-0x10],0x0
  402c63:	74 0b                	je     402c70 <adecrypt+0x56>
  402c65:	48 83 7d e8 00       	cmp    QWORD PTR [rbp-0x18],0x0
  402c6a:	0f 85 b7 00 00 00    	jne    402d27 <adecrypt+0x10d>
  402c70:	48 83 7d f0 00       	cmp    QWORD PTR [rbp-0x10],0x0
  402c75:	74 0c                	je     402c83 <adecrypt+0x69>
  402c77:	48 8b 45 f0          	mov    rax,QWORD PTR [rbp-0x10]
  402c7b:	48 89 c7             	mov    rdi,rax
  402c7e:	e8 5d f4 ff ff       	call   4020e0 <fclose@plt>
  402c83:	48 83 7d e8 00       	cmp    QWORD PTR [rbp-0x18],0x0
  402c88:	0f 84 da 00 00 00    	je     402d68 <adecrypt+0x14e>
  402c8e:	48 8b 45 e8          	mov    rax,QWORD PTR [rbp-0x18]
  402c92:	48 89 c7             	mov    rdi,rax
  402c95:	e8 46 f4 ff ff       	call   4020e0 <fclose@plt>
  402c9a:	e9 ca 00 00 00       	jmp    402d69 <adecrypt+0x14f>
  402c9f:	c6 45 e0 00          	mov    BYTE PTR [rbp-0x20],0x0
  402ca3:	c6 45 ff 3f          	mov    BYTE PTR [rbp-0x1],0x3f
  402ca7:	c7 45 f8 00 00 00 00 	mov    DWORD PTR [rbp-0x8],0x0
  402cae:	eb 5a                	jmp    402d0a <adecrypt+0xf0>
  402cb0:	8b 45 f8             	mov    eax,DWORD PTR [rbp-0x8]
  402cb3:	48 63 d0             	movsxd rdx,eax
  402cb6:	48 89 d0             	mov    rax,rdx
  402cb9:	48 c1 e0 06          	shl    rax,0x6
  402cbd:	48 01 d0             	add    rax,rdx
  402cc0:	48 8d 15 39 b7 00 00 	lea    rdx,[rip+0xb739]        # 40e400 <aunicode>
  402cc7:	48 01 d0             	add    rax,rdx
  402cca:	48 8d 48 01          	lea    rcx,[rax+0x1]
  402cce:	48 8d 45 a0          	lea    rax,[rbp-0x60]
  402cd2:	ba 40 00 00 00       	mov    edx,0x40
  402cd7:	48 89 c6             	mov    rsi,rax
  402cda:	48 89 cf             	mov    rdi,rcx
  402cdd:	e8 7e f3 ff ff       	call   402060 <strncmp@plt>
  402ce2:	85 c0                	test   eax,eax
  402ce4:	75 20                	jne    402d06 <adecrypt+0xec>
  402ce6:	8b 45 f8             	mov    eax,DWORD PTR [rbp-0x8]
  402ce9:	48 63 d0             	movsxd rdx,eax
  402cec:	48 89 d0             	mov    rax,rdx
  402cef:	48 c1 e0 06          	shl    rax,0x6
  402cf3:	48 01 c2             	add    rdx,rax
  402cf6:	48 8d 05 03 b7 00 00 	lea    rax,[rip+0xb703]        # 40e400 <aunicode>
  402cfd:	0f b6 04 02          	movzx  eax,BYTE PTR [rdx+rax*1]
  402d01:	88 45 ff             	mov    BYTE PTR [rbp-0x1],al
  402d04:	eb 0f                	jmp    402d15 <adecrypt+0xfb>
  402d06:	83 45 f8 01          	add    DWORD PTR [rbp-0x8],0x1
  402d0a:	8b 05 54 d0 00 00    	mov    eax,DWORD PTR [rip+0xd054]        # 40fd64 <aunicode_count>
  402d10:	39 45 f8             	cmp    DWORD PTR [rbp-0x8],eax
  402d13:	7c 9b                	jl     402cb0 <adecrypt+0x96>
  402d15:	0f be 45 ff          	movsx  eax,BYTE PTR [rbp-0x1]
  402d19:	48 8b 55 e8          	mov    rdx,QWORD PTR [rbp-0x18]
  402d1d:	48 89 d6             	mov    rsi,rdx
  402d20:	89 c7                	mov    edi,eax
  402d22:	e8 09 f5 ff ff       	call   402230 <putc@plt>
  402d27:	48 8b 55 f0          	mov    rdx,QWORD PTR [rbp-0x10]
  402d2b:	48 8d 45 a0          	lea    rax,[rbp-0x60]
  402d2f:	48 89 d1             	mov    rcx,rdx
  402d32:	ba 40 00 00 00       	mov    edx,0x40
  402d37:	be 01 00 00 00       	mov    esi,0x1
  402d3c:	48 89 c7             	mov    rdi,rax
  402d3f:	e8 6c f3 ff ff       	call   4020b0 <fread@plt>
  402d44:	48 83 f8 40          	cmp    rax,0x40
  402d48:	0f 84 51 ff ff ff    	je     402c9f <adecrypt+0x85>
  402d4e:	48 8b 45 f0          	mov    rax,QWORD PTR [rbp-0x10]
  402d52:	48 89 c7             	mov    rdi,rax
  402d55:	e8 86 f3 ff ff       	call   4020e0 <fclose@plt>
  402d5a:	48 8b 45 e8          	mov    rax,QWORD PTR [rbp-0x18]
  402d5e:	48 89 c7             	mov    rdi,rax
  402d61:	e8 7a f3 ff ff       	call   4020e0 <fclose@plt>
  402d66:	eb 01                	jmp    402d69 <adecrypt+0x14f>
  402d68:	90                   	nop
  402d69:	c9                   	leave
  402d6a:	c3                   	ret

0000000000402d6b <isin>:
  402d6b:	55                   	push   rbp
  402d6c:	48 89 e5             	mov    rbp,rsp
  402d6f:	48 89 7d e8          	mov    QWORD PTR [rbp-0x18],rdi
  402d73:	89 f0                	mov    eax,esi
  402d75:	88 45 e4             	mov    BYTE PTR [rbp-0x1c],al
  402d78:	c7 45 fc 00 00 00 00 	mov    DWORD PTR [rbp-0x4],0x0
  402d7f:	eb 22                	jmp    402da3 <isin+0x38>
  402d81:	48 8b 45 e8          	mov    rax,QWORD PTR [rbp-0x18]
  402d85:	0f b6 00             	movzx  eax,BYTE PTR [rax]
  402d88:	0f be d0             	movsx  edx,al
  402d8b:	8b 45 fc             	mov    eax,DWORD PTR [rbp-0x4]
  402d8e:	01 c2                	add    edx,eax
  402d90:	0f be 45 e4          	movsx  eax,BYTE PTR [rbp-0x1c]
  402d94:	39 c2                	cmp    edx,eax
  402d96:	75 07                	jne    402d9f <isin+0x34>
  402d98:	b8 01 00 00 00       	mov    eax,0x1
  402d9d:	eb 14                	jmp    402db3 <isin+0x48>
  402d9f:	83 45 fc 01          	add    DWORD PTR [rbp-0x4],0x1
  402da3:	48 8b 45 e8          	mov    rax,QWORD PTR [rbp-0x18]
  402da7:	0f b6 00             	movzx  eax,BYTE PTR [rax]
  402daa:	84 c0                	test   al,al
  402dac:	75 d3                	jne    402d81 <isin+0x16>
  402dae:	b8 00 00 00 00       	mov    eax,0x0
  402db3:	5d                   	pop    rbp
  402db4:	c3                   	ret

0000000000402db5 <is2arrin>:
  402db5:	55                   	push   rbp
  402db6:	48 89 e5             	mov    rbp,rsp
  402db9:	48 83 ec 20          	sub    rsp,0x20
  402dbd:	48 89 7d e8          	mov    QWORD PTR [rbp-0x18],rdi
  402dc1:	48 89 75 e0          	mov    QWORD PTR [rbp-0x20],rsi
  402dc5:	c7 45 fc 00 00 00 00 	mov    DWORD PTR [rbp-0x4],0x0
  402dcc:	eb 35                	jmp    402e03 <is2arrin+0x4e>
  402dce:	8b 45 fc             	mov    eax,DWORD PTR [rbp-0x4]
  402dd1:	48 98                	cdqe
  402dd3:	48 8d 14 c5 00 00 00 	lea    rdx,[rax*8+0x0]
  402dda:	00 
  402ddb:	48 8b 45 e8          	mov    rax,QWORD PTR [rbp-0x18]
  402ddf:	48 01 d0             	add    rax,rdx
  402de2:	48 8b 00             	mov    rax,QWORD PTR [rax]
  402de5:	48 8b 55 e0          	mov    rdx,QWORD PTR [rbp-0x20]
  402de9:	48 89 d6             	mov    rsi,rdx
  402dec:	48 89 c7             	mov    rdi,rax
  402def:	e8 cc 66 00 00       	call   4094c0 <astrcmp>
  402df4:	85 c0                	test   eax,eax
  402df6:	75 07                	jne    402dff <is2arrin+0x4a>
  402df8:	b8 01 00 00 00       	mov    eax,0x1
  402dfd:	eb 15                	jmp    402e14 <is2arrin+0x5f>
  402dff:	83 45 fc 01          	add    DWORD PTR [rbp-0x4],0x1
  402e03:	48 8b 45 e8          	mov    rax,QWORD PTR [rbp-0x18]
  402e07:	48 8b 00             	mov    rax,QWORD PTR [rax]
  402e0a:	48 85 c0             	test   rax,rax
  402e0d:	75 bf                	jne    402dce <is2arrin+0x19>
  402e0f:	b8 00 00 00 00       	mov    eax,0x0
  402e14:	c9                   	leave
  402e15:	c3                   	ret

0000000000402e16 <removetab>:
  402e16:	55                   	push   rbp
  402e17:	48 89 e5             	mov    rbp,rsp
  402e1a:	48 89 7d e8          	mov    QWORD PTR [rbp-0x18],rdi
  402e1e:	c7 45 fc 00 00 00 00 	mov    DWORD PTR [rbp-0x4],0x0
  402e25:	eb 04                	jmp    402e2b <removetab+0x15>
  402e27:	83 45 fc 01          	add    DWORD PTR [rbp-0x4],0x1
  402e2b:	8b 45 fc             	mov    eax,DWORD PTR [rbp-0x4]
  402e2e:	48 63 d0             	movsxd rdx,eax
  402e31:	48 8b 45 e8          	mov    rax,QWORD PTR [rbp-0x18]
  402e35:	48 01 d0             	add    rax,rdx
  402e38:	0f b6 00             	movzx  eax,BYTE PTR [rax]
  402e3b:	3c 20                	cmp    al,0x20
  402e3d:	74 e8                	je     402e27 <removetab+0x11>
  402e3f:	8b 45 fc             	mov    eax,DWORD PTR [rbp-0x4]
  402e42:	48 63 d0             	movsxd rdx,eax
  402e45:	48 8b 45 e8          	mov    rax,QWORD PTR [rbp-0x18]
  402e49:	48 01 d0             	add    rax,rdx
  402e4c:	0f b6 00             	movzx  eax,BYTE PTR [rax]
  402e4f:	3c 09                	cmp    al,0x9
  402e51:	74 d4                	je     402e27 <removetab+0x11>
  402e53:	83 7d fc 00          	cmp    DWORD PTR [rbp-0x4],0x0
  402e57:	7e 59                	jle    402eb2 <removetab+0x9c>
  402e59:	c7 45 f8 00 00 00 00 	mov    DWORD PTR [rbp-0x8],0x0
  402e60:	eb 2c                	jmp    402e8e <removetab+0x78>
  402e62:	8b 45 fc             	mov    eax,DWORD PTR [rbp-0x4]
  402e65:	8d 50 01             	lea    edx,[rax+0x1]
  402e68:	89 55 fc             	mov    DWORD PTR [rbp-0x4],edx
  402e6b:	48 63 d0             	movsxd rdx,eax
  402e6e:	48 8b 45 e8          	mov    rax,QWORD PTR [rbp-0x18]
  402e72:	48 8d 0c 02          	lea    rcx,[rdx+rax*1]
  402e76:	8b 45 f8             	mov    eax,DWORD PTR [rbp-0x8]
  402e79:	8d 50 01             	lea    edx,[rax+0x1]
  402e7c:	89 55 f8             	mov    DWORD PTR [rbp-0x8],edx
  402e7f:	48 63 d0             	movsxd rdx,eax
  402e82:	48 8b 45 e8          	mov    rax,QWORD PTR [rbp-0x18]
  402e86:	48 01 c2             	add    rdx,rax
  402e89:	0f b6 01             	movzx  eax,BYTE PTR [rcx]
  402e8c:	88 02                	mov    BYTE PTR [rdx],al
  402e8e:	8b 45 fc             	mov    eax,DWORD PTR [rbp-0x4]
  402e91:	48 63 d0             	movsxd rdx,eax
  402e94:	48 8b 45 e8          	mov    rax,QWORD PTR [rbp-0x18]
  402e98:	48 01 d0             	add    rax,rdx
  402e9b:	0f b6 00             	movzx  eax,BYTE PTR [rax]
  402e9e:	84 c0                	test   al,al
  402ea0:	75 c0                	jne    402e62 <removetab+0x4c>
  402ea2:	8b 45 f8             	mov    eax,DWORD PTR [rbp-0x8]
  402ea5:	48 63 d0             	movsxd rdx,eax
  402ea8:	48 8b 45 e8          	mov    rax,QWORD PTR [rbp-0x18]
  402eac:	48 01 d0             	add    rax,rdx
  402eaf:	c6 00 00             	mov    BYTE PTR [rax],0x0
  402eb2:	90                   	nop
  402eb3:	5d                   	pop    rbp
  402eb4:	c3                   	ret

0000000000402eb5 <get_username>:
  402eb5:	55                   	push   rbp
  402eb6:	48 89 e5             	mov    rbp,rsp
  402eb9:	48 83 ec 30          	sub    rsp,0x30
  402ebd:	89 7d dc             	mov    DWORD PTR [rbp-0x24],edi
  402ec0:	bf 64 00 00 00       	mov    edi,0x64
  402ec5:	e8 a7 f6 ff ff       	call   402571 <amm_malloc>
  402eca:	48 89 45 f8          	mov    QWORD PTR [rbp-0x8],rax
  402ece:	bf 64 00 00 00       	mov    edi,0x64
  402ed3:	e8 99 f6 ff ff       	call   402571 <amm_malloc>
  402ed8:	48 89 45 f0          	mov    QWORD PTR [rbp-0x10],rax
  402edc:	48 8b 45 f8          	mov    rax,QWORD PTR [rbp-0x8]
  402ee0:	be 64 00 00 00       	mov    esi,0x64
  402ee5:	48 89 c7             	mov    rdi,rax
  402ee8:	e8 a3 f2 ff ff       	call   402190 <getcwd@plt>
  402eed:	48 8b 45 f0          	mov    rax,QWORD PTR [rbp-0x10]
  402ef1:	be 64 00 00 00       	mov    esi,0x64
  402ef6:	48 89 c7             	mov    rdi,rax
  402ef9:	e8 92 f2 ff ff       	call   402190 <getcwd@plt>
  402efe:	48 8b 45 f8          	mov    rax,QWORD PTR [rbp-0x8]
  402f02:	48 8d 15 2a 71 00 00 	lea    rdx,[rip+0x712a]        # 40a033 <_IO_stdin_used+0x33>
  402f09:	48 89 d6             	mov    rsi,rdx
  402f0c:	48 89 c7             	mov    rdi,rax
  402f0f:	e8 eb 05 00 00       	call   4034ff <cut_after_substr>
  402f14:	48 8b 45 f8          	mov    rax,QWORD PTR [rbp-0x8]
  402f18:	48 89 c7             	mov    rdi,rax
  402f1b:	e8 00 f2 ff ff       	call   402120 <chdir@plt>
  402f20:	48 8d 05 00 71 00 00 	lea    rax,[rip+0x7100]        # 40a027 <_IO_stdin_used+0x27>
  402f27:	48 89 c6             	mov    rsi,rax
  402f2a:	48 8d 05 13 71 00 00 	lea    rax,[rip+0x7113]        # 40a044 <_IO_stdin_used+0x44>
  402f31:	48 89 c7             	mov    rdi,rax
  402f34:	e8 f7 f3 ff ff       	call   402330 <fopen@plt>
  402f39:	48 89 45 e8          	mov    QWORD PTR [rbp-0x18],rax
  402f3d:	48 83 7d e8 00       	cmp    QWORD PTR [rbp-0x18],0x0
  402f42:	75 1f                	jne    402f63 <get_username+0xae>
  402f44:	83 7d dc 02          	cmp    DWORD PTR [rbp-0x24],0x2
  402f48:	75 0f                	jne    402f59 <get_username+0xa4>
  402f4a:	48 8d 05 00 71 00 00 	lea    rax,[rip+0x7100]        # 40a051 <_IO_stdin_used+0x51>
  402f51:	48 89 c7             	mov    rdi,rax
  402f54:	e8 47 f1 ff ff       	call   4020a0 <puts@plt>
  402f59:	b8 00 00 00 00       	mov    eax,0x0
  402f5e:	e9 89 00 00 00       	jmp    402fec <get_username+0x137>
  402f63:	48 83 7d e8 00       	cmp    QWORD PTR [rbp-0x18],0x0
  402f68:	74 44                	je     402fae <get_username+0xf9>
  402f6a:	48 8b 45 e8          	mov    rax,QWORD PTR [rbp-0x18]
  402f6e:	48 89 c2             	mov    rdx,rax
  402f71:	be 14 00 00 00       	mov    esi,0x14
  402f76:	48 8d 05 13 ce 04 00 	lea    rax,[rip+0x4ce13]        # 44fd90 <username.0>
  402f7d:	48 89 c7             	mov    rdi,rax
  402f80:	e8 6b f2 ff ff       	call   4021f0 <fgets@plt>
  402f85:	48 85 c0             	test   rax,rax
  402f88:	74 24                	je     402fae <get_username+0xf9>
  402f8a:	48 8d 05 d8 70 00 00 	lea    rax,[rip+0x70d8]        # 40a069 <_IO_stdin_used+0x69>
  402f91:	48 89 c6             	mov    rsi,rax
  402f94:	48 8d 05 f5 cd 04 00 	lea    rax,[rip+0x4cdf5]        # 44fd90 <username.0>
  402f9b:	48 89 c7             	mov    rdi,rax
  402f9e:	e8 2d f2 ff ff       	call   4021d0 <strcspn@plt>
  402fa3:	48 8d 15 e6 cd 04 00 	lea    rdx,[rip+0x4cde6]        # 44fd90 <username.0>
  402faa:	c6 04 10 00          	mov    BYTE PTR [rax+rdx*1],0x0
  402fae:	48 83 7d e8 00       	cmp    QWORD PTR [rbp-0x18],0x0
  402fb3:	74 0c                	je     402fc1 <get_username+0x10c>
  402fb5:	48 8b 45 e8          	mov    rax,QWORD PTR [rbp-0x18]
  402fb9:	48 89 c7             	mov    rdi,rax
  402fbc:	e8 1f f1 ff ff       	call   4020e0 <fclose@plt>
  402fc1:	48 8b 45 f0          	mov    rax,QWORD PTR [rbp-0x10]
  402fc5:	48 89 c7             	mov    rdi,rax
  402fc8:	e8 53 f1 ff ff       	call   402120 <chdir@plt>
  402fcd:	48 8b 45 f8          	mov    rax,QWORD PTR [rbp-0x8]
  402fd1:	48 89 c7             	mov    rdi,rax
  402fd4:	e8 83 f6 ff ff       	call   40265c <amm_free>
  402fd9:	48 8b 45 f0          	mov    rax,QWORD PTR [rbp-0x10]
  402fdd:	48 89 c7             	mov    rdi,rax
  402fe0:	e8 77 f6 ff ff       	call   40265c <amm_free>
  402fe5:	48 8d 05 a4 cd 04 00 	lea    rax,[rip+0x4cda4]        # 44fd90 <username.0>
  402fec:	c9                   	leave
  402fed:	c3                   	ret

0000000000402fee <str_ascii>:
  402fee:	55                   	push   rbp
  402fef:	48 89 e5             	mov    rbp,rsp
  402ff2:	48 89 7d e8          	mov    QWORD PTR [rbp-0x18],rdi
  402ff6:	48 89 75 e0          	mov    QWORD PTR [rbp-0x20],rsi
  402ffa:	c7 45 fc 00 00 00 00 	mov    DWORD PTR [rbp-0x4],0x0
  403001:	eb 2e                	jmp    403031 <str_ascii+0x43>
  403003:	8b 45 fc             	mov    eax,DWORD PTR [rbp-0x4]
  403006:	48 63 d0             	movsxd rdx,eax
  403009:	48 8b 45 e8          	mov    rax,QWORD PTR [rbp-0x18]
  40300d:	48 01 d0             	add    rax,rdx
  403010:	0f b6 00             	movzx  eax,BYTE PTR [rax]
  403013:	8b 55 fc             	mov    edx,DWORD PTR [rbp-0x4]
  403016:	48 63 d2             	movsxd rdx,edx
  403019:	48 8d 0c 95 00 00 00 	lea    rcx,[rdx*4+0x0]
  403020:	00 
  403021:	48 8b 55 e0          	mov    rdx,QWORD PTR [rbp-0x20]
  403025:	48 01 ca             	add    rdx,rcx
  403028:	0f be c0             	movsx  eax,al
  40302b:	89 02                	mov    DWORD PTR [rdx],eax
  40302d:	83 45 fc 01          	add    DWORD PTR [rbp-0x4],0x1
  403031:	8b 45 fc             	mov    eax,DWORD PTR [rbp-0x4]
  403034:	48 63 d0             	movsxd rdx,eax
  403037:	48 8b 45 e8          	mov    rax,QWORD PTR [rbp-0x18]
  40303b:	48 01 d0             	add    rax,rdx
  40303e:	0f b6 00             	movzx  eax,BYTE PTR [rax]
  403041:	84 c0                	test   al,al
  403043:	75 be                	jne    403003 <str_ascii+0x15>
  403045:	8b 45 fc             	mov    eax,DWORD PTR [rbp-0x4]
  403048:	48 98                	cdqe
  40304a:	48 8d 14 85 00 00 00 	lea    rdx,[rax*4+0x0]
  403051:	00 
  403052:	48 8b 45 e0          	mov    rax,QWORD PTR [rbp-0x20]
  403056:	48 01 d0             	add    rax,rdx
  403059:	c7 00 00 00 00 00    	mov    DWORD PTR [rax],0x0
  40305f:	90                   	nop
  403060:	5d                   	pop    rbp
  403061:	c3                   	ret

0000000000403062 <ascii_int>:
  403062:	55                   	push   rbp
  403063:	48 89 e5             	mov    rbp,rsp
  403066:	89 f8                	mov    eax,edi
  403068:	88 45 fc             	mov    BYTE PTR [rbp-0x4],al
  40306b:	0f be 45 fc          	movsx  eax,BYTE PTR [rbp-0x4]
  40306f:	5d                   	pop    rbp
  403070:	c3                   	ret

0000000000403071 <int_ascii>:
  403071:	55                   	push   rbp
  403072:	48 89 e5             	mov    rbp,rsp
  403075:	48 89 7d d8          	mov    QWORD PTR [rbp-0x28],rdi
  403079:	48 89 75 d0          	mov    QWORD PTR [rbp-0x30],rsi
  40307d:	48 83 7d d8 00       	cmp    QWORD PTR [rbp-0x28],0x0
  403082:	75 17                	jne    40309b <int_ascii+0x2a>
  403084:	48 8b 45 d0          	mov    rax,QWORD PTR [rbp-0x30]
  403088:	c6 00 30             	mov    BYTE PTR [rax],0x30
  40308b:	48 8b 45 d0          	mov    rax,QWORD PTR [rbp-0x30]
  40308f:	48 83 c0 01          	add    rax,0x1
  403093:	c6 00 00             	mov    BYTE PTR [rax],0x0
  403096:	e9 f9 00 00 00       	jmp    403194 <int_ascii+0x123>
  40309b:	c7 45 fc 00 00 00 00 	mov    DWORD PTR [rbp-0x4],0x0
  4030a2:	c7 45 f8 00 00 00 00 	mov    DWORD PTR [rbp-0x8],0x0
  4030a9:	48 83 7d d8 00       	cmp    QWORD PTR [rbp-0x28],0x0
  4030ae:	0f 89 81 00 00 00    	jns    403135 <int_ascii+0xc4>
  4030b4:	c7 45 f8 01 00 00 00 	mov    DWORD PTR [rbp-0x8],0x1
  4030bb:	48 f7 5d d8          	neg    QWORD PTR [rbp-0x28]
  4030bf:	eb 74                	jmp    403135 <int_ascii+0xc4>
  4030c1:	48 8b 4d d8          	mov    rcx,QWORD PTR [rbp-0x28]
  4030c5:	48 ba 67 66 66 66 66 	movabs rdx,0x6666666666666667
  4030cc:	66 66 66 
  4030cf:	48 89 c8             	mov    rax,rcx
  4030d2:	48 f7 ea             	imul   rdx
  4030d5:	48 c1 fa 02          	sar    rdx,0x2
  4030d9:	48 89 c8             	mov    rax,rcx
  4030dc:	48 c1 f8 3f          	sar    rax,0x3f
  4030e0:	48 29 c2             	sub    rdx,rax
  4030e3:	48 89 d0             	mov    rax,rdx
  4030e6:	48 c1 e0 02          	shl    rax,0x2
  4030ea:	48 01 d0             	add    rax,rdx
  4030ed:	48 01 c0             	add    rax,rax
  4030f0:	48 29 c1             	sub    rcx,rax
  4030f3:	48 89 ca             	mov    rdx,rcx
  4030f6:	89 d0                	mov    eax,edx
  4030f8:	8d 48 30             	lea    ecx,[rax+0x30]
  4030fb:	8b 45 fc             	mov    eax,DWORD PTR [rbp-0x4]
  4030fe:	8d 50 01             	lea    edx,[rax+0x1]
  403101:	89 55 fc             	mov    DWORD PTR [rbp-0x4],edx
  403104:	89 ca                	mov    edx,ecx
  403106:	48 98                	cdqe
  403108:	88 54 05 e0          	mov    BYTE PTR [rbp+rax*1-0x20],dl
  40310c:	48 8b 4d d8          	mov    rcx,QWORD PTR [rbp-0x28]
  403110:	48 ba 67 66 66 66 66 	movabs rdx,0x6666666666666667
  403117:	66 66 66 
  40311a:	48 89 c8             	mov    rax,rcx
  40311d:	48 f7 ea             	imul   rdx
  403120:	48 89 d0             	mov    rax,rdx
  403123:	48 c1 f8 02          	sar    rax,0x2
  403127:	48 c1 f9 3f          	sar    rcx,0x3f
  40312b:	48 89 ca             	mov    rdx,rcx
  40312e:	48 29 d0             	sub    rax,rdx
  403131:	48 89 45 d8          	mov    QWORD PTR [rbp-0x28],rax
  403135:	48 83 7d d8 00       	cmp    QWORD PTR [rbp-0x28],0x0
  40313a:	7f 85                	jg     4030c1 <int_ascii+0x50>
  40313c:	83 7d f8 00          	cmp    DWORD PTR [rbp-0x8],0x0
  403140:	74 10                	je     403152 <int_ascii+0xe1>
  403142:	8b 45 fc             	mov    eax,DWORD PTR [rbp-0x4]
  403145:	8d 50 01             	lea    edx,[rax+0x1]
  403148:	89 55 fc             	mov    DWORD PTR [rbp-0x4],edx
  40314b:	48 98                	cdqe
  40314d:	c6 44 05 e0 2d       	mov    BYTE PTR [rbp+rax*1-0x20],0x2d
  403152:	c7 45 f4 00 00 00 00 	mov    DWORD PTR [rbp-0xc],0x0
  403159:	eb 23                	jmp    40317e <int_ascii+0x10d>
  40315b:	83 6d fc 01          	sub    DWORD PTR [rbp-0x4],0x1
  40315f:	8b 45 f4             	mov    eax,DWORD PTR [rbp-0xc]
  403162:	8d 50 01             	lea    edx,[rax+0x1]
  403165:	89 55 f4             	mov    DWORD PTR [rbp-0xc],edx
  403168:	48 63 d0             	movsxd rdx,eax
  40316b:	48 8b 45 d0          	mov    rax,QWORD PTR [rbp-0x30]
  40316f:	48 01 c2             	add    rdx,rax
  403172:	8b 45 fc             	mov    eax,DWORD PTR [rbp-0x4]
  403175:	48 98                	cdqe
  403177:	0f b6 44 05 e0       	movzx  eax,BYTE PTR [rbp+rax*1-0x20]
  40317c:	88 02                	mov    BYTE PTR [rdx],al
  40317e:	83 7d fc 00          	cmp    DWORD PTR [rbp-0x4],0x0
  403182:	7f d7                	jg     40315b <int_ascii+0xea>
  403184:	8b 45 f4             	mov    eax,DWORD PTR [rbp-0xc]
  403187:	48 63 d0             	movsxd rdx,eax
  40318a:	48 8b 45 d0          	mov    rax,QWORD PTR [rbp-0x30]
  40318e:	48 01 d0             	add    rax,rdx
  403191:	c6 00 00             	mov    BYTE PTR [rax],0x0
  403194:	5d                   	pop    rbp
  403195:	c3                   	ret

0000000000403196 <memload>:
  403196:	55                   	push   rbp
  403197:	48 89 e5             	mov    rbp,rsp
  40319a:	48 83 ec 30          	sub    rsp,0x30
  40319e:	89 7d dc             	mov    DWORD PTR [rbp-0x24],edi
  4031a1:	ba 37 00 00 00       	mov    edx,0x37
  4031a6:	48 8d 05 c3 6e 00 00 	lea    rax,[rip+0x6ec3]        # 40a070 <_IO_stdin_used+0x70>
  4031ad:	48 89 c6             	mov    rsi,rax
  4031b0:	bf 01 00 00 00       	mov    edi,0x1
  4031b5:	e8 06 ef ff ff       	call   4020c0 <write@plt>
  4031ba:	48 8d 45 eb          	lea    rax,[rbp-0x15]
  4031be:	48 89 c6             	mov    rsi,rax
  4031c1:	48 8d 05 df 6e 00 00 	lea    rax,[rip+0x6edf]        # 40a0a7 <_IO_stdin_used+0xa7>
  4031c8:	48 89 c7             	mov    rdi,rax
  4031cb:	b8 00 00 00 00       	mov    eax,0x0
  4031d0:	e8 8b f1 ff ff       	call   402360 <__isoc99_scanf@plt>
  4031d5:	90                   	nop
  4031d6:	e8 65 f0 ff ff       	call   402240 <getchar@plt>
  4031db:	83 f8 0a             	cmp    eax,0xa
  4031de:	75 f6                	jne    4031d6 <memload+0x40>
  4031e0:	0f b6 45 eb          	movzx  eax,BYTE PTR [rbp-0x15]
  4031e4:	3c 69                	cmp    al,0x69
  4031e6:	75 4b                	jne    403233 <memload+0x9d>
  4031e8:	c7 45 fc 00 00 00 00 	mov    DWORD PTR [rbp-0x4],0x0
  4031ef:	eb 2f                	jmp    403220 <memload+0x8a>
  4031f1:	48 8b 15 88 cb 04 00 	mov    rdx,QWORD PTR [rip+0x4cb88]        # 44fd80 <MEMORY>
  4031f8:	8b 45 fc             	mov    eax,DWORD PTR [rbp-0x4]
  4031fb:	48 98                	cdqe
  4031fd:	48 01 d0             	add    rax,rdx
  403200:	0f b6 00             	movzx  eax,BYTE PTR [rax]
  403203:	0f b6 c0             	movzx  eax,al
  403206:	89 c6                	mov    esi,eax
  403208:	48 8d 05 9b 6e 00 00 	lea    rax,[rip+0x6e9b]        # 40a0aa <_IO_stdin_used+0xaa>
  40320f:	48 89 c7             	mov    rdi,rax
  403212:	b8 00 00 00 00       	mov    eax,0x0
  403217:	e8 34 ef ff ff       	call   402150 <printf@plt>
  40321c:	83 45 fc 01          	add    DWORD PTR [rbp-0x4],0x1
  403220:	81 7d fc e2 ff 03 00 	cmp    DWORD PTR [rbp-0x4],0x3ffe2
  403227:	7e c8                	jle    4031f1 <memload+0x5b>
  403229:	b8 01 00 00 00       	mov    eax,0x1
  40322e:	e9 0f 01 00 00       	jmp    403342 <memload+0x1ac>
  403233:	0f b6 45 eb          	movzx  eax,BYTE PTR [rbp-0x15]
  403237:	3c 63                	cmp    al,0x63
  403239:	75 4b                	jne    403286 <memload+0xf0>
  40323b:	c7 45 f8 00 00 00 00 	mov    DWORD PTR [rbp-0x8],0x0
  403242:	eb 2f                	jmp    403273 <memload+0xdd>
  403244:	48 8b 15 35 cb 04 00 	mov    rdx,QWORD PTR [rip+0x4cb35]        # 44fd80 <MEMORY>
  40324b:	8b 45 f8             	mov    eax,DWORD PTR [rbp-0x8]
  40324e:	48 98                	cdqe
  403250:	48 01 d0             	add    rax,rdx
  403253:	0f b6 00             	movzx  eax,BYTE PTR [rax]
  403256:	0f b6 c0             	movzx  eax,al
  403259:	89 c6                	mov    esi,eax
  40325b:	48 8d 05 4d 6e 00 00 	lea    rax,[rip+0x6e4d]        # 40a0af <_IO_stdin_used+0xaf>
  403262:	48 89 c7             	mov    rdi,rax
  403265:	b8 00 00 00 00       	mov    eax,0x0
  40326a:	e8 e1 ee ff ff       	call   402150 <printf@plt>
  40326f:	83 45 f8 01          	add    DWORD PTR [rbp-0x8],0x1
  403273:	81 7d f8 e2 ff 03 00 	cmp    DWORD PTR [rbp-0x8],0x3ffe2
  40327a:	7e c8                	jle    403244 <memload+0xae>
  40327c:	b8 01 00 00 00       	mov    eax,0x1
  403281:	e9 bc 00 00 00       	jmp    403342 <memload+0x1ac>
  403286:	0f b6 45 eb          	movzx  eax,BYTE PTR [rbp-0x15]
  40328a:	3c 68                	cmp    al,0x68
  40328c:	75 48                	jne    4032d6 <memload+0x140>
  40328e:	c7 45 f4 00 00 00 00 	mov    DWORD PTR [rbp-0xc],0x0
  403295:	eb 2f                	jmp    4032c6 <memload+0x130>
  403297:	48 8b 15 e2 ca 04 00 	mov    rdx,QWORD PTR [rip+0x4cae2]        # 44fd80 <MEMORY>
  40329e:	8b 45 f4             	mov    eax,DWORD PTR [rbp-0xc]
  4032a1:	48 98                	cdqe
  4032a3:	48 01 d0             	add    rax,rdx
  4032a6:	0f b6 00             	movzx  eax,BYTE PTR [rax]
  4032a9:	0f b6 c0             	movzx  eax,al
  4032ac:	89 c6                	mov    esi,eax
  4032ae:	48 8d 05 ff 6d 00 00 	lea    rax,[rip+0x6dff]        # 40a0b4 <_IO_stdin_used+0xb4>
  4032b5:	48 89 c7             	mov    rdi,rax
  4032b8:	b8 00 00 00 00       	mov    eax,0x0
  4032bd:	e8 8e ee ff ff       	call   402150 <printf@plt>
  4032c2:	83 45 f4 01          	add    DWORD PTR [rbp-0xc],0x1
  4032c6:	81 7d f4 e2 ff 03 00 	cmp    DWORD PTR [rbp-0xc],0x3ffe2
  4032cd:	7e c8                	jle    403297 <memload+0x101>
  4032cf:	b8 01 00 00 00       	mov    eax,0x1
  4032d4:	eb 6c                	jmp    403342 <memload+0x1ac>
  4032d6:	0f b6 45 eb          	movzx  eax,BYTE PTR [rbp-0x15]
  4032da:	3c 76                	cmp    al,0x76
  4032dc:	75 48                	jne    403326 <memload+0x190>
  4032de:	c7 45 f0 00 00 00 00 	mov    DWORD PTR [rbp-0x10],0x0
  4032e5:	eb 34                	jmp    40331b <memload+0x185>
  4032e7:	48 8b 15 92 ca 04 00 	mov    rdx,QWORD PTR [rip+0x4ca92]        # 44fd80 <MEMORY>
  4032ee:	8b 45 f0             	mov    eax,DWORD PTR [rbp-0x10]
  4032f1:	48 98                	cdqe
  4032f3:	48 01 d0             	add    rax,rdx
  4032f6:	8b 00                	mov    eax,DWORD PTR [rax]
  4032f8:	89 45 ec             	mov    DWORD PTR [rbp-0x14],eax
  4032fb:	8b 55 ec             	mov    edx,DWORD PTR [rbp-0x14]
  4032fe:	8b 45 f0             	mov    eax,DWORD PTR [rbp-0x10]
  403301:	89 c6                	mov    esi,eax
  403303:	48 8d 05 b0 6d 00 00 	lea    rax,[rip+0x6db0]        # 40a0ba <_IO_stdin_used+0xba>
  40330a:	48 89 c7             	mov    rdi,rax
  40330d:	b8 00 00 00 00       	mov    eax,0x0
  403312:	e8 39 ee ff ff       	call   402150 <printf@plt>
  403317:	83 45 f0 04          	add    DWORD PTR [rbp-0x10],0x4
  40331b:	81 7d f0 fc ff 03 00 	cmp    DWORD PTR [rbp-0x10],0x3fffc
  403322:	7e c3                	jle    4032e7 <memload+0x151>
  403324:	eb 1c                	jmp    403342 <memload+0x1ac>
  403326:	83 7d dc 02          	cmp    DWORD PTR [rbp-0x24],0x2
  40332a:	75 0f                	jne    40333b <memload+0x1a5>
  40332c:	48 8d 05 94 6d 00 00 	lea    rax,[rip+0x6d94]        # 40a0c7 <_IO_stdin_used+0xc7>
  403333:	48 89 c7             	mov    rdi,rax
  403336:	e8 65 ed ff ff       	call   4020a0 <puts@plt>
  40333b:	b8 00 00 00 00       	mov    eax,0x0
  403340:	eb 00                	jmp    403342 <memload+0x1ac>
  403342:	c9                   	leave
  403343:	c3                   	ret

0000000000403344 <bitmapload>:
  403344:	55                   	push   rbp
  403345:	48 89 e5             	mov    rbp,rsp
  403348:	48 83 ec 20          	sub    rsp,0x20
  40334c:	89 7d ec             	mov    DWORD PTR [rbp-0x14],edi
  40334f:	c7 45 fc 00 00 00 00 	mov    DWORD PTR [rbp-0x4],0x0
  403356:	eb 2d                	jmp    403385 <bitmapload+0x41>
  403358:	8b 45 fc             	mov    eax,DWORD PTR [rbp-0x4]
  40335b:	48 98                	cdqe
  40335d:	48 8d 15 1c ca 00 00 	lea    rdx,[rip+0xca1c]        # 40fd80 <bit_map>
  403364:	0f b6 04 10          	movzx  eax,BYTE PTR [rax+rdx*1]
  403368:	0f b6 c0             	movzx  eax,al
  40336b:	89 c6                	mov    esi,eax
  40336d:	48 8d 05 59 6d 00 00 	lea    rax,[rip+0x6d59]        # 40a0cd <_IO_stdin_used+0xcd>
  403374:	48 89 c7             	mov    rdi,rax
  403377:	b8 00 00 00 00       	mov    eax,0x0
  40337c:	e8 cf ed ff ff       	call   402150 <printf@plt>
  403381:	83 45 fc 01          	add    DWORD PTR [rbp-0x4],0x1
  403385:	81 7d fc ff ff 03 00 	cmp    DWORD PTR [rbp-0x4],0x3ffff
  40338c:	7e ca                	jle    403358 <bitmapload+0x14>
  40338e:	bf 0a 00 00 00       	mov    edi,0xa
  403393:	e8 98 ec ff ff       	call   402030 <putchar@plt>
  403398:	b8 01 00 00 00       	mov    eax,0x1
  40339d:	c9                   	leave
  40339e:	c3                   	ret

000000000040339f <diskread>:
  40339f:	55                   	push   rbp
  4033a0:	48 89 e5             	mov    rbp,rsp
  4033a3:	48 81 ec c0 01 00 00 	sub    rsp,0x1c0
  4033aa:	89 bd 4c fe ff ff    	mov    DWORD PTR [rbp-0x1b4],edi
  4033b0:	48 8d 85 20 ff ff ff 	lea    rax,[rbp-0xe0]
  4033b7:	be 64 00 00 00       	mov    esi,0x64
  4033bc:	48 89 c7             	mov    rdi,rax
  4033bf:	e8 cc ed ff ff       	call   402190 <getcwd@plt>
  4033c4:	48 8d 45 90          	lea    rax,[rbp-0x70]
  4033c8:	be 64 00 00 00       	mov    esi,0x64
  4033cd:	48 89 c7             	mov    rdi,rax
  4033d0:	e8 bb ed ff ff       	call   402190 <getcwd@plt>
  4033d5:	48 8d 85 20 ff ff ff 	lea    rax,[rbp-0xe0]
  4033dc:	48 8d 15 f0 6c 00 00 	lea    rdx,[rip+0x6cf0]        # 40a0d3 <_IO_stdin_used+0xd3>
  4033e3:	48 89 d6             	mov    rsi,rdx
  4033e6:	48 89 c7             	mov    rdi,rax
  4033e9:	e8 11 01 00 00       	call   4034ff <cut_after_substr>
  4033ee:	48 8d 85 20 ff ff ff 	lea    rax,[rbp-0xe0]
  4033f5:	48 89 c7             	mov    rdi,rax
  4033f8:	e8 23 ed ff ff       	call   402120 <chdir@plt>
  4033fd:	48 8d 85 50 fe ff ff 	lea    rax,[rbp-0x1b0]
  403404:	48 8d 15 cf 6c 00 00 	lea    rdx,[rip+0x6ccf]        # 40a0da <_IO_stdin_used+0xda>
  40340b:	48 89 d6             	mov    rsi,rdx
  40340e:	48 89 c7             	mov    rdi,rax
  403411:	b8 00 00 00 00       	mov    eax,0x0
  403416:	e8 65 ef ff ff       	call   402380 <sprintf@plt>
  40341b:	48 8d 85 50 fe ff ff 	lea    rax,[rbp-0x1b0]
  403422:	48 8d 15 c1 6c 00 00 	lea    rdx,[rip+0x6cc1]        # 40a0ea <_IO_stdin_used+0xea>
  403429:	48 89 d6             	mov    rsi,rdx
  40342c:	48 89 c7             	mov    rdi,rax
  40342f:	e8 fc ee ff ff       	call   402330 <fopen@plt>
  403434:	48 89 45 f8          	mov    QWORD PTR [rbp-0x8],rax
  403438:	48 83 7d f8 00       	cmp    QWORD PTR [rbp-0x8],0x0
  40343d:	75 29                	jne    403468 <diskread+0xc9>
  40343f:	83 bd 4c fe ff ff 01 	cmp    DWORD PTR [rbp-0x1b4],0x1
  403446:	75 0f                	jne    403457 <diskread+0xb8>
  403448:	48 8d 05 9e 6c 00 00 	lea    rax,[rip+0x6c9e]        # 40a0ed <_IO_stdin_used+0xed>
  40344f:	48 89 c7             	mov    rdi,rax
  403452:	e8 49 ec ff ff       	call   4020a0 <puts@plt>
  403457:	b8 00 00 00 00       	mov    eax,0x0
  40345c:	eb 46                	jmp    4034a4 <diskread+0x105>
  40345e:	8b 45 f4             	mov    eax,DWORD PTR [rbp-0xc]
  403461:	89 c7                	mov    edi,eax
  403463:	e8 c8 eb ff ff       	call   402030 <putchar@plt>
  403468:	48 8b 45 f8          	mov    rax,QWORD PTR [rbp-0x8]
  40346c:	48 89 c7             	mov    rdi,rax
  40346f:	e8 2c ed ff ff       	call   4021a0 <fgetc@plt>
  403474:	89 45 f4             	mov    DWORD PTR [rbp-0xc],eax
  403477:	83 7d f4 ff          	cmp    DWORD PTR [rbp-0xc],0xffffffff
  40347b:	75 e1                	jne    40345e <diskread+0xbf>
  40347d:	bf 0a 00 00 00       	mov    edi,0xa
  403482:	e8 a9 eb ff ff       	call   402030 <putchar@plt>
  403487:	48 8b 45 f8          	mov    rax,QWORD PTR [rbp-0x8]
  40348b:	48 89 c7             	mov    rdi,rax
  40348e:	e8 4d ec ff ff       	call   4020e0 <fclose@plt>
  403493:	48 8d 45 90          	lea    rax,[rbp-0x70]
  403497:	48 89 c7             	mov    rdi,rax
  40349a:	e8 81 ec ff ff       	call   402120 <chdir@plt>
  40349f:	b8 01 00 00 00       	mov    eax,0x1
  4034a4:	c9                   	leave
  4034a5:	c3                   	ret

00000000004034a6 <removen>:
  4034a6:	55                   	push   rbp
  4034a7:	48 89 e5             	mov    rbp,rsp
  4034aa:	48 83 ec 20          	sub    rsp,0x20
  4034ae:	48 89 7d e8          	mov    QWORD PTR [rbp-0x18],rdi
  4034b2:	89 75 e4             	mov    DWORD PTR [rbp-0x1c],esi
  4034b5:	48 8b 45 e8          	mov    rax,QWORD PTR [rbp-0x18]
  4034b9:	48 89 c7             	mov    rdi,rax
  4034bc:	e8 4f ec ff ff       	call   402110 <strlen@plt>
  4034c1:	89 45 fc             	mov    DWORD PTR [rbp-0x4],eax
  4034c4:	8b 45 e4             	mov    eax,DWORD PTR [rbp-0x1c]
  4034c7:	3b 45 fc             	cmp    eax,DWORD PTR [rbp-0x4]
  4034ca:	7c 09                	jl     4034d5 <removen+0x2f>
  4034cc:	48 8b 45 e8          	mov    rax,QWORD PTR [rbp-0x18]
  4034d0:	c6 00 00             	mov    BYTE PTR [rax],0x0
  4034d3:	eb 28                	jmp    4034fd <removen+0x57>
  4034d5:	8b 45 fc             	mov    eax,DWORD PTR [rbp-0x4]
  4034d8:	2b 45 e4             	sub    eax,DWORD PTR [rbp-0x1c]
  4034db:	83 c0 01             	add    eax,0x1
  4034de:	48 63 d0             	movsxd rdx,eax
  4034e1:	8b 45 e4             	mov    eax,DWORD PTR [rbp-0x1c]
  4034e4:	48 63 c8             	movsxd rcx,eax
  4034e7:	48 8b 45 e8          	mov    rax,QWORD PTR [rbp-0x18]
  4034eb:	48 01 c1             	add    rcx,rax
  4034ee:	48 8b 45 e8          	mov    rax,QWORD PTR [rbp-0x18]
  4034f2:	48 89 ce             	mov    rsi,rcx
  4034f5:	48 89 c7             	mov    rdi,rax
  4034f8:	e8 23 ee ff ff       	call   402320 <memmove@plt>
  4034fd:	c9                   	leave
  4034fe:	c3                   	ret

00000000004034ff <cut_after_substr>:
  4034ff:	55                   	push   rbp
  403500:	48 89 e5             	mov    rbp,rsp
  403503:	48 83 ec 20          	sub    rsp,0x20
  403507:	48 89 7d e8          	mov    QWORD PTR [rbp-0x18],rdi
  40350b:	48 89 75 e0          	mov    QWORD PTR [rbp-0x20],rsi
  40350f:	48 8b 55 e0          	mov    rdx,QWORD PTR [rbp-0x20]
  403513:	48 8b 45 e8          	mov    rax,QWORD PTR [rbp-0x18]
  403517:	48 89 d6             	mov    rsi,rdx
  40351a:	48 89 c7             	mov    rdi,rax
  40351d:	e8 ae ee ff ff       	call   4023d0 <strstr@plt>
  403522:	48 89 45 f8          	mov    QWORD PTR [rbp-0x8],rax
  403526:	48 83 7d f8 00       	cmp    QWORD PTR [rbp-0x8],0x0
  40352b:	74 17                	je     403544 <cut_after_substr+0x45>
  40352d:	48 8b 45 e0          	mov    rax,QWORD PTR [rbp-0x20]
  403531:	48 89 c7             	mov    rdi,rax
  403534:	e8 d7 eb ff ff       	call   402110 <strlen@plt>
  403539:	48 01 45 f8          	add    QWORD PTR [rbp-0x8],rax
  40353d:	48 8b 45 f8          	mov    rax,QWORD PTR [rbp-0x8]
  403541:	c6 00 00             	mov    BYTE PTR [rax],0x0
  403544:	90                   	nop
  403545:	c9                   	leave
  403546:	c3                   	ret

0000000000403547 <GodSays>:
  403547:	55                   	push   rbp
  403548:	48 89 e5             	mov    rbp,rsp
  40354b:	48 83 ec 10          	sub    rsp,0x10
  40354f:	bf 00 00 00 00       	mov    edi,0x0
  403554:	e8 67 ed ff ff       	call   4022c0 <time@plt>
  403559:	89 c7                	mov    edi,eax
  40355b:	e8 80 ec ff ff       	call   4021e0 <srand@plt>
  403560:	e8 7b ee ff ff       	call   4023e0 <rand@plt>
  403565:	48 63 d0             	movsxd rdx,eax
  403568:	48 69 d2 1f 85 eb 51 	imul   rdx,rdx,0x51eb851f
  40356f:	48 c1 ea 20          	shr    rdx,0x20
  403573:	c1 fa 05             	sar    edx,0x5
  403576:	89 c1                	mov    ecx,eax
  403578:	c1 f9 1f             	sar    ecx,0x1f
  40357b:	29 ca                	sub    edx,ecx
  40357d:	89 55 fc             	mov    DWORD PTR [rbp-0x4],edx
  403580:	8b 55 fc             	mov    edx,DWORD PTR [rbp-0x4]
  403583:	6b d2 64             	imul   edx,edx,0x64
  403586:	29 d0                	sub    eax,edx
  403588:	89 45 fc             	mov    DWORD PTR [rbp-0x4],eax
  40358b:	83 7d fc 63          	cmp    DWORD PTR [rbp-0x4],0x63
  40358f:	0f 87 da 07 00 00    	ja     403d6f <GodSays+0x828>
  403595:	8b 45 fc             	mov    eax,DWORD PTR [rbp-0x4]
  403598:	48 8d 14 85 00 00 00 	lea    rdx,[rax*4+0x0]
  40359f:	00 
  4035a0:	48 8d 05 ed 77 00 00 	lea    rax,[rip+0x77ed]        # 40ad94 <_IO_stdin_used+0xd94>
  4035a7:	8b 04 02             	mov    eax,DWORD PTR [rdx+rax*1]
  4035aa:	48 98                	cdqe
  4035ac:	48 8d 15 e1 77 00 00 	lea    rdx,[rip+0x77e1]        # 40ad94 <_IO_stdin_used+0xd94>
  4035b3:	48 01 d0             	add    rax,rdx
  4035b6:	ff e0                	jmp    rax
  4035b8:	48 8d 05 45 6b 00 00 	lea    rax,[rip+0x6b45]        # 40a104 <_IO_stdin_used+0x104>
  4035bf:	48 89 c7             	mov    rdi,rax
  4035c2:	e8 d9 ea ff ff       	call   4020a0 <puts@plt>
  4035c7:	e9 a3 07 00 00       	jmp    403d6f <GodSays+0x828>
  4035cc:	48 8d 05 4d 6b 00 00 	lea    rax,[rip+0x6b4d]        # 40a120 <_IO_stdin_used+0x120>
  4035d3:	48 89 c7             	mov    rdi,rax
  4035d6:	e8 c5 ea ff ff       	call   4020a0 <puts@plt>
  4035db:	e9 8f 07 00 00       	jmp    403d6f <GodSays+0x828>
  4035e0:	48 8d 05 51 6b 00 00 	lea    rax,[rip+0x6b51]        # 40a138 <_IO_stdin_used+0x138>
  4035e7:	48 89 c7             	mov    rdi,rax
  4035ea:	e8 b1 ea ff ff       	call   4020a0 <puts@plt>
  4035ef:	e9 7b 07 00 00       	jmp    403d6f <GodSays+0x828>
  4035f4:	48 8d 05 65 6b 00 00 	lea    rax,[rip+0x6b65]        # 40a160 <_IO_stdin_used+0x160>
  4035fb:	48 89 c7             	mov    rdi,rax
  4035fe:	e8 9d ea ff ff       	call   4020a0 <puts@plt>
  403603:	e9 67 07 00 00       	jmp    403d6f <GodSays+0x828>
  403608:	48 8d 05 71 6b 00 00 	lea    rax,[rip+0x6b71]        # 40a180 <_IO_stdin_used+0x180>
  40360f:	48 89 c7             	mov    rdi,rax
  403612:	e8 89 ea ff ff       	call   4020a0 <puts@plt>
  403617:	e9 53 07 00 00       	jmp    403d6f <GodSays+0x828>
  40361c:	48 8d 05 79 6b 00 00 	lea    rax,[rip+0x6b79]        # 40a19c <_IO_stdin_used+0x19c>
  403623:	48 89 c7             	mov    rdi,rax
  403626:	e8 75 ea ff ff       	call   4020a0 <puts@plt>
  40362b:	e9 3f 07 00 00       	jmp    403d6f <GodSays+0x828>
  403630:	48 8d 05 7f 6b 00 00 	lea    rax,[rip+0x6b7f]        # 40a1b6 <_IO_stdin_used+0x1b6>
  403637:	48 89 c7             	mov    rdi,rax
  40363a:	e8 61 ea ff ff       	call   4020a0 <puts@plt>
  40363f:	e9 2b 07 00 00       	jmp    403d6f <GodSays+0x828>
  403644:	48 8d 05 8d 6b 00 00 	lea    rax,[rip+0x6b8d]        # 40a1d8 <_IO_stdin_used+0x1d8>
  40364b:	48 89 c7             	mov    rdi,rax
  40364e:	e8 4d ea ff ff       	call   4020a0 <puts@plt>
  403653:	e9 17 07 00 00       	jmp    403d6f <GodSays+0x828>
  403658:	48 8d 05 a1 6b 00 00 	lea    rax,[rip+0x6ba1]        # 40a200 <_IO_stdin_used+0x200>
  40365f:	48 89 c7             	mov    rdi,rax
  403662:	e8 39 ea ff ff       	call   4020a0 <puts@plt>
  403667:	e9 03 07 00 00       	jmp    403d6f <GodSays+0x828>
  40366c:	48 8d 05 b0 6b 00 00 	lea    rax,[rip+0x6bb0]        # 40a223 <_IO_stdin_used+0x223>
  403673:	48 89 c7             	mov    rdi,rax
  403676:	e8 25 ea ff ff       	call   4020a0 <puts@plt>
  40367b:	e9 ef 06 00 00       	jmp    403d6f <GodSays+0x828>
  403680:	48 8d 05 b5 6b 00 00 	lea    rax,[rip+0x6bb5]        # 40a23c <_IO_stdin_used+0x23c>
  403687:	48 89 c7             	mov    rdi,rax
  40368a:	e8 11 ea ff ff       	call   4020a0 <puts@plt>
  40368f:	e9 db 06 00 00       	jmp    403d6f <GodSays+0x828>
  403694:	48 8d 05 bd 6b 00 00 	lea    rax,[rip+0x6bbd]        # 40a258 <_IO_stdin_used+0x258>
  40369b:	48 89 c7             	mov    rdi,rax
  40369e:	e8 fd e9 ff ff       	call   4020a0 <puts@plt>
  4036a3:	e9 c7 06 00 00       	jmp    403d6f <GodSays+0x828>
  4036a8:	48 8d 05 cc 6b 00 00 	lea    rax,[rip+0x6bcc]        # 40a27b <_IO_stdin_used+0x27b>
  4036af:	48 89 c7             	mov    rdi,rax
  4036b2:	e8 e9 e9 ff ff       	call   4020a0 <puts@plt>
  4036b7:	e9 b3 06 00 00       	jmp    403d6f <GodSays+0x828>
  4036bc:	48 8d 05 d2 6b 00 00 	lea    rax,[rip+0x6bd2]        # 40a295 <_IO_stdin_used+0x295>
  4036c3:	48 89 c7             	mov    rdi,rax
  4036c6:	e8 d5 e9 ff ff       	call   4020a0 <puts@plt>
  4036cb:	e9 9f 06 00 00       	jmp    403d6f <GodSays+0x828>
  4036d0:	48 8d 05 d9 6b 00 00 	lea    rax,[rip+0x6bd9]        # 40a2b0 <_IO_stdin_used+0x2b0>
  4036d7:	48 89 c7             	mov    rdi,rax
  4036da:	e8 c1 e9 ff ff       	call   4020a0 <puts@plt>
  4036df:	e9 8b 06 00 00       	jmp    403d6f <GodSays+0x828>
  4036e4:	48 8d 05 e4 6b 00 00 	lea    rax,[rip+0x6be4]        # 40a2cf <_IO_stdin_used+0x2cf>
  4036eb:	48 89 c7             	mov    rdi,rax
  4036ee:	e8 ad e9 ff ff       	call   4020a0 <puts@plt>
  4036f3:	e9 77 06 00 00       	jmp    403d6f <GodSays+0x828>
  4036f8:	48 8d 05 ec 6b 00 00 	lea    rax,[rip+0x6bec]        # 40a2eb <_IO_stdin_used+0x2eb>
  4036ff:	48 89 c7             	mov    rdi,rax
  403702:	e8 99 e9 ff ff       	call   4020a0 <puts@plt>
  403707:	e9 63 06 00 00       	jmp    403d6f <GodSays+0x828>
  40370c:	48 8d 05 f4 6b 00 00 	lea    rax,[rip+0x6bf4]        # 40a307 <_IO_stdin_used+0x307>
  403713:	48 89 c7             	mov    rdi,rax
  403716:	e8 85 e9 ff ff       	call   4020a0 <puts@plt>
  40371b:	e9 4f 06 00 00       	jmp    403d6f <GodSays+0x828>
  403720:	48 8d 05 fd 6b 00 00 	lea    rax,[rip+0x6bfd]        # 40a324 <_IO_stdin_used+0x324>
  403727:	48 89 c7             	mov    rdi,rax
  40372a:	e8 71 e9 ff ff       	call   4020a0 <puts@plt>
  40372f:	e9 3b 06 00 00       	jmp    403d6f <GodSays+0x828>
  403734:	48 8d 05 05 6c 00 00 	lea    rax,[rip+0x6c05]        # 40a340 <_IO_stdin_used+0x340>
  40373b:	48 89 c7             	mov    rdi,rax
  40373e:	e8 5d e9 ff ff       	call   4020a0 <puts@plt>
  403743:	e9 27 06 00 00       	jmp    403d6f <GodSays+0x828>
  403748:	48 8d 05 19 6c 00 00 	lea    rax,[rip+0x6c19]        # 40a368 <_IO_stdin_used+0x368>
  40374f:	48 89 c7             	mov    rdi,rax
  403752:	e8 49 e9 ff ff       	call   4020a0 <puts@plt>
  403757:	e9 13 06 00 00       	jmp    403d6f <GodSays+0x828>
  40375c:	48 8d 05 25 6c 00 00 	lea    rax,[rip+0x6c25]        # 40a388 <_IO_stdin_used+0x388>
  403763:	48 89 c7             	mov    rdi,rax
  403766:	e8 35 e9 ff ff       	call   4020a0 <puts@plt>
  40376b:	e9 ff 05 00 00       	jmp    403d6f <GodSays+0x828>
  403770:	48 8d 05 30 6c 00 00 	lea    rax,[rip+0x6c30]        # 40a3a7 <_IO_stdin_used+0x3a7>
  403777:	48 89 c7             	mov    rdi,rax
  40377a:	e8 21 e9 ff ff       	call   4020a0 <puts@plt>
  40377f:	e9 eb 05 00 00       	jmp    403d6f <GodSays+0x828>
  403784:	48 8d 05 39 6c 00 00 	lea    rax,[rip+0x6c39]        # 40a3c4 <_IO_stdin_used+0x3c4>
  40378b:	48 89 c7             	mov    rdi,rax
  40378e:	e8 0d e9 ff ff       	call   4020a0 <puts@plt>
  403793:	e9 d7 05 00 00       	jmp    403d6f <GodSays+0x828>
  403798:	48 8d 05 3f 6c 00 00 	lea    rax,[rip+0x6c3f]        # 40a3de <_IO_stdin_used+0x3de>
  40379f:	48 89 c7             	mov    rdi,rax
  4037a2:	e8 f9 e8 ff ff       	call   4020a0 <puts@plt>
  4037a7:	e9 c3 05 00 00       	jmp    403d6f <GodSays+0x828>
  4037ac:	48 8d 05 4d 6c 00 00 	lea    rax,[rip+0x6c4d]        # 40a400 <_IO_stdin_used+0x400>
  4037b3:	48 89 c7             	mov    rdi,rax
  4037b6:	e8 e5 e8 ff ff       	call   4020a0 <puts@plt>
  4037bb:	e9 af 05 00 00       	jmp    403d6f <GodSays+0x828>
  4037c0:	48 8d 05 5e 6c 00 00 	lea    rax,[rip+0x6c5e]        # 40a425 <_IO_stdin_used+0x425>
  4037c7:	48 89 c7             	mov    rdi,rax
  4037ca:	e8 d1 e8 ff ff       	call   4020a0 <puts@plt>
  4037cf:	e9 9b 05 00 00       	jmp    403d6f <GodSays+0x828>
  4037d4:	48 8d 05 6d 6c 00 00 	lea    rax,[rip+0x6c6d]        # 40a448 <_IO_stdin_used+0x448>
  4037db:	48 89 c7             	mov    rdi,rax
  4037de:	e8 bd e8 ff ff       	call   4020a0 <puts@plt>
  4037e3:	e9 87 05 00 00       	jmp    403d6f <GodSays+0x828>
  4037e8:	48 8d 05 79 6c 00 00 	lea    rax,[rip+0x6c79]        # 40a468 <_IO_stdin_used+0x468>
  4037ef:	48 89 c7             	mov    rdi,rax
  4037f2:	e8 a9 e8 ff ff       	call   4020a0 <puts@plt>
  4037f7:	e9 73 05 00 00       	jmp    403d6f <GodSays+0x828>
  4037fc:	48 8d 05 8d 6c 00 00 	lea    rax,[rip+0x6c8d]        # 40a490 <_IO_stdin_used+0x490>
  403803:	48 89 c7             	mov    rdi,rax
  403806:	e8 95 e8 ff ff       	call   4020a0 <puts@plt>
  40380b:	e9 5f 05 00 00       	jmp    403d6f <GodSays+0x828>
  403810:	48 8d 05 99 6c 00 00 	lea    rax,[rip+0x6c99]        # 40a4b0 <_IO_stdin_used+0x4b0>
  403817:	48 89 c7             	mov    rdi,rax
  40381a:	e8 81 e8 ff ff       	call   4020a0 <puts@plt>
  40381f:	e9 4b 05 00 00       	jmp    403d6f <GodSays+0x828>
  403824:	48 8d 05 a6 6c 00 00 	lea    rax,[rip+0x6ca6]        # 40a4d1 <_IO_stdin_used+0x4d1>
  40382b:	48 89 c7             	mov    rdi,rax
  40382e:	e8 6d e8 ff ff       	call   4020a0 <puts@plt>
  403833:	e9 37 05 00 00       	jmp    403d6f <GodSays+0x828>
  403838:	48 8d 05 b1 6c 00 00 	lea    rax,[rip+0x6cb1]        # 40a4f0 <_IO_stdin_used+0x4f0>
  40383f:	48 89 c7             	mov    rdi,rax
  403842:	e8 59 e8 ff ff       	call   4020a0 <puts@plt>
  403847:	e9 23 05 00 00       	jmp    403d6f <GodSays+0x828>
  40384c:	48 8d 05 bf 6c 00 00 	lea    rax,[rip+0x6cbf]        # 40a512 <_IO_stdin_used+0x512>
  403853:	48 89 c7             	mov    rdi,rax
  403856:	e8 45 e8 ff ff       	call   4020a0 <puts@plt>
  40385b:	e9 0f 05 00 00       	jmp    403d6f <GodSays+0x828>
  403860:	48 8d 05 c9 6c 00 00 	lea    rax,[rip+0x6cc9]        # 40a530 <_IO_stdin_used+0x530>
  403867:	48 89 c7             	mov    rdi,rax
  40386a:	e8 31 e8 ff ff       	call   4020a0 <puts@plt>
  40386f:	e9 fb 04 00 00       	jmp    403d6f <GodSays+0x828>
  403874:	48 8d 05 dd 6c 00 00 	lea    rax,[rip+0x6cdd]        # 40a558 <_IO_stdin_used+0x558>
  40387b:	48 89 c7             	mov    rdi,rax
  40387e:	e8 1d e8 ff ff       	call   4020a0 <puts@plt>
  403883:	e9 e7 04 00 00       	jmp    403d6f <GodSays+0x828>
  403888:	48 8d 05 ee 6c 00 00 	lea    rax,[rip+0x6cee]        # 40a57d <_IO_stdin_used+0x57d>
  40388f:	48 89 c7             	mov    rdi,rax
  403892:	e8 09 e8 ff ff       	call   4020a0 <puts@plt>
  403897:	e9 d3 04 00 00       	jmp    403d6f <GodSays+0x828>
  40389c:	48 8d 05 f1 6c 00 00 	lea    rax,[rip+0x6cf1]        # 40a594 <_IO_stdin_used+0x594>
  4038a3:	48 89 c7             	mov    rdi,rax
  4038a6:	e8 f5 e7 ff ff       	call   4020a0 <puts@plt>
  4038ab:	e9 bf 04 00 00       	jmp    403d6f <GodSays+0x828>
  4038b0:	48 8d 05 fb 6c 00 00 	lea    rax,[rip+0x6cfb]        # 40a5b2 <_IO_stdin_used+0x5b2>
  4038b7:	48 89 c7             	mov    rdi,rax
  4038ba:	e8 e1 e7 ff ff       	call   4020a0 <puts@plt>
  4038bf:	e9 ab 04 00 00       	jmp    403d6f <GodSays+0x828>
  4038c4:	48 8d 05 05 6d 00 00 	lea    rax,[rip+0x6d05]        # 40a5d0 <_IO_stdin_used+0x5d0>
  4038cb:	48 89 c7             	mov    rdi,rax
  4038ce:	e8 cd e7 ff ff       	call   4020a0 <puts@plt>
  4038d3:	e9 97 04 00 00       	jmp    403d6f <GodSays+0x828>
  4038d8:	48 8d 05 13 6d 00 00 	lea    rax,[rip+0x6d13]        # 40a5f2 <_IO_stdin_used+0x5f2>
  4038df:	48 89 c7             	mov    rdi,rax
  4038e2:	e8 b9 e7 ff ff       	call   4020a0 <puts@plt>
  4038e7:	e9 83 04 00 00       	jmp    403d6f <GodSays+0x828>
  4038ec:	48 8d 05 1d 6d 00 00 	lea    rax,[rip+0x6d1d]        # 40a610 <_IO_stdin_used+0x610>
  4038f3:	48 89 c7             	mov    rdi,rax
  4038f6:	e8 a5 e7 ff ff       	call   4020a0 <puts@plt>
  4038fb:	e9 6f 04 00 00       	jmp    403d6f <GodSays+0x828>
  403900:	48 8d 05 2c 6d 00 00 	lea    rax,[rip+0x6d2c]        # 40a633 <_IO_stdin_used+0x633>
  403907:	48 89 c7             	mov    rdi,rax
  40390a:	e8 91 e7 ff ff       	call   4020a0 <puts@plt>
  40390f:	e9 5b 04 00 00       	jmp    403d6f <GodSays+0x828>
  403914:	48 8d 05 3d 6d 00 00 	lea    rax,[rip+0x6d3d]        # 40a658 <_IO_stdin_used+0x658>
  40391b:	48 89 c7             	mov    rdi,rax
  40391e:	e8 7d e7 ff ff       	call   4020a0 <puts@plt>
  403923:	e9 47 04 00 00       	jmp    403d6f <GodSays+0x828>
  403928:	48 8d 05 50 6d 00 00 	lea    rax,[rip+0x6d50]        # 40a67f <_IO_stdin_used+0x67f>
  40392f:	48 89 c7             	mov    rdi,rax
  403932:	e8 69 e7 ff ff       	call   4020a0 <puts@plt>
  403937:	e9 33 04 00 00       	jmp    403d6f <GodSays+0x828>
  40393c:	48 8d 05 4d 6d 00 00 	lea    rax,[rip+0x6d4d]        # 40a690 <_IO_stdin_used+0x690>
  403943:	48 89 c7             	mov    rdi,rax
  403946:	e8 55 e7 ff ff       	call   4020a0 <puts@plt>
  40394b:	e9 1f 04 00 00       	jmp    403d6f <GodSays+0x828>
  403950:	48 8d 05 59 6d 00 00 	lea    rax,[rip+0x6d59]        # 40a6b0 <_IO_stdin_used+0x6b0>
  403957:	48 89 c7             	mov    rdi,rax
  40395a:	e8 41 e7 ff ff       	call   4020a0 <puts@plt>
  40395f:	e9 0b 04 00 00       	jmp    403d6f <GodSays+0x828>
  403964:	48 8d 05 6a 6d 00 00 	lea    rax,[rip+0x6d6a]        # 40a6d5 <_IO_stdin_used+0x6d5>
  40396b:	48 89 c7             	mov    rdi,rax
  40396e:	e8 2d e7 ff ff       	call   4020a0 <puts@plt>
  403973:	e9 f7 03 00 00       	jmp    403d6f <GodSays+0x828>
  403978:	48 8d 05 71 6d 00 00 	lea    rax,[rip+0x6d71]        # 40a6f0 <_IO_stdin_used+0x6f0>
  40397f:	48 89 c7             	mov    rdi,rax
  403982:	e8 19 e7 ff ff       	call   4020a0 <puts@plt>
  403987:	e9 e3 03 00 00       	jmp    403d6f <GodSays+0x828>
  40398c:	48 8d 05 7d 6d 00 00 	lea    rax,[rip+0x6d7d]        # 40a710 <_IO_stdin_used+0x710>
  403993:	48 89 c7             	mov    rdi,rax
  403996:	e8 05 e7 ff ff       	call   4020a0 <puts@plt>
  40399b:	e9 cf 03 00 00       	jmp    403d6f <GodSays+0x828>
  4039a0:	48 8d 05 88 6d 00 00 	lea    rax,[rip+0x6d88]        # 40a72f <_IO_stdin_used+0x72f>
  4039a7:	48 89 c7             	mov    rdi,rax
  4039aa:	e8 f1 e6 ff ff       	call   4020a0 <puts@plt>
  4039af:	e9 bb 03 00 00       	jmp    403d6f <GodSays+0x828>
  4039b4:	48 8d 05 8c 6d 00 00 	lea    rax,[rip+0x6d8c]        # 40a747 <_IO_stdin_used+0x747>
  4039bb:	48 89 c7             	mov    rdi,rax
  4039be:	e8 dd e6 ff ff       	call   4020a0 <puts@plt>
  4039c3:	e9 a7 03 00 00       	jmp    403d6f <GodSays+0x828>
  4039c8:	48 8d 05 94 6d 00 00 	lea    rax,[rip+0x6d94]        # 40a763 <_IO_stdin_used+0x763>
  4039cf:	48 89 c7             	mov    rdi,rax
  4039d2:	e8 c9 e6 ff ff       	call   4020a0 <puts@plt>
  4039d7:	e9 93 03 00 00       	jmp    403d6f <GodSays+0x828>
  4039dc:	48 8d 05 9d 6d 00 00 	lea    rax,[rip+0x6d9d]        # 40a780 <_IO_stdin_used+0x780>
  4039e3:	48 89 c7             	mov    rdi,rax
  4039e6:	e8 b5 e6 ff ff       	call   4020a0 <puts@plt>
  4039eb:	e9 7f 03 00 00       	jmp    403d6f <GodSays+0x828>
  4039f0:	48 8d 05 a9 6d 00 00 	lea    rax,[rip+0x6da9]        # 40a7a0 <_IO_stdin_used+0x7a0>
  4039f7:	48 89 c7             	mov    rdi,rax
  4039fa:	e8 a1 e6 ff ff       	call   4020a0 <puts@plt>
  4039ff:	e9 6b 03 00 00       	jmp    403d6f <GodSays+0x828>
  403a04:	48 8d 05 b5 6d 00 00 	lea    rax,[rip+0x6db5]        # 40a7c0 <_IO_stdin_used+0x7c0>
  403a0b:	48 89 c7             	mov    rdi,rax
  403a0e:	e8 8d e6 ff ff       	call   4020a0 <puts@plt>
  403a13:	e9 57 03 00 00       	jmp    403d6f <GodSays+0x828>
  403a18:	48 8d 05 c9 6d 00 00 	lea    rax,[rip+0x6dc9]        # 40a7e8 <_IO_stdin_used+0x7e8>
  403a1f:	48 89 c7             	mov    rdi,rax
  403a22:	e8 79 e6 ff ff       	call   4020a0 <puts@plt>
  403a27:	e9 43 03 00 00       	jmp    403d6f <GodSays+0x828>
  403a2c:	48 8d 05 dd 6d 00 00 	lea    rax,[rip+0x6ddd]        # 40a810 <_IO_stdin_used+0x810>
  403a33:	48 89 c7             	mov    rdi,rax
  403a36:	e8 65 e6 ff ff       	call   4020a0 <puts@plt>
  403a3b:	e9 2f 03 00 00       	jmp    403d6f <GodSays+0x828>
  403a40:	48 8d 05 e9 6d 00 00 	lea    rax,[rip+0x6de9]        # 40a830 <_IO_stdin_used+0x830>
  403a47:	48 89 c7             	mov    rdi,rax
  403a4a:	e8 51 e6 ff ff       	call   4020a0 <puts@plt>
  403a4f:	e9 1b 03 00 00       	jmp    403d6f <GodSays+0x828>
  403a54:	48 8d 05 f5 6d 00 00 	lea    rax,[rip+0x6df5]        # 40a850 <_IO_stdin_used+0x850>
  403a5b:	48 89 c7             	mov    rdi,rax
  403a5e:	e8 3d e6 ff ff       	call   4020a0 <puts@plt>
  403a63:	e9 07 03 00 00       	jmp    403d6f <GodSays+0x828>
  403a68:	48 8d 05 00 6e 00 00 	lea    rax,[rip+0x6e00]        # 40a86f <_IO_stdin_used+0x86f>
  403a6f:	48 89 c7             	mov    rdi,rax
  403a72:	e8 29 e6 ff ff       	call   4020a0 <puts@plt>
  403a77:	e9 f3 02 00 00       	jmp    403d6f <GodSays+0x828>
  403a7c:	48 8d 05 0d 6e 00 00 	lea    rax,[rip+0x6e0d]        # 40a890 <_IO_stdin_used+0x890>
  403a83:	48 89 c7             	mov    rdi,rax
  403a86:	e8 15 e6 ff ff       	call   4020a0 <puts@plt>
  403a8b:	e9 df 02 00 00       	jmp    403d6f <GodSays+0x828>
  403a90:	48 8d 05 21 6e 00 00 	lea    rax,[rip+0x6e21]        # 40a8b8 <_IO_stdin_used+0x8b8>
  403a97:	48 89 c7             	mov    rdi,rax
  403a9a:	e8 01 e6 ff ff       	call   4020a0 <puts@plt>
  403a9f:	e9 cb 02 00 00       	jmp    403d6f <GodSays+0x828>
  403aa4:	48 8d 05 2c 6e 00 00 	lea    rax,[rip+0x6e2c]        # 40a8d7 <_IO_stdin_used+0x8d7>
  403aab:	48 89 c7             	mov    rdi,rax
  403aae:	e8 ed e5 ff ff       	call   4020a0 <puts@plt>
  403ab3:	e9 b7 02 00 00       	jmp    403d6f <GodSays+0x828>
  403ab8:	48 8d 05 39 6e 00 00 	lea    rax,[rip+0x6e39]        # 40a8f8 <_IO_stdin_used+0x8f8>
  403abf:	48 89 c7             	mov    rdi,rax
  403ac2:	e8 d9 e5 ff ff       	call   4020a0 <puts@plt>
  403ac7:	e9 a3 02 00 00       	jmp    403d6f <GodSays+0x828>
  403acc:	48 8d 05 4d 6e 00 00 	lea    rax,[rip+0x6e4d]        # 40a920 <_IO_stdin_used+0x920>
  403ad3:	48 89 c7             	mov    rdi,rax
  403ad6:	e8 c5 e5 ff ff       	call   4020a0 <puts@plt>
  403adb:	e9 8f 02 00 00       	jmp    403d6f <GodSays+0x828>
  403ae0:	48 8d 05 59 6e 00 00 	lea    rax,[rip+0x6e59]        # 40a940 <_IO_stdin_used+0x940>
  403ae7:	48 89 c7             	mov    rdi,rax
  403aea:	e8 b1 e5 ff ff       	call   4020a0 <puts@plt>
  403aef:	e9 7b 02 00 00       	jmp    403d6f <GodSays+0x828>
  403af4:	48 8d 05 65 6e 00 00 	lea    rax,[rip+0x6e65]        # 40a960 <_IO_stdin_used+0x960>
  403afb:	48 89 c7             	mov    rdi,rax
  403afe:	e8 9d e5 ff ff       	call   4020a0 <puts@plt>
  403b03:	e9 67 02 00 00       	jmp    403d6f <GodSays+0x828>
  403b08:	48 8d 05 71 6e 00 00 	lea    rax,[rip+0x6e71]        # 40a980 <_IO_stdin_used+0x980>
  403b0f:	48 89 c7             	mov    rdi,rax
  403b12:	e8 89 e5 ff ff       	call   4020a0 <puts@plt>
  403b17:	e9 53 02 00 00       	jmp    403d6f <GodSays+0x828>
  403b1c:	48 8d 05 7d 6e 00 00 	lea    rax,[rip+0x6e7d]        # 40a9a0 <_IO_stdin_used+0x9a0>
  403b23:	48 89 c7             	mov    rdi,rax
  403b26:	e8 75 e5 ff ff       	call   4020a0 <puts@plt>
  403b2b:	e9 3f 02 00 00       	jmp    403d6f <GodSays+0x828>
  403b30:	48 8d 05 91 6e 00 00 	lea    rax,[rip+0x6e91]        # 40a9c8 <_IO_stdin_used+0x9c8>
  403b37:	48 89 c7             	mov    rdi,rax
  403b3a:	e8 61 e5 ff ff       	call   4020a0 <puts@plt>
  403b3f:	e9 2b 02 00 00       	jmp    403d6f <GodSays+0x828>
  403b44:	48 8d 05 a0 6e 00 00 	lea    rax,[rip+0x6ea0]        # 40a9eb <_IO_stdin_used+0x9eb>
  403b4b:	48 89 c7             	mov    rdi,rax
  403b4e:	e8 4d e5 ff ff       	call   4020a0 <puts@plt>
  403b53:	e9 17 02 00 00       	jmp    403d6f <GodSays+0x828>
  403b58:	48 8d 05 b1 6e 00 00 	lea    rax,[rip+0x6eb1]        # 40aa10 <_IO_stdin_used+0xa10>
  403b5f:	48 89 c7             	mov    rdi,rax
  403b62:	e8 39 e5 ff ff       	call   4020a0 <puts@plt>
  403b67:	e9 03 02 00 00       	jmp    403d6f <GodSays+0x828>
  403b6c:	48 8d 05 be 6e 00 00 	lea    rax,[rip+0x6ebe]        # 40aa31 <_IO_stdin_used+0xa31>
  403b73:	48 89 c7             	mov    rdi,rax
  403b76:	e8 25 e5 ff ff       	call   4020a0 <puts@plt>
  403b7b:	e9 ef 01 00 00       	jmp    403d6f <GodSays+0x828>
  403b80:	48 8d 05 c8 6e 00 00 	lea    rax,[rip+0x6ec8]        # 40aa4f <_IO_stdin_used+0xa4f>
  403b87:	48 89 c7             	mov    rdi,rax
  403b8a:	e8 11 e5 ff ff       	call   4020a0 <puts@plt>
  403b8f:	e9 db 01 00 00       	jmp    403d6f <GodSays+0x828>
  403b94:	48 8d 05 d5 6e 00 00 	lea    rax,[rip+0x6ed5]        # 40aa70 <_IO_stdin_used+0xa70>
  403b9b:	48 89 c7             	mov    rdi,rax
  403b9e:	e8 fd e4 ff ff       	call   4020a0 <puts@plt>
  403ba3:	e9 c7 01 00 00       	jmp    403d6f <GodSays+0x828>
  403ba8:	48 8d 05 e1 6e 00 00 	lea    rax,[rip+0x6ee1]        # 40aa90 <_IO_stdin_used+0xa90>
  403baf:	48 89 c7             	mov    rdi,rax
  403bb2:	e8 e9 e4 ff ff       	call   4020a0 <puts@plt>
  403bb7:	e9 b3 01 00 00       	jmp    403d6f <GodSays+0x828>
  403bbc:	48 8d 05 ed 6e 00 00 	lea    rax,[rip+0x6eed]        # 40aab0 <_IO_stdin_used+0xab0>
  403bc3:	48 89 c7             	mov    rdi,rax
  403bc6:	e8 d5 e4 ff ff       	call   4020a0 <puts@plt>
  403bcb:	e9 9f 01 00 00       	jmp    403d6f <GodSays+0x828>
  403bd0:	48 8d 05 f9 6e 00 00 	lea    rax,[rip+0x6ef9]        # 40aad0 <_IO_stdin_used+0xad0>
  403bd7:	48 89 c7             	mov    rdi,rax
  403bda:	e8 c1 e4 ff ff       	call   4020a0 <puts@plt>
  403bdf:	e9 8b 01 00 00       	jmp    403d6f <GodSays+0x828>
  403be4:	48 8d 05 05 6f 00 00 	lea    rax,[rip+0x6f05]        # 40aaf0 <_IO_stdin_used+0xaf0>
  403beb:	48 89 c7             	mov    rdi,rax
  403bee:	e8 ad e4 ff ff       	call   4020a0 <puts@plt>
  403bf3:	e9 77 01 00 00       	jmp    403d6f <GodSays+0x828>
  403bf8:	48 8d 05 19 6f 00 00 	lea    rax,[rip+0x6f19]        # 40ab18 <_IO_stdin_used+0xb18>
  403bff:	48 89 c7             	mov    rdi,rax
  403c02:	e8 99 e4 ff ff       	call   4020a0 <puts@plt>
  403c07:	e9 63 01 00 00       	jmp    403d6f <GodSays+0x828>
  403c0c:	48 8d 05 25 6f 00 00 	lea    rax,[rip+0x6f25]        # 40ab38 <_IO_stdin_used+0xb38>
  403c13:	48 89 c7             	mov    rdi,rax
  403c16:	e8 85 e4 ff ff       	call   4020a0 <puts@plt>
  403c1b:	e9 4f 01 00 00       	jmp    403d6f <GodSays+0x828>
  403c20:	48 8d 05 39 6f 00 00 	lea    rax,[rip+0x6f39]        # 40ab60 <_IO_stdin_used+0xb60>
  403c27:	48 89 c7             	mov    rdi,rax
  403c2a:	e8 71 e4 ff ff       	call   4020a0 <puts@plt>
  403c2f:	e9 3b 01 00 00       	jmp    403d6f <GodSays+0x828>
  403c34:	48 8d 05 45 6f 00 00 	lea    rax,[rip+0x6f45]        # 40ab80 <_IO_stdin_used+0xb80>
  403c3b:	48 89 c7             	mov    rdi,rax
  403c3e:	e8 5d e4 ff ff       	call   4020a0 <puts@plt>
  403c43:	e9 27 01 00 00       	jmp    403d6f <GodSays+0x828>
  403c48:	48 8d 05 59 6f 00 00 	lea    rax,[rip+0x6f59]        # 40aba8 <_IO_stdin_used+0xba8>
  403c4f:	48 89 c7             	mov    rdi,rax
  403c52:	e8 49 e4 ff ff       	call   4020a0 <puts@plt>
  403c57:	e9 13 01 00 00       	jmp    403d6f <GodSays+0x828>
  403c5c:	48 8d 05 65 6f 00 00 	lea    rax,[rip+0x6f65]        # 40abc8 <_IO_stdin_used+0xbc8>
  403c63:	48 89 c7             	mov    rdi,rax
  403c66:	e8 35 e4 ff ff       	call   4020a0 <puts@plt>
  403c6b:	e9 ff 00 00 00       	jmp    403d6f <GodSays+0x828>
  403c70:	48 8d 05 71 6f 00 00 	lea    rax,[rip+0x6f71]        # 40abe8 <_IO_stdin_used+0xbe8>
  403c77:	48 89 c7             	mov    rdi,rax
  403c7a:	e8 21 e4 ff ff       	call   4020a0 <puts@plt>
  403c7f:	e9 eb 00 00 00       	jmp    403d6f <GodSays+0x828>
  403c84:	48 8d 05 77 6f 00 00 	lea    rax,[rip+0x6f77]        # 40ac02 <_IO_stdin_used+0xc02>
  403c8b:	48 89 c7             	mov    rdi,rax
  403c8e:	e8 0d e4 ff ff       	call   4020a0 <puts@plt>
  403c93:	e9 d7 00 00 00       	jmp    403d6f <GodSays+0x828>
  403c98:	48 8d 05 7e 6f 00 00 	lea    rax,[rip+0x6f7e]        # 40ac1d <_IO_stdin_used+0xc1d>
  403c9f:	48 89 c7             	mov    rdi,rax
  403ca2:	e8 f9 e3 ff ff       	call   4020a0 <puts@plt>
  403ca7:	e9 c3 00 00 00       	jmp    403d6f <GodSays+0x828>
  403cac:	48 8d 05 8d 6f 00 00 	lea    rax,[rip+0x6f8d]        # 40ac40 <_IO_stdin_used+0xc40>
  403cb3:	48 89 c7             	mov    rdi,rax
  403cb6:	e8 e5 e3 ff ff       	call   4020a0 <puts@plt>
  403cbb:	e9 af 00 00 00       	jmp    403d6f <GodSays+0x828>
  403cc0:	48 8d 05 99 6f 00 00 	lea    rax,[rip+0x6f99]        # 40ac60 <_IO_stdin_used+0xc60>
  403cc7:	48 89 c7             	mov    rdi,rax
  403cca:	e8 d1 e3 ff ff       	call   4020a0 <puts@plt>
  403ccf:	e9 9b 00 00 00       	jmp    403d6f <GodSays+0x828>
  403cd4:	48 8d 05 a7 6f 00 00 	lea    rax,[rip+0x6fa7]        # 40ac82 <_IO_stdin_used+0xc82>
  403cdb:	48 89 c7             	mov    rdi,rax
  403cde:	e8 bd e3 ff ff       	call   4020a0 <puts@plt>
  403ce3:	e9 87 00 00 00       	jmp    403d6f <GodSays+0x828>
  403ce8:	48 8d 05 b1 6f 00 00 	lea    rax,[rip+0x6fb1]        # 40aca0 <_IO_stdin_used+0xca0>
  403cef:	48 89 c7             	mov    rdi,rax
  403cf2:	e8 a9 e3 ff ff       	call   4020a0 <puts@plt>
  403cf7:	eb 76                	jmp    403d6f <GodSays+0x828>
  403cf9:	48 8d 05 c2 6f 00 00 	lea    rax,[rip+0x6fc2]        # 40acc2 <_IO_stdin_used+0xcc2>
  403d00:	48 89 c7             	mov    rdi,rax
  403d03:	e8 98 e3 ff ff       	call   4020a0 <puts@plt>
  403d08:	eb 65                	jmp    403d6f <GodSays+0x828>
  403d0a:	48 8d 05 cf 6f 00 00 	lea    rax,[rip+0x6fcf]        # 40ace0 <_IO_stdin_used+0xce0>
  403d11:	48 89 c7             	mov    rdi,rax
  403d14:	e8 87 e3 ff ff       	call   4020a0 <puts@plt>
  403d19:	eb 54                	jmp    403d6f <GodSays+0x828>
  403d1b:	48 8d 05 de 6f 00 00 	lea    rax,[rip+0x6fde]        # 40ad00 <_IO_stdin_used+0xd00>
  403d22:	48 89 c7             	mov    rdi,rax
  403d25:	e8 76 e3 ff ff       	call   4020a0 <puts@plt>
  403d2a:	eb 43                	jmp    403d6f <GodSays+0x828>
  403d2c:	48 8d 05 f1 6f 00 00 	lea    rax,[rip+0x6ff1]        # 40ad24 <_IO_stdin_used+0xd24>
  403d33:	48 89 c7             	mov    rdi,rax
  403d36:	e8 65 e3 ff ff       	call   4020a0 <puts@plt>
  403d3b:	eb 32                	jmp    403d6f <GodSays+0x828>
  403d3d:	48 8d 05 fe 6f 00 00 	lea    rax,[rip+0x6ffe]        # 40ad42 <_IO_stdin_used+0xd42>
  403d44:	48 89 c7             	mov    rdi,rax
  403d47:	e8 54 e3 ff ff       	call   4020a0 <puts@plt>
  403d4c:	eb 21                	jmp    403d6f <GodSays+0x828>
  403d4e:	48 8d 05 08 70 00 00 	lea    rax,[rip+0x7008]        # 40ad5d <_IO_stdin_used+0xd5d>
  403d55:	48 89 c7             	mov    rdi,rax
  403d58:	e8 43 e3 ff ff       	call   4020a0 <puts@plt>
  403d5d:	eb 10                	jmp    403d6f <GodSays+0x828>
  403d5f:	48 8d 05 13 70 00 00 	lea    rax,[rip+0x7013]        # 40ad79 <_IO_stdin_used+0xd79>
  403d66:	48 89 c7             	mov    rdi,rax
  403d69:	e8 32 e3 ff ff       	call   4020a0 <puts@plt>
  403d6e:	90                   	nop
  403d6f:	90                   	nop
  403d70:	c9                   	leave
  403d71:	c3                   	ret

0000000000403d72 <parse_proc_status_kb>:
  403d72:	55                   	push   rbp
  403d73:	48 89 e5             	mov    rbp,rsp
  403d76:	48 81 ec 30 01 00 00 	sub    rsp,0x130
  403d7d:	48 89 bd d8 fe ff ff 	mov    QWORD PTR [rbp-0x128],rdi
  403d84:	48 8d 05 9c 62 00 00 	lea    rax,[rip+0x629c]        # 40a027 <_IO_stdin_used+0x27>
  403d8b:	48 89 c6             	mov    rsi,rax
  403d8e:	48 8d 05 8f 71 00 00 	lea    rax,[rip+0x718f]        # 40af24 <_IO_stdin_used+0xf24>
  403d95:	48 89 c7             	mov    rdi,rax
  403d98:	e8 93 e5 ff ff       	call   402330 <fopen@plt>
  403d9d:	48 89 45 f0          	mov    QWORD PTR [rbp-0x10],rax
  403da1:	48 83 7d f0 00       	cmp    QWORD PTR [rbp-0x10],0x0
  403da6:	0f 85 b2 00 00 00    	jne    403e5e <parse_proc_status_kb+0xec>
  403dac:	48 c7 c0 ff ff ff ff 	mov    rax,0xffffffffffffffff
  403db3:	e9 da 00 00 00       	jmp    403e92 <parse_proc_status_kb+0x120>
  403db8:	48 8b 85 d8 fe ff ff 	mov    rax,QWORD PTR [rbp-0x128]
  403dbf:	48 89 c7             	mov    rdi,rax
  403dc2:	e8 49 e3 ff ff       	call   402110 <strlen@plt>
  403dc7:	48 89 c2             	mov    rdx,rax
  403dca:	48 8b 8d d8 fe ff ff 	mov    rcx,QWORD PTR [rbp-0x128]
  403dd1:	48 8d 85 e0 fe ff ff 	lea    rax,[rbp-0x120]
  403dd8:	48 89 ce             	mov    rsi,rcx
  403ddb:	48 89 c7             	mov    rdi,rax
  403dde:	e8 7d e2 ff ff       	call   402060 <strncmp@plt>
  403de3:	85 c0                	test   eax,eax
  403de5:	75 77                	jne    403e5e <parse_proc_status_kb+0xec>
  403de7:	48 8d 85 e0 fe ff ff 	lea    rax,[rbp-0x120]
  403dee:	be 3a 00 00 00       	mov    esi,0x3a
  403df3:	48 89 c7             	mov    rdi,rax
  403df6:	e8 45 e3 ff ff       	call   402140 <strchr@plt>
  403dfb:	48 89 45 f8          	mov    QWORD PTR [rbp-0x8],rax
  403dff:	48 83 7d f8 00       	cmp    QWORD PTR [rbp-0x8],0x0
  403e04:	75 02                	jne    403e08 <parse_proc_status_kb+0x96>
  403e06:	eb 56                	jmp    403e5e <parse_proc_status_kb+0xec>
  403e08:	48 83 45 f8 01       	add    QWORD PTR [rbp-0x8],0x1
  403e0d:	eb 05                	jmp    403e14 <parse_proc_status_kb+0xa2>
  403e0f:	48 83 45 f8 01       	add    QWORD PTR [rbp-0x8],0x1
  403e14:	e8 d7 e5 ff ff       	call   4023f0 <__ctype_b_loc@plt>
  403e19:	48 8b 10             	mov    rdx,QWORD PTR [rax]
  403e1c:	48 8b 45 f8          	mov    rax,QWORD PTR [rbp-0x8]
  403e20:	0f b6 00             	movzx  eax,BYTE PTR [rax]
  403e23:	48 0f be c0          	movsx  rax,al
  403e27:	48 01 c0             	add    rax,rax
  403e2a:	48 01 d0             	add    rax,rdx
  403e2d:	0f b7 00             	movzx  eax,WORD PTR [rax]
  403e30:	0f b7 c0             	movzx  eax,ax
  403e33:	25 00 20 00 00       	and    eax,0x2000
  403e38:	85 c0                	test   eax,eax
  403e3a:	75 d3                	jne    403e0f <parse_proc_status_kb+0x9d>
  403e3c:	48 8b 45 f8          	mov    rax,QWORD PTR [rbp-0x8]
  403e40:	48 89 c7             	mov    rdi,rax
  403e43:	e8 c8 e3 ff ff       	call   402210 <atoll@plt>
  403e48:	48 89 45 e8          	mov    QWORD PTR [rbp-0x18],rax
  403e4c:	48 8b 45 f0          	mov    rax,QWORD PTR [rbp-0x10]
  403e50:	48 89 c7             	mov    rdi,rax
  403e53:	e8 88 e2 ff ff       	call   4020e0 <fclose@plt>
  403e58:	48 8b 45 e8          	mov    rax,QWORD PTR [rbp-0x18]
  403e5c:	eb 34                	jmp    403e92 <parse_proc_status_kb+0x120>
  403e5e:	48 8b 55 f0          	mov    rdx,QWORD PTR [rbp-0x10]
  403e62:	48 8d 85 e0 fe ff ff 	lea    rax,[rbp-0x120]
  403e69:	be 00 01 00 00       	mov    esi,0x100
  403e6e:	48 89 c7             	mov    rdi,rax
  403e71:	e8 7a e3 ff ff       	call   4021f0 <fgets@plt>
  403e76:	48 85 c0             	test   rax,rax
  403e79:	0f 85 39 ff ff ff    	jne    403db8 <parse_proc_status_kb+0x46>
  403e7f:	48 8b 45 f0          	mov    rax,QWORD PTR [rbp-0x10]
  403e83:	48 89 c7             	mov    rdi,rax
  403e86:	e8 55 e2 ff ff       	call   4020e0 <fclose@plt>
  403e8b:	48 c7 c0 ff ff ff ff 	mov    rax,0xffffffffffffffff
  403e92:	c9                   	leave
  403e93:	c3                   	ret

0000000000403e94 <parse_ammMemory_size>:
  403e94:	55                   	push   rbp
  403e95:	48 89 e5             	mov    rbp,rsp
  403e98:	48 c7 45 f8 00 00 00 	mov    QWORD PTR [rbp-0x8],0x0
  403e9f:	00 
  403ea0:	c7 45 f4 00 00 00 00 	mov    DWORD PTR [rbp-0xc],0x0
  403ea7:	eb 1d                	jmp    403ec6 <parse_ammMemory_size+0x32>
  403ea9:	8b 45 f4             	mov    eax,DWORD PTR [rbp-0xc]
  403eac:	48 98                	cdqe
  403eae:	48 8d 15 cb be 00 00 	lea    rdx,[rip+0xbecb]        # 40fd80 <bit_map>
  403eb5:	0f b6 04 10          	movzx  eax,BYTE PTR [rax+rdx*1]
  403eb9:	84 c0                	test   al,al
  403ebb:	74 05                	je     403ec2 <parse_ammMemory_size+0x2e>
  403ebd:	48 83 45 f8 01       	add    QWORD PTR [rbp-0x8],0x1
  403ec2:	83 45 f4 01          	add    DWORD PTR [rbp-0xc],0x1
  403ec6:	81 7d f4 ff ff 03 00 	cmp    DWORD PTR [rbp-0xc],0x3ffff
  403ecd:	7e da                	jle    403ea9 <parse_ammMemory_size+0x15>
  403ecf:	48 8b 45 f8          	mov    rax,QWORD PTR [rbp-0x8]
  403ed3:	48 c1 e0 02          	shl    rax,0x2
  403ed7:	5d                   	pop    rbp
  403ed8:	c3                   	ret

0000000000403ed9 <get_memdat_size>:
  403ed9:	55                   	push   rbp
  403eda:	48 89 e5             	mov    rbp,rsp
  403edd:	48 81 ec a0 02 00 00 	sub    rsp,0x2a0
  403ee4:	48 8d 85 60 fe ff ff 	lea    rax,[rbp-0x1a0]
  403eeb:	be 00 01 00 00       	mov    esi,0x100
  403ef0:	48 89 c7             	mov    rdi,rax
  403ef3:	e8 98 e2 ff ff       	call   402190 <getcwd@plt>
  403ef8:	48 8d 85 60 fd ff ff 	lea    rax,[rbp-0x2a0]
  403eff:	be 00 01 00 00       	mov    esi,0x100
  403f04:	48 89 c7             	mov    rdi,rax
  403f07:	e8 84 e2 ff ff       	call   402190 <getcwd@plt>
  403f0c:	48 8d 85 60 fe ff ff 	lea    rax,[rbp-0x1a0]
  403f13:	48 8d 15 b9 61 00 00 	lea    rdx,[rip+0x61b9]        # 40a0d3 <_IO_stdin_used+0xd3>
  403f1a:	48 89 d6             	mov    rsi,rdx
  403f1d:	48 89 c7             	mov    rdi,rax
  403f20:	e8 da f5 ff ff       	call   4034ff <cut_after_substr>
  403f25:	48 8d 85 60 fe ff ff 	lea    rax,[rbp-0x1a0]
  403f2c:	48 89 c7             	mov    rdi,rax
  403f2f:	e8 ec e1 ff ff       	call   402120 <chdir@plt>
  403f34:	48 8d 85 60 ff ff ff 	lea    rax,[rbp-0xa0]
  403f3b:	48 89 c6             	mov    rsi,rax
  403f3e:	48 8d 05 95 61 00 00 	lea    rax,[rip+0x6195]        # 40a0da <_IO_stdin_used+0xda>
  403f45:	48 89 c7             	mov    rdi,rax
  403f48:	e8 33 e3 ff ff       	call   402280 <stat@plt>
  403f4d:	85 c0                	test   eax,eax
  403f4f:	75 1d                	jne    403f6e <get_memdat_size+0x95>
  403f51:	48 8b 45 90          	mov    rax,QWORD PTR [rbp-0x70]
  403f55:	48 89 45 f8          	mov    QWORD PTR [rbp-0x8],rax
  403f59:	48 8d 85 60 fd ff ff 	lea    rax,[rbp-0x2a0]
  403f60:	48 89 c7             	mov    rdi,rax
  403f63:	e8 b8 e1 ff ff       	call   402120 <chdir@plt>
  403f68:	48 8b 45 f8          	mov    rax,QWORD PTR [rbp-0x8]
  403f6c:	eb 05                	jmp    403f73 <get_memdat_size+0x9a>
  403f6e:	b8 00 00 00 00       	mov    eax,0x0
  403f73:	c9                   	leave
  403f74:	c3                   	ret

0000000000403f75 <AmmIDE>:
  403f75:	55                   	push   rbp
  403f76:	48 89 e5             	mov    rbp,rsp
  403f79:	48 81 ec 40 03 00 00 	sub    rsp,0x340
  403f80:	89 bd cc fc ff ff    	mov    DWORD PTR [rbp-0x334],edi
  403f86:	48 8d 85 e0 fe ff ff 	lea    rax,[rbp-0x120]
  403f8d:	be 00 01 00 00       	mov    esi,0x100
  403f92:	48 89 c7             	mov    rdi,rax
  403f95:	e8 f6 e1 ff ff       	call   402190 <getcwd@plt>
  403f9a:	48 8d 85 e0 fd ff ff 	lea    rax,[rbp-0x220]
  403fa1:	be 00 01 00 00       	mov    esi,0x100
  403fa6:	48 89 c7             	mov    rdi,rax
  403fa9:	e8 e2 e1 ff ff       	call   402190 <getcwd@plt>
  403fae:	48 8d 85 e0 fd ff ff 	lea    rax,[rbp-0x220]
  403fb5:	48 8d 15 17 61 00 00 	lea    rdx,[rip+0x6117]        # 40a0d3 <_IO_stdin_used+0xd3>
  403fbc:	48 89 d6             	mov    rsi,rdx
  403fbf:	48 89 c7             	mov    rdi,rax
  403fc2:	e8 38 f5 ff ff       	call   4034ff <cut_after_substr>
  403fc7:	48 8d 85 e0 fd ff ff 	lea    rax,[rbp-0x220]
  403fce:	48 89 c7             	mov    rdi,rax
  403fd1:	e8 4a e1 ff ff       	call   402120 <chdir@plt>
  403fd6:	48 8d 05 59 6f 00 00 	lea    rax,[rip+0x6f59]        # 40af36 <_IO_stdin_used+0xf36>
  403fdd:	48 89 85 a0 fd ff ff 	mov    QWORD PTR [rbp-0x260],rax
  403fe4:	48 8d 05 51 6f 00 00 	lea    rax,[rip+0x6f51]        # 40af3c <_IO_stdin_used+0xf3c>
  403feb:	48 89 85 a8 fd ff ff 	mov    QWORD PTR [rbp-0x258],rax
  403ff2:	48 8d 05 48 6f 00 00 	lea    rax,[rip+0x6f48]        # 40af41 <_IO_stdin_used+0xf41>
  403ff9:	48 89 85 b0 fd ff ff 	mov    QWORD PTR [rbp-0x250],rax
  404000:	48 8d 05 3f 6f 00 00 	lea    rax,[rip+0x6f3f]        # 40af46 <_IO_stdin_used+0xf46>
  404007:	48 89 c7             	mov    rdi,rax
  40400a:	b8 00 00 00 00       	mov    eax,0x0
  40400f:	e8 3c e1 ff ff       	call   402150 <printf@plt>
  404014:	48 8b 15 95 a3 00 00 	mov    rdx,QWORD PTR [rip+0xa395]        # 40e3b0 <stdin@GLIBC_2.2.5>
  40401b:	48 8d 85 c0 fd ff ff 	lea    rax,[rbp-0x240]
  404022:	be 1e 00 00 00       	mov    esi,0x1e
  404027:	48 89 c7             	mov    rdi,rax
  40402a:	e8 c1 e1 ff ff       	call   4021f0 <fgets@plt>
  40402f:	48 8d 85 c0 fd ff ff 	lea    rax,[rbp-0x240]
  404036:	48 8d 15 2c 60 00 00 	lea    rdx,[rip+0x602c]        # 40a069 <_IO_stdin_used+0x69>
  40403d:	48 89 d6             	mov    rsi,rdx
  404040:	48 89 c7             	mov    rdi,rax
  404043:	e8 88 e1 ff ff       	call   4021d0 <strcspn@plt>
  404048:	c6 84 05 c0 fd ff ff 	mov    BYTE PTR [rbp+rax*1-0x240],0x0
  40404f:	00 
  404050:	48 8b 85 a0 fd ff ff 	mov    rax,QWORD PTR [rbp-0x260]
  404057:	48 8d 8d c0 fd ff ff 	lea    rcx,[rbp-0x240]
  40405e:	ba 05 00 00 00       	mov    edx,0x5
  404063:	48 89 ce             	mov    rsi,rcx
  404066:	48 89 c7             	mov    rdi,rax
  404069:	e8 f2 df ff ff       	call   402060 <strncmp@plt>
  40406e:	85 c0                	test   eax,eax
  404070:	0f 85 03 01 00 00    	jne    404179 <AmmIDE+0x204>
  404076:	48 8d 85 d0 fc ff ff 	lea    rax,[rbp-0x330]
  40407d:	48 8d 15 56 60 00 00 	lea    rdx,[rip+0x6056]        # 40a0da <_IO_stdin_used+0xda>
  404084:	48 89 d6             	mov    rsi,rdx
  404087:	48 89 c7             	mov    rdi,rax
  40408a:	b8 00 00 00 00       	mov    eax,0x0
  40408f:	e8 ec e2 ff ff       	call   402380 <sprintf@plt>
  404094:	48 8d 85 d0 fc ff ff 	lea    rax,[rbp-0x330]
  40409b:	48 8d 15 aa 6e 00 00 	lea    rdx,[rip+0x6eaa]        # 40af4c <_IO_stdin_used+0xf4c>
  4040a2:	48 89 d6             	mov    rsi,rdx
  4040a5:	48 89 c7             	mov    rdi,rax
  4040a8:	e8 83 e2 ff ff       	call   402330 <fopen@plt>
  4040ad:	48 89 45 e8          	mov    QWORD PTR [rbp-0x18],rax
  4040b1:	48 83 7d e8 00       	cmp    QWORD PTR [rbp-0x18],0x0
  4040b6:	75 22                	jne    4040da <AmmIDE+0x165>
  4040b8:	83 bd cc fc ff ff 02 	cmp    DWORD PTR [rbp-0x334],0x2
  4040bf:	75 0f                	jne    4040d0 <AmmIDE+0x15b>
  4040c1:	48 8d 05 87 6e 00 00 	lea    rax,[rip+0x6e87]        # 40af4f <_IO_stdin_used+0xf4f>
  4040c8:	48 89 c7             	mov    rdi,rax
  4040cb:	e8 d0 df ff ff       	call   4020a0 <puts@plt>
  4040d0:	b8 00 00 00 00       	mov    eax,0x0
  4040d5:	e9 17 02 00 00       	jmp    4042f1 <AmmIDE+0x37c>
  4040da:	48 8d 85 c0 fd ff ff 	lea    rax,[rbp-0x240]
  4040e1:	be 05 00 00 00       	mov    esi,0x5
  4040e6:	48 89 c7             	mov    rdi,rax
  4040e9:	e8 b8 f3 ff ff       	call   4034a6 <removen>
  4040ee:	48 8d 85 c0 fd ff ff 	lea    rax,[rbp-0x240]
  4040f5:	48 89 c7             	mov    rdi,rax
  4040f8:	e8 73 e2 ff ff       	call   402370 <atoi@plt>
  4040fd:	89 45 e4             	mov    DWORD PTR [rbp-0x1c],eax
  404100:	81 7d e4 00 01 00 00 	cmp    DWORD PTR [rbp-0x1c],0x100
  404107:	7f 06                	jg     40410f <AmmIDE+0x19a>
  404109:	83 7d e4 00          	cmp    DWORD PTR [rbp-0x1c],0x0
  40410d:	79 1d                	jns    40412c <AmmIDE+0x1b7>
  40410f:	83 bd cc fc ff ff 02 	cmp    DWORD PTR [rbp-0x334],0x2
  404116:	75 5b                	jne    404173 <AmmIDE+0x1fe>
  404118:	48 8d 05 40 6e 00 00 	lea    rax,[rip+0x6e40]        # 40af5f <_IO_stdin_used+0xf5f>
  40411f:	48 89 c7             	mov    rdi,rax
  404122:	e8 79 df ff ff       	call   4020a0 <puts@plt>
  404127:	e9 aa fe ff ff       	jmp    403fd6 <AmmIDE+0x61>
  40412c:	8b 45 e4             	mov    eax,DWORD PTR [rbp-0x1c]
  40412f:	88 45 e3             	mov    BYTE PTR [rbp-0x1d],al
  404132:	0f b6 45 e3          	movzx  eax,BYTE PTR [rbp-0x1d]
  404136:	48 8b 55 e8          	mov    rdx,QWORD PTR [rbp-0x18]
  40413a:	48 89 d6             	mov    rsi,rdx
  40413d:	89 c7                	mov    edi,eax
  40413f:	e8 7c e0 ff ff       	call   4021c0 <fputc@plt>
  404144:	0f b6 55 e3          	movzx  edx,BYTE PTR [rbp-0x1d]
  404148:	0f b6 45 e3          	movzx  eax,BYTE PTR [rbp-0x1d]
  40414c:	89 c6                	mov    esi,eax
  40414e:	48 8d 05 2b 6e 00 00 	lea    rax,[rip+0x6e2b]        # 40af80 <_IO_stdin_used+0xf80>
  404155:	48 89 c7             	mov    rdi,rax
  404158:	b8 00 00 00 00       	mov    eax,0x0
  40415d:	e8 ee df ff ff       	call   402150 <printf@plt>
  404162:	48 8b 45 e8          	mov    rax,QWORD PTR [rbp-0x18]
  404166:	48 89 c7             	mov    rdi,rax
  404169:	e8 72 df ff ff       	call   4020e0 <fclose@plt>
  40416e:	e9 63 fe ff ff       	jmp    403fd6 <AmmIDE+0x61>
  404173:	90                   	nop
  404174:	e9 5d fe ff ff       	jmp    403fd6 <AmmIDE+0x61>
  404179:	48 8b 85 a8 fd ff ff 	mov    rax,QWORD PTR [rbp-0x258]
  404180:	48 8d 8d c0 fd ff ff 	lea    rcx,[rbp-0x240]
  404187:	ba 04 00 00 00       	mov    edx,0x4
  40418c:	48 89 ce             	mov    rsi,rcx
  40418f:	48 89 c7             	mov    rdi,rax
  404192:	e8 c9 de ff ff       	call   402060 <strncmp@plt>
  404197:	85 c0                	test   eax,eax
  404199:	0f 85 c0 00 00 00    	jne    40425f <AmmIDE+0x2ea>
  40419f:	48 8d 85 d0 fc ff ff 	lea    rax,[rbp-0x330]
  4041a6:	48 8d 15 2d 5f 00 00 	lea    rdx,[rip+0x5f2d]        # 40a0da <_IO_stdin_used+0xda>
  4041ad:	48 89 d6             	mov    rsi,rdx
  4041b0:	48 89 c7             	mov    rdi,rax
  4041b3:	b8 00 00 00 00       	mov    eax,0x0
  4041b8:	e8 c3 e1 ff ff       	call   402380 <sprintf@plt>
  4041bd:	48 8d 85 d0 fc ff ff 	lea    rax,[rbp-0x330]
  4041c4:	48 8d 15 1f 5f 00 00 	lea    rdx,[rip+0x5f1f]        # 40a0ea <_IO_stdin_used+0xea>
  4041cb:	48 89 d6             	mov    rsi,rdx
  4041ce:	48 89 c7             	mov    rdi,rax
  4041d1:	e8 5a e1 ff ff       	call   402330 <fopen@plt>
  4041d6:	48 89 45 f8          	mov    QWORD PTR [rbp-0x8],rax
  4041da:	48 83 7d f8 00       	cmp    QWORD PTR [rbp-0x8],0x0
  4041df:	75 22                	jne    404203 <AmmIDE+0x28e>
  4041e1:	83 bd cc fc ff ff 02 	cmp    DWORD PTR [rbp-0x334],0x2
  4041e8:	75 0f                	jne    4041f9 <AmmIDE+0x284>
  4041ea:	48 8d 05 5e 6d 00 00 	lea    rax,[rip+0x6d5e]        # 40af4f <_IO_stdin_used+0xf4f>
  4041f1:	48 89 c7             	mov    rdi,rax
  4041f4:	e8 a7 de ff ff       	call   4020a0 <puts@plt>
  4041f9:	b8 00 00 00 00       	mov    eax,0x0
  4041fe:	e9 ee 00 00 00       	jmp    4042f1 <AmmIDE+0x37c>
  404203:	48 8b 45 f8          	mov    rax,QWORD PTR [rbp-0x8]
  404207:	ba 02 00 00 00       	mov    edx,0x2
  40420c:	be 00 00 00 00       	mov    esi,0x0
  404211:	48 89 c7             	mov    rdi,rax
  404214:	e8 e7 e0 ff ff       	call   402300 <fseek@plt>
  404219:	48 8b 45 f8          	mov    rax,QWORD PTR [rbp-0x8]
  40421d:	48 89 c7             	mov    rdi,rax
  404220:	e8 4b e0 ff ff       	call   402270 <ftell@plt>
  404225:	48 89 45 f0          	mov    QWORD PTR [rbp-0x10],rax
  404229:	48 8b 45 f8          	mov    rax,QWORD PTR [rbp-0x8]
  40422d:	48 89 c7             	mov    rdi,rax
  404230:	e8 ab de ff ff       	call   4020e0 <fclose@plt>
  404235:	48 83 7d f0 00       	cmp    QWORD PTR [rbp-0x10],0x0
  40423a:	0f 8e 96 fd ff ff    	jle    403fd6 <AmmIDE+0x61>
  404240:	48 8b 45 f0          	mov    rax,QWORD PTR [rbp-0x10]
  404244:	48 8d 50 ff          	lea    rdx,[rax-0x1]
  404248:	48 8d 85 d0 fc ff ff 	lea    rax,[rbp-0x330]
  40424f:	48 89 d6             	mov    rsi,rdx
  404252:	48 89 c7             	mov    rdi,rax
  404255:	e8 56 e0 ff ff       	call   4022b0 <truncate@plt>
  40425a:	e9 77 fd ff ff       	jmp    403fd6 <AmmIDE+0x61>
  40425f:	48 8b 85 b0 fd ff ff 	mov    rax,QWORD PTR [rbp-0x250]
  404266:	48 8d 8d c0 fd ff ff 	lea    rcx,[rbp-0x240]
  40426d:	ba 04 00 00 00       	mov    edx,0x4
  404272:	48 89 ce             	mov    rsi,rcx
  404275:	48 89 c7             	mov    rdi,rax
  404278:	e8 e3 dd ff ff       	call   402060 <strncmp@plt>
  40427d:	85 c0                	test   eax,eax
  40427f:	75 12                	jne    404293 <AmmIDE+0x31e>
  404281:	8b 85 cc fc ff ff    	mov    eax,DWORD PTR [rbp-0x334]
  404287:	89 c7                	mov    edi,eax
  404289:	e8 11 f1 ff ff       	call   40339f <diskread>
  40428e:	e9 43 fd ff ff       	jmp    403fd6 <AmmIDE+0x61>
  404293:	48 8d 85 c0 fd ff ff 	lea    rax,[rbp-0x240]
  40429a:	48 89 c6             	mov    rsi,rax
  40429d:	48 8d 05 03 6d 00 00 	lea    rax,[rip+0x6d03]        # 40afa7 <_IO_stdin_used+0xfa7>
  4042a4:	48 89 c7             	mov    rdi,rax
  4042a7:	e8 74 df ff ff       	call   402220 <strcmp@plt>
  4042ac:	85 c0                	test   eax,eax
  4042ae:	75 20                	jne    4042d0 <AmmIDE+0x35b>
  4042b0:	48 8d 85 e0 fe ff ff 	lea    rax,[rbp-0x120]
  4042b7:	48 89 c7             	mov    rdi,rax
  4042ba:	e8 61 de ff ff       	call   402120 <chdir@plt>
  4042bf:	bf 0a 00 00 00       	mov    edi,0xa
  4042c4:	e8 67 dd ff ff       	call   402030 <putchar@plt>
  4042c9:	b8 01 00 00 00       	mov    eax,0x1
  4042ce:	eb 21                	jmp    4042f1 <AmmIDE+0x37c>
  4042d0:	83 bd cc fc ff ff 02 	cmp    DWORD PTR [rbp-0x334],0x2
  4042d7:	0f 85 f9 fc ff ff    	jne    403fd6 <AmmIDE+0x61>
  4042dd:	48 8d 05 c8 6c 00 00 	lea    rax,[rip+0x6cc8]        # 40afac <_IO_stdin_used+0xfac>
  4042e4:	48 89 c7             	mov    rdi,rax
  4042e7:	e8 b4 dd ff ff       	call   4020a0 <puts@plt>
  4042ec:	e9 e5 fc ff ff       	jmp    403fd6 <AmmIDE+0x61>
  4042f1:	c9                   	leave
  4042f2:	c3                   	ret

00000000004042f3 <neofetch>:
  4042f3:	55                   	push   rbp
  4042f4:	48 89 e5             	mov    rbp,rsp
  4042f7:	48 81 ec b0 02 00 00 	sub    rsp,0x2b0
  4042fe:	48 8d 85 50 fe ff ff 	lea    rax,[rbp-0x1b0]
  404305:	be 00 01 00 00       	mov    esi,0x100
  40430a:	48 89 c7             	mov    rdi,rax
  40430d:	e8 7e de ff ff       	call   402190 <getcwd@plt>
  404312:	48 8d 85 50 fd ff ff 	lea    rax,[rbp-0x2b0]
  404319:	be 00 01 00 00       	mov    esi,0x100
  40431e:	48 89 c7             	mov    rdi,rax
  404321:	e8 6a de ff ff       	call   402190 <getcwd@plt>
  404326:	48 8d 85 50 fe ff ff 	lea    rax,[rbp-0x1b0]
  40432d:	48 8d 15 9f 5d 00 00 	lea    rdx,[rip+0x5d9f]        # 40a0d3 <_IO_stdin_used+0xd3>
  404334:	48 89 d6             	mov    rsi,rdx
  404337:	48 89 c7             	mov    rdi,rax
  40433a:	e8 c0 f1 ff ff       	call   4034ff <cut_after_substr>
  40433f:	48 8d 85 50 fe ff ff 	lea    rax,[rbp-0x1b0]
  404346:	48 89 c7             	mov    rdi,rax
  404349:	e8 d2 dd ff ff       	call   402120 <chdir@plt>
  40434e:	48 8d 05 95 5d 00 00 	lea    rax,[rip+0x5d95]        # 40a0ea <_IO_stdin_used+0xea>
  404355:	48 89 c6             	mov    rsi,rax
  404358:	48 8d 05 67 6c 00 00 	lea    rax,[rip+0x6c67]        # 40afc6 <_IO_stdin_used+0xfc6>
  40435f:	48 89 c7             	mov    rdi,rax
  404362:	e8 c9 df ff ff       	call   402330 <fopen@plt>
  404367:	48 89 45 f8          	mov    QWORD PTR [rbp-0x8],rax
  40436b:	48 83 7d f8 00       	cmp    QWORD PTR [rbp-0x8],0x0
  404370:	75 19                	jne    40438b <neofetch+0x98>
  404372:	48 8d 05 59 6c 00 00 	lea    rax,[rip+0x6c59]        # 40afd2 <_IO_stdin_used+0xfd2>
  404379:	48 89 c7             	mov    rdi,rax
  40437c:	e8 bf df ff ff       	call   402340 <perror@plt>
  404381:	b8 01 00 00 00       	mov    eax,0x1
  404386:	e9 45 01 00 00       	jmp    4044d0 <neofetch+0x1dd>
  40438b:	48 8b 45 f8          	mov    rax,QWORD PTR [rbp-0x8]
  40438f:	ba 02 00 00 00       	mov    edx,0x2
  404394:	be 00 00 00 00       	mov    esi,0x0
  404399:	48 89 c7             	mov    rdi,rax
  40439c:	e8 5f df ff ff       	call   402300 <fseek@plt>
  4043a1:	48 8b 45 f8          	mov    rax,QWORD PTR [rbp-0x8]
  4043a5:	48 89 c7             	mov    rdi,rax
  4043a8:	e8 c3 de ff ff       	call   402270 <ftell@plt>
  4043ad:	48 89 45 f0          	mov    QWORD PTR [rbp-0x10],rax
  4043b1:	b8 00 00 00 00       	mov    eax,0x0
  4043b6:	e8 1e fb ff ff       	call   403ed9 <get_memdat_size>
  4043bb:	66 89 45 ee          	mov    WORD PTR [rbp-0x12],ax
  4043bf:	48 8d 05 12 6c 00 00 	lea    rax,[rip+0x6c12]        # 40afd8 <_IO_stdin_used+0xfd8>
  4043c6:	48 89 c7             	mov    rdi,rax
  4043c9:	e8 d2 dc ff ff       	call   4020a0 <puts@plt>
  4043ce:	48 8d 05 23 6c 00 00 	lea    rax,[rip+0x6c23]        # 40aff8 <_IO_stdin_used+0xff8>
  4043d5:	48 89 c7             	mov    rdi,rax
  4043d8:	e8 c3 dc ff ff       	call   4020a0 <puts@plt>
  4043dd:	48 8d 05 54 6c 00 00 	lea    rax,[rip+0x6c54]        # 40b038 <_IO_stdin_used+0x1038>
  4043e4:	48 89 c7             	mov    rdi,rax
  4043e7:	e8 b4 dc ff ff       	call   4020a0 <puts@plt>
  4043ec:	48 8d 05 8d 6c 00 00 	lea    rax,[rip+0x6c8d]        # 40b080 <_IO_stdin_used+0x1080>
  4043f3:	48 89 c7             	mov    rdi,rax
  4043f6:	e8 a5 dc ff ff       	call   4020a0 <puts@plt>
  4043fb:	48 8d 05 b6 6c 00 00 	lea    rax,[rip+0x6cb6]        # 40b0b8 <_IO_stdin_used+0x10b8>
  404402:	48 89 c7             	mov    rdi,rax
  404405:	e8 96 dc ff ff       	call   4020a0 <puts@plt>
  40440a:	48 8b 45 f0          	mov    rax,QWORD PTR [rbp-0x10]
  40440e:	48 8d 90 ff 03 00 00 	lea    rdx,[rax+0x3ff]
  404415:	48 85 c0             	test   rax,rax
  404418:	48 0f 48 c2          	cmovs  rax,rdx
  40441c:	48 c1 f8 0a          	sar    rax,0xa
  404420:	48 89 c6             	mov    rsi,rax
  404423:	48 8d 05 ce 6c 00 00 	lea    rax,[rip+0x6cce]        # 40b0f8 <_IO_stdin_used+0x10f8>
  40442a:	48 89 c7             	mov    rdi,rax
  40442d:	b8 00 00 00 00       	mov    eax,0x0
  404432:	e8 19 dd ff ff       	call   402150 <printf@plt>
  404437:	48 8d 05 02 6d 00 00 	lea    rax,[rip+0x6d02]        # 40b140 <_IO_stdin_used+0x1140>
  40443e:	48 89 c7             	mov    rdi,rax
  404441:	e8 5a dc ff ff       	call   4020a0 <puts@plt>
  404446:	b8 00 00 00 00       	mov    eax,0x0
  40444b:	e8 44 fa ff ff       	call   403e94 <parse_ammMemory_size>
  404450:	ba 00 00 10 00       	mov    edx,0x100000
  404455:	48 89 c6             	mov    rsi,rax
  404458:	48 8d 05 21 6d 00 00 	lea    rax,[rip+0x6d21]        # 40b180 <_IO_stdin_used+0x1180>
  40445f:	48 89 c7             	mov    rdi,rax
  404462:	b8 00 00 00 00       	mov    eax,0x0
  404467:	e8 e4 dc ff ff       	call   402150 <printf@plt>
  40446c:	48 8d 05 45 6d 00 00 	lea    rax,[rip+0x6d45]        # 40b1b8 <_IO_stdin_used+0x11b8>
  404473:	48 89 c7             	mov    rdi,rax
  404476:	e8 25 dc ff ff       	call   4020a0 <puts@plt>
  40447b:	66 81 7d ee e5 0f    	cmp    WORD PTR [rbp-0x12],0xfe5
  404481:	7e 09                	jle    40448c <neofetch+0x199>
  404483:	48 8d 05 6a 6d 00 00 	lea    rax,[rip+0x6d6a]        # 40b1f4 <_IO_stdin_used+0x11f4>
  40448a:	eb 07                	jmp    404493 <neofetch+0x1a0>
  40448c:	48 8d 05 6e 6d 00 00 	lea    rax,[rip+0x6d6e]        # 40b201 <_IO_stdin_used+0x1201>
  404493:	0f bf 4d ee          	movsx  ecx,WORD PTR [rbp-0x12]
  404497:	48 89 c2             	mov    rdx,rax
  40449a:	89 ce                	mov    esi,ecx
  40449c:	48 8d 05 65 6d 00 00 	lea    rax,[rip+0x6d65]        # 40b208 <_IO_stdin_used+0x1208>
  4044a3:	48 89 c7             	mov    rdi,rax
  4044a6:	b8 00 00 00 00       	mov    eax,0x0
  4044ab:	e8 a0 dc ff ff       	call   402150 <printf@plt>
  4044b0:	48 8b 45 f8          	mov    rax,QWORD PTR [rbp-0x8]
  4044b4:	48 89 c7             	mov    rdi,rax
  4044b7:	e8 24 dc ff ff       	call   4020e0 <fclose@plt>
  4044bc:	48 8d 85 50 fd ff ff 	lea    rax,[rbp-0x2b0]
  4044c3:	48 89 c7             	mov    rdi,rax
  4044c6:	e8 55 dc ff ff       	call   402120 <chdir@plt>
  4044cb:	b8 01 00 00 00       	mov    eax,0x1
  4044d0:	c9                   	leave
  4044d1:	c3                   	ret

00000000004044d2 <KERNEL_PANIC>:
  4044d2:	55                   	push   rbp
  4044d3:	48 89 e5             	mov    rbp,rsp
  4044d6:	48 8d 05 5b 6d 00 00 	lea    rax,[rip+0x6d5b]        # 40b238 <_IO_stdin_used+0x1238>
  4044dd:	48 89 c7             	mov    rdi,rax
  4044e0:	e8 bb db ff ff       	call   4020a0 <puts@plt>
  4044e5:	48 8d 05 7c 6d 00 00 	lea    rax,[rip+0x6d7c]        # 40b268 <_IO_stdin_used+0x1268>
  4044ec:	48 89 c7             	mov    rdi,rax
  4044ef:	e8 ac db ff ff       	call   4020a0 <puts@plt>
  4044f4:	48 8d 05 95 6d 00 00 	lea    rax,[rip+0x6d95]        # 40b290 <_IO_stdin_used+0x1290>
  4044fb:	48 89 c7             	mov    rdi,rax
  4044fe:	e8 9d db ff ff       	call   4020a0 <puts@plt>
  404503:	48 8d 05 ae 6d 00 00 	lea    rax,[rip+0x6dae]        # 40b2b8 <_IO_stdin_used+0x12b8>
  40450a:	48 89 c7             	mov    rdi,rax
  40450d:	e8 8e db ff ff       	call   4020a0 <puts@plt>
  404512:	48 8d 05 c7 6d 00 00 	lea    rax,[rip+0x6dc7]        # 40b2e0 <_IO_stdin_used+0x12e0>
  404519:	48 89 c7             	mov    rdi,rax
  40451c:	e8 7f db ff ff       	call   4020a0 <puts@plt>
  404521:	48 8d 05 e0 6d 00 00 	lea    rax,[rip+0x6de0]        # 40b308 <_IO_stdin_used+0x1308>
  404528:	48 89 c7             	mov    rdi,rax
  40452b:	e8 70 db ff ff       	call   4020a0 <puts@plt>
  404530:	48 8d 05 f9 6d 00 00 	lea    rax,[rip+0x6df9]        # 40b330 <_IO_stdin_used+0x1330>
  404537:	48 89 c7             	mov    rdi,rax
  40453a:	e8 61 db ff ff       	call   4020a0 <puts@plt>
  40453f:	48 8d 05 12 6e 00 00 	lea    rax,[rip+0x6e12]        # 40b358 <_IO_stdin_used+0x1358>
  404546:	48 89 c7             	mov    rdi,rax
  404549:	e8 52 db ff ff       	call   4020a0 <puts@plt>
  40454e:	48 8d 05 13 6d 00 00 	lea    rax,[rip+0x6d13]        # 40b268 <_IO_stdin_used+0x1268>
  404555:	48 89 c7             	mov    rdi,rax
  404558:	e8 43 db ff ff       	call   4020a0 <puts@plt>
  40455d:	48 8d 05 1c 6e 00 00 	lea    rax,[rip+0x6e1c]        # 40b380 <_IO_stdin_used+0x1380>
  404564:	48 89 c7             	mov    rdi,rax
  404567:	e8 34 db ff ff       	call   4020a0 <puts@plt>
  40456c:	48 8b 05 2d 9e 00 00 	mov    rax,QWORD PTR [rip+0x9e2d]        # 40e3a0 <stdout@GLIBC_2.2.5>
  404573:	48 89 c7             	mov    rdi,rax
  404576:	e8 65 dd ff ff       	call   4022e0 <fflush@plt>
  40457b:	bf 07 00 00 00       	mov    edi,0x7
  404580:	e8 0b de ff ff       	call   402390 <exit@plt>

0000000000404585 <sigint_handler>:
  404585:	55                   	push   rbp
  404586:	48 89 e5             	mov    rbp,rsp
  404589:	48 83 ec 10          	sub    rsp,0x10
  40458d:	89 7d fc             	mov    DWORD PTR [rbp-0x4],edi
  404590:	48 8d 05 19 6e 00 00 	lea    rax,[rip+0x6e19]        # 40b3b0 <_IO_stdin_used+0x13b0>
  404597:	48 89 c7             	mov    rdi,rax
  40459a:	e8 01 db ff ff       	call   4020a0 <puts@plt>
  40459f:	90                   	nop
  4045a0:	c9                   	leave
  4045a1:	c3                   	ret

00000000004045a2 <sigsegv_handler>:
  4045a2:	55                   	push   rbp
  4045a3:	48 89 e5             	mov    rbp,rsp
  4045a6:	48 83 ec 10          	sub    rsp,0x10
  4045aa:	89 7d fc             	mov    DWORD PTR [rbp-0x4],edi
  4045ad:	b8 00 00 00 00       	mov    eax,0x0
  4045b2:	e8 1b ff ff ff       	call   4044d2 <KERNEL_PANIC>
  4045b7:	90                   	nop
  4045b8:	c9                   	leave
  4045b9:	c3                   	ret

00000000004045ba <replace>:
  4045ba:	55                   	push   rbp
  4045bb:	48 89 e5             	mov    rbp,rsp
  4045be:	48 89 7d e8          	mov    QWORD PTR [rbp-0x18],rdi
  4045c2:	89 f1                	mov    ecx,esi
  4045c4:	89 d0                	mov    eax,edx
  4045c6:	89 ca                	mov    edx,ecx
  4045c8:	88 55 e4             	mov    BYTE PTR [rbp-0x1c],dl
  4045cb:	88 45 e0             	mov    BYTE PTR [rbp-0x20],al
  4045ce:	c7 45 fc 00 00 00 00 	mov    DWORD PTR [rbp-0x4],0x0
  4045d5:	eb 2c                	jmp    404603 <replace+0x49>
  4045d7:	8b 45 fc             	mov    eax,DWORD PTR [rbp-0x4]
  4045da:	48 63 d0             	movsxd rdx,eax
  4045dd:	48 8b 45 e8          	mov    rax,QWORD PTR [rbp-0x18]
  4045e1:	48 01 d0             	add    rax,rdx
  4045e4:	0f b6 00             	movzx  eax,BYTE PTR [rax]
  4045e7:	38 45 e4             	cmp    BYTE PTR [rbp-0x1c],al
  4045ea:	75 13                	jne    4045ff <replace+0x45>
  4045ec:	8b 45 fc             	mov    eax,DWORD PTR [rbp-0x4]
  4045ef:	48 63 d0             	movsxd rdx,eax
  4045f2:	48 8b 45 e8          	mov    rax,QWORD PTR [rbp-0x18]
  4045f6:	48 01 c2             	add    rdx,rax
  4045f9:	0f b6 45 e0          	movzx  eax,BYTE PTR [rbp-0x20]
  4045fd:	88 02                	mov    BYTE PTR [rdx],al
  4045ff:	83 45 fc 01          	add    DWORD PTR [rbp-0x4],0x1
  404603:	8b 45 fc             	mov    eax,DWORD PTR [rbp-0x4]
  404606:	48 63 d0             	movsxd rdx,eax
  404609:	48 8b 45 e8          	mov    rax,QWORD PTR [rbp-0x18]
  40460d:	48 01 d0             	add    rax,rdx
  404610:	0f b6 00             	movzx  eax,BYTE PTR [rax]
  404613:	84 c0                	test   al,al
  404615:	75 c0                	jne    4045d7 <replace+0x1d>
  404617:	90                   	nop
  404618:	5d                   	pop    rbp
  404619:	c3                   	ret

000000000040461a <catstr>:
  40461a:	55                   	push   rbp
  40461b:	48 89 e5             	mov    rbp,rsp
  40461e:	48 83 ec 30          	sub    rsp,0x30
  404622:	48 89 7d d8          	mov    QWORD PTR [rbp-0x28],rdi
  404626:	48 89 75 d0          	mov    QWORD PTR [rbp-0x30],rsi
  40462a:	c7 45 fc 00 00 00 00 	mov    DWORD PTR [rbp-0x4],0x0
  404631:	c7 45 f8 00 00 00 00 	mov    DWORD PTR [rbp-0x8],0x0
  404638:	eb 04                	jmp    40463e <catstr+0x24>
  40463a:	83 45 fc 01          	add    DWORD PTR [rbp-0x4],0x1
  40463e:	8b 45 fc             	mov    eax,DWORD PTR [rbp-0x4]
  404641:	48 63 d0             	movsxd rdx,eax
  404644:	48 8b 45 d8          	mov    rax,QWORD PTR [rbp-0x28]
  404648:	48 01 d0             	add    rax,rdx
  40464b:	0f b6 00             	movzx  eax,BYTE PTR [rax]
  40464e:	84 c0                	test   al,al
  404650:	75 e8                	jne    40463a <catstr+0x20>
  404652:	eb 04                	jmp    404658 <catstr+0x3e>
  404654:	83 45 f8 01          	add    DWORD PTR [rbp-0x8],0x1
  404658:	8b 45 f8             	mov    eax,DWORD PTR [rbp-0x8]
  40465b:	48 63 d0             	movsxd rdx,eax
  40465e:	48 8b 45 d0          	mov    rax,QWORD PTR [rbp-0x30]
  404662:	48 01 d0             	add    rax,rdx
  404665:	0f b6 00             	movzx  eax,BYTE PTR [rax]
  404668:	84 c0                	test   al,al
  40466a:	75 e8                	jne    404654 <catstr+0x3a>
  40466c:	8b 55 fc             	mov    edx,DWORD PTR [rbp-0x4]
  40466f:	8b 45 f8             	mov    eax,DWORD PTR [rbp-0x8]
  404672:	01 d0                	add    eax,edx
  404674:	83 c0 01             	add    eax,0x1
  404677:	89 c7                	mov    edi,eax
  404679:	e8 f3 de ff ff       	call   402571 <amm_malloc>
  40467e:	48 89 45 e8          	mov    QWORD PTR [rbp-0x18],rax
  404682:	c7 45 f4 00 00 00 00 	mov    DWORD PTR [rbp-0xc],0x0
  404689:	eb 23                	jmp    4046ae <catstr+0x94>
  40468b:	8b 45 f4             	mov    eax,DWORD PTR [rbp-0xc]
  40468e:	48 63 d0             	movsxd rdx,eax
  404691:	48 8b 45 d8          	mov    rax,QWORD PTR [rbp-0x28]
  404695:	48 01 d0             	add    rax,rdx
  404698:	8b 55 f4             	mov    edx,DWORD PTR [rbp-0xc]
  40469b:	48 63 ca             	movsxd rcx,edx
  40469e:	48 8b 55 e8          	mov    rdx,QWORD PTR [rbp-0x18]
  4046a2:	48 01 ca             	add    rdx,rcx
  4046a5:	0f b6 00             	movzx  eax,BYTE PTR [rax]
  4046a8:	88 02                	mov    BYTE PTR [rdx],al
  4046aa:	83 45 f4 01          	add    DWORD PTR [rbp-0xc],0x1
  4046ae:	8b 45 f4             	mov    eax,DWORD PTR [rbp-0xc]
  4046b1:	3b 45 fc             	cmp    eax,DWORD PTR [rbp-0x4]
  4046b4:	7c d5                	jl     40468b <catstr+0x71>
  4046b6:	c7 45 f0 00 00 00 00 	mov    DWORD PTR [rbp-0x10],0x0
  4046bd:	eb 28                	jmp    4046e7 <catstr+0xcd>
  4046bf:	8b 45 f0             	mov    eax,DWORD PTR [rbp-0x10]
  4046c2:	48 63 d0             	movsxd rdx,eax
  4046c5:	48 8b 45 d0          	mov    rax,QWORD PTR [rbp-0x30]
  4046c9:	48 01 d0             	add    rax,rdx
  4046cc:	8b 4d fc             	mov    ecx,DWORD PTR [rbp-0x4]
  4046cf:	8b 55 f0             	mov    edx,DWORD PTR [rbp-0x10]
  4046d2:	01 ca                	add    edx,ecx
  4046d4:	48 63 ca             	movsxd rcx,edx
  4046d7:	48 8b 55 e8          	mov    rdx,QWORD PTR [rbp-0x18]
  4046db:	48 01 ca             	add    rdx,rcx
  4046de:	0f b6 00             	movzx  eax,BYTE PTR [rax]
  4046e1:	88 02                	mov    BYTE PTR [rdx],al
  4046e3:	83 45 f0 01          	add    DWORD PTR [rbp-0x10],0x1
  4046e7:	8b 45 f0             	mov    eax,DWORD PTR [rbp-0x10]
  4046ea:	3b 45 f8             	cmp    eax,DWORD PTR [rbp-0x8]
  4046ed:	7c d0                	jl     4046bf <catstr+0xa5>
  4046ef:	8b 55 fc             	mov    edx,DWORD PTR [rbp-0x4]
  4046f2:	8b 45 f8             	mov    eax,DWORD PTR [rbp-0x8]
  4046f5:	01 d0                	add    eax,edx
  4046f7:	48 63 d0             	movsxd rdx,eax
  4046fa:	48 8b 45 e8          	mov    rax,QWORD PTR [rbp-0x18]
  4046fe:	48 01 d0             	add    rax,rdx
  404701:	c6 00 00             	mov    BYTE PTR [rax],0x0
  404704:	48 8b 45 e8          	mov    rax,QWORD PTR [rbp-0x18]
  404708:	c9                   	leave
  404709:	c3                   	ret

000000000040470a <astrdup>:
  40470a:	55                   	push   rbp
  40470b:	48 89 e5             	mov    rbp,rsp
  40470e:	48 83 ec 20          	sub    rsp,0x20
  404712:	48 89 7d e8          	mov    QWORD PTR [rbp-0x18],rdi
  404716:	48 8b 45 e8          	mov    rax,QWORD PTR [rbp-0x18]
  40471a:	48 89 c7             	mov    rdi,rax
  40471d:	e8 ee d9 ff ff       	call   402110 <strlen@plt>
  404722:	89 45 f8             	mov    DWORD PTR [rbp-0x8],eax
  404725:	8b 45 f8             	mov    eax,DWORD PTR [rbp-0x8]
  404728:	83 c0 01             	add    eax,0x1
  40472b:	89 c7                	mov    edi,eax
  40472d:	e8 3f de ff ff       	call   402571 <amm_malloc>
  404732:	48 89 45 f0          	mov    QWORD PTR [rbp-0x10],rax
  404736:	c7 45 fc 00 00 00 00 	mov    DWORD PTR [rbp-0x4],0x0
  40473d:	eb 23                	jmp    404762 <astrdup+0x58>
  40473f:	8b 45 fc             	mov    eax,DWORD PTR [rbp-0x4]
  404742:	48 63 d0             	movsxd rdx,eax
  404745:	48 8b 45 e8          	mov    rax,QWORD PTR [rbp-0x18]
  404749:	48 01 d0             	add    rax,rdx
  40474c:	8b 55 fc             	mov    edx,DWORD PTR [rbp-0x4]
  40474f:	48 63 ca             	movsxd rcx,edx
  404752:	48 8b 55 f0          	mov    rdx,QWORD PTR [rbp-0x10]
  404756:	48 01 ca             	add    rdx,rcx
  404759:	0f b6 00             	movzx  eax,BYTE PTR [rax]
  40475c:	88 02                	mov    BYTE PTR [rdx],al
  40475e:	83 45 fc 01          	add    DWORD PTR [rbp-0x4],0x1
  404762:	8b 45 fc             	mov    eax,DWORD PTR [rbp-0x4]
  404765:	3b 45 f8             	cmp    eax,DWORD PTR [rbp-0x8]
  404768:	7c d5                	jl     40473f <astrdup+0x35>
  40476a:	8b 45 f8             	mov    eax,DWORD PTR [rbp-0x8]
  40476d:	48 63 d0             	movsxd rdx,eax
  404770:	48 8b 45 f0          	mov    rax,QWORD PTR [rbp-0x10]
  404774:	48 01 d0             	add    rax,rdx
  404777:	c6 00 00             	mov    BYTE PTR [rax],0x0
  40477a:	48 8b 45 f0          	mov    rax,QWORD PTR [rbp-0x10]
  40477e:	c9                   	leave
  40477f:	c3                   	ret

0000000000404780 <init_sys>:
  404780:	55                   	push   rbp
  404781:	48 89 e5             	mov    rbp,rsp
  404784:	48 83 ec 10          	sub    rsp,0x10
  404788:	e8 59 dd ff ff       	call   4024e6 <amm_init>
  40478d:	48 8d 05 0e fe ff ff 	lea    rax,[rip+0xfffffffffffffe0e]        # 4045a2 <sigsegv_handler>
  404794:	48 89 c6             	mov    rsi,rax
  404797:	bf 0b 00 00 00       	mov    edi,0xb
  40479c:	e8 af da ff ff       	call   402250 <signal@plt>
  4047a1:	48 8d 05 dd fd ff ff 	lea    rax,[rip+0xfffffffffffffddd]        # 404585 <sigint_handler>
  4047a8:	48 89 c6             	mov    rsi,rax
  4047ab:	bf 02 00 00 00       	mov    edi,0x2
  4047b0:	e8 9b da ff ff       	call   402250 <signal@plt>
  4047b5:	e8 16 d9 ff ff       	call   4020d0 <getpid@plt>
  4047ba:	89 05 e0 dd 10 00    	mov    DWORD PTR [rip+0x10dde0],eax        # 5125a0 <demons>
  4047c0:	8b 05 1a e6 10 00    	mov    eax,DWORD PTR [rip+0x10e61a]        # 512de0 <Ammdemon_count>
  4047c6:	66 89 05 d7 dd 10 00 	mov    WORD PTR [rip+0x10ddd7],ax        # 5125a4 <demons+0x4>
  4047cd:	c7 05 cf dd 10 00 4d 	mov    DWORD PTR [rip+0x10ddcf],0x4e49414d        # 5125a6 <demons+0x6>
  4047d4:	41 49 4e 
  4047d7:	c6 05 cc dd 10 00 00 	mov    BYTE PTR [rip+0x10ddcc],0x0        # 5125aa <demons+0xa>
  4047de:	48 b8 6f 70 65 6e 73 	movabs rax,0x6d412f736e65706f
  4047e5:	2f 41 6d 
  4047e8:	48 ba 6d 6b 65 72 6e 	movabs rdx,0x2e6c656e72656b6d
  4047ef:	65 6c 2e 
  4047f2:	48 89 05 d5 dd 10 00 	mov    QWORD PTR [rip+0x10ddd5],rax        # 5125ce <demons+0x2e>
  4047f9:	48 89 15 d6 dd 10 00 	mov    QWORD PTR [rip+0x10ddd6],rdx        # 5125d6 <demons+0x36>
  404800:	66 c7 05 d5 dd 10 00 	mov    WORD PTR [rip+0x10ddd5],0x63        # 5125de <demons+0x3e>
  404807:	63 00 
  404809:	48 b8 49 74 27 73 20 	movabs rax,0x6568742073277449
  404810:	74 68 65 
  404813:	48 ba 20 6d 61 69 6e 	movabs rdx,0x7270206e69616d20
  40481a:	20 70 72 
  40481d:	48 89 05 dc dd 10 00 	mov    QWORD PTR [rip+0x10dddc],rax        # 512600 <demons+0x60>
  404824:	48 89 15 dd dd 10 00 	mov    QWORD PTR [rip+0x10dddd],rdx        # 512608 <demons+0x68>
  40482b:	48 b8 70 72 6f 73 65 	movabs rax,0x69207365736f7270
  404832:	73 20 69 
  404835:	48 ba 6e 20 41 6d 6d 	movabs rdx,0x534f6d6d41206e
  40483c:	4f 53 00 
  40483f:	48 89 05 c8 dd 10 00 	mov    QWORD PTR [rip+0x10ddc8],rax        # 51260e <demons+0x6e>
  404846:	48 89 15 c9 dd 10 00 	mov    QWORD PTR [rip+0x10ddc9],rdx        # 512616 <demons+0x76>
  40484d:	8b 05 8d e5 10 00    	mov    eax,DWORD PTR [rip+0x10e58d]        # 512de0 <Ammdemon_count>
  404853:	83 c0 01             	add    eax,0x1
  404856:	89 05 84 e5 10 00    	mov    DWORD PTR [rip+0x10e584],eax        # 512de0 <Ammdemon_count>
  40485c:	c7 45 fc 01 00 00 00 	mov    DWORD PTR [rbp-0x4],0x1
  404863:	e9 a9 00 00 00       	jmp    404911 <init_sys+0x191>
  404868:	8b 45 fc             	mov    eax,DWORD PTR [rbp-0x4]
  40486b:	89 c1                	mov    ecx,eax
  40486d:	8b 45 fc             	mov    eax,DWORD PTR [rbp-0x4]
  404870:	48 63 d0             	movsxd rdx,eax
  404873:	48 89 d0             	mov    rax,rdx
  404876:	48 c1 e0 02          	shl    rax,0x2
  40487a:	48 01 d0             	add    rax,rdx
  40487d:	48 01 c0             	add    rax,rax
  404880:	48 01 d0             	add    rax,rdx
  404883:	48 c1 e0 04          	shl    rax,0x4
  404887:	48 89 c2             	mov    rdx,rax
  40488a:	48 8d 05 13 dd 10 00 	lea    rax,[rip+0x10dd13]        # 5125a4 <demons+0x4>
  404891:	66 89 0c 02          	mov    WORD PTR [rdx+rax*1],cx
  404895:	8b 45 fc             	mov    eax,DWORD PTR [rbp-0x4]
  404898:	48 63 d0             	movsxd rdx,eax
  40489b:	48 89 d0             	mov    rax,rdx
  40489e:	48 c1 e0 02          	shl    rax,0x2
  4048a2:	48 01 d0             	add    rax,rdx
  4048a5:	48 01 c0             	add    rax,rax
  4048a8:	48 01 d0             	add    rax,rdx
  4048ab:	48 c1 e0 04          	shl    rax,0x4
  4048af:	48 89 c2             	mov    rdx,rax
  4048b2:	48 8d 05 ed dc 10 00 	lea    rax,[rip+0x10dced]        # 5125a6 <demons+0x6>
  4048b9:	c6 04 02 00          	mov    BYTE PTR [rdx+rax*1],0x0
  4048bd:	8b 45 fc             	mov    eax,DWORD PTR [rbp-0x4]
  4048c0:	48 63 d0             	movsxd rdx,eax
  4048c3:	48 89 d0             	mov    rax,rdx
  4048c6:	48 c1 e0 02          	shl    rax,0x2
  4048ca:	48 01 d0             	add    rax,rdx
  4048cd:	48 01 c0             	add    rax,rax
  4048d0:	48 01 d0             	add    rax,rdx
  4048d3:	48 c1 e0 04          	shl    rax,0x4
  4048d7:	48 89 c2             	mov    rdx,rax
  4048da:	48 8d 05 ed dc 10 00 	lea    rax,[rip+0x10dced]        # 5125ce <demons+0x2e>
  4048e1:	c6 04 02 00          	mov    BYTE PTR [rdx+rax*1],0x0
  4048e5:	8b 45 fc             	mov    eax,DWORD PTR [rbp-0x4]
  4048e8:	48 63 d0             	movsxd rdx,eax
  4048eb:	48 89 d0             	mov    rax,rdx
  4048ee:	48 c1 e0 02          	shl    rax,0x2
  4048f2:	48 01 d0             	add    rax,rdx
  4048f5:	48 01 c0             	add    rax,rax
  4048f8:	48 01 d0             	add    rax,rdx
  4048fb:	48 c1 e0 04          	shl    rax,0x4
  4048ff:	48 89 c2             	mov    rdx,rax
  404902:	48 8d 05 f7 dc 10 00 	lea    rax,[rip+0x10dcf7]        # 512600 <demons+0x60>
  404909:	c6 04 02 00          	mov    BYTE PTR [rdx+rax*1],0x0
  40490d:	83 45 fc 01          	add    DWORD PTR [rbp-0x4],0x1
  404911:	83 7d fc 0b          	cmp    DWORD PTR [rbp-0x4],0xb
  404915:	0f 8e 4d ff ff ff    	jle    404868 <init_sys+0xe8>
  40491b:	be 01 00 00 00       	mov    esi,0x1
  404920:	bf 11 00 00 00       	mov    edi,0x11
  404925:	e8 26 d9 ff ff       	call   402250 <signal@plt>
  40492a:	48 8d 05 a6 6a 00 00 	lea    rax,[rip+0x6aa6]        # 40b3d7 <_IO_stdin_used+0x13d7>
  404931:	48 89 c6             	mov    rsi,rax
  404934:	bf 61 00 00 00       	mov    edi,0x61
  404939:	e8 85 e0 ff ff       	call   4029c3 <dict_set>
  40493e:	48 8d 05 9a 6a 00 00 	lea    rax,[rip+0x6a9a]        # 40b3df <_IO_stdin_used+0x13df>
  404945:	48 89 c6             	mov    rsi,rax
  404948:	bf 62 00 00 00       	mov    edi,0x62
  40494d:	e8 71 e0 ff ff       	call   4029c3 <dict_set>
  404952:	48 8d 05 8e 6a 00 00 	lea    rax,[rip+0x6a8e]        # 40b3e7 <_IO_stdin_used+0x13e7>
  404959:	48 89 c6             	mov    rsi,rax
  40495c:	bf 63 00 00 00       	mov    edi,0x63
  404961:	e8 5d e0 ff ff       	call   4029c3 <dict_set>
  404966:	48 8d 05 82 6a 00 00 	lea    rax,[rip+0x6a82]        # 40b3ef <_IO_stdin_used+0x13ef>
  40496d:	48 89 c6             	mov    rsi,rax
  404970:	bf 64 00 00 00       	mov    edi,0x64
  404975:	e8 49 e0 ff ff       	call   4029c3 <dict_set>
  40497a:	48 8d 05 76 6a 00 00 	lea    rax,[rip+0x6a76]        # 40b3f7 <_IO_stdin_used+0x13f7>
  404981:	48 89 c6             	mov    rsi,rax
  404984:	bf 65 00 00 00       	mov    edi,0x65
  404989:	e8 35 e0 ff ff       	call   4029c3 <dict_set>
  40498e:	48 8d 05 6a 6a 00 00 	lea    rax,[rip+0x6a6a]        # 40b3ff <_IO_stdin_used+0x13ff>
  404995:	48 89 c6             	mov    rsi,rax
  404998:	bf 66 00 00 00       	mov    edi,0x66
  40499d:	e8 21 e0 ff ff       	call   4029c3 <dict_set>
  4049a2:	48 8d 05 5e 6a 00 00 	lea    rax,[rip+0x6a5e]        # 40b407 <_IO_stdin_used+0x1407>
  4049a9:	48 89 c6             	mov    rsi,rax
  4049ac:	bf 69 00 00 00       	mov    edi,0x69
  4049b1:	e8 0d e0 ff ff       	call   4029c3 <dict_set>
  4049b6:	48 8d 05 52 6a 00 00 	lea    rax,[rip+0x6a52]        # 40b40f <_IO_stdin_used+0x140f>
  4049bd:	48 89 c6             	mov    rsi,rax
  4049c0:	bf 6a 00 00 00       	mov    edi,0x6a
  4049c5:	e8 f9 df ff ff       	call   4029c3 <dict_set>
  4049ca:	48 8d 05 46 6a 00 00 	lea    rax,[rip+0x6a46]        # 40b417 <_IO_stdin_used+0x1417>
  4049d1:	48 89 c6             	mov    rsi,rax
  4049d4:	bf 6b 00 00 00       	mov    edi,0x6b
  4049d9:	e8 e5 df ff ff       	call   4029c3 <dict_set>
  4049de:	48 8d 05 3a 6a 00 00 	lea    rax,[rip+0x6a3a]        # 40b41f <_IO_stdin_used+0x141f>
  4049e5:	48 89 c6             	mov    rsi,rax
  4049e8:	bf 6c 00 00 00       	mov    edi,0x6c
  4049ed:	e8 d1 df ff ff       	call   4029c3 <dict_set>
  4049f2:	48 8d 05 2e 6a 00 00 	lea    rax,[rip+0x6a2e]        # 40b427 <_IO_stdin_used+0x1427>
  4049f9:	48 89 c6             	mov    rsi,rax
  4049fc:	bf 6d 00 00 00       	mov    edi,0x6d
  404a01:	e8 bd df ff ff       	call   4029c3 <dict_set>
  404a06:	48 8d 05 22 6a 00 00 	lea    rax,[rip+0x6a22]        # 40b42f <_IO_stdin_used+0x142f>
  404a0d:	48 89 c6             	mov    rsi,rax
  404a10:	bf 6e 00 00 00       	mov    edi,0x6e
  404a15:	e8 a9 df ff ff       	call   4029c3 <dict_set>
  404a1a:	48 8d 05 16 6a 00 00 	lea    rax,[rip+0x6a16]        # 40b437 <_IO_stdin_used+0x1437>
  404a21:	48 89 c6             	mov    rsi,rax
  404a24:	bf 6f 00 00 00       	mov    edi,0x6f
  404a29:	e8 95 df ff ff       	call   4029c3 <dict_set>
  404a2e:	48 8d 05 0a 6a 00 00 	lea    rax,[rip+0x6a0a]        # 40b43f <_IO_stdin_used+0x143f>
  404a35:	48 89 c6             	mov    rsi,rax
  404a38:	bf 70 00 00 00       	mov    edi,0x70
  404a3d:	e8 81 df ff ff       	call   4029c3 <dict_set>
  404a42:	48 8d 05 fe 69 00 00 	lea    rax,[rip+0x69fe]        # 40b447 <_IO_stdin_used+0x1447>
  404a49:	48 89 c6             	mov    rsi,rax
  404a4c:	bf 71 00 00 00       	mov    edi,0x71
  404a51:	e8 6d df ff ff       	call   4029c3 <dict_set>
  404a56:	48 8d 05 f2 69 00 00 	lea    rax,[rip+0x69f2]        # 40b44f <_IO_stdin_used+0x144f>
  404a5d:	48 89 c6             	mov    rsi,rax
  404a60:	bf 72 00 00 00       	mov    edi,0x72
  404a65:	e8 59 df ff ff       	call   4029c3 <dict_set>
  404a6a:	48 8d 05 e6 69 00 00 	lea    rax,[rip+0x69e6]        # 40b457 <_IO_stdin_used+0x1457>
  404a71:	48 89 c6             	mov    rsi,rax
  404a74:	bf 73 00 00 00       	mov    edi,0x73
  404a79:	e8 45 df ff ff       	call   4029c3 <dict_set>
  404a7e:	48 8d 05 da 69 00 00 	lea    rax,[rip+0x69da]        # 40b45f <_IO_stdin_used+0x145f>
  404a85:	48 89 c6             	mov    rsi,rax
  404a88:	bf 74 00 00 00       	mov    edi,0x74
  404a8d:	e8 31 df ff ff       	call   4029c3 <dict_set>
  404a92:	48 8d 05 ce 69 00 00 	lea    rax,[rip+0x69ce]        # 40b467 <_IO_stdin_used+0x1467>
  404a99:	48 89 c6             	mov    rsi,rax
  404a9c:	bf 75 00 00 00       	mov    edi,0x75
  404aa1:	e8 1d df ff ff       	call   4029c3 <dict_set>
  404aa6:	48 8d 05 c2 69 00 00 	lea    rax,[rip+0x69c2]        # 40b46f <_IO_stdin_used+0x146f>
  404aad:	48 89 c6             	mov    rsi,rax
  404ab0:	bf 76 00 00 00       	mov    edi,0x76
  404ab5:	e8 09 df ff ff       	call   4029c3 <dict_set>
  404aba:	48 8d 05 b6 69 00 00 	lea    rax,[rip+0x69b6]        # 40b477 <_IO_stdin_used+0x1477>
  404ac1:	48 89 c6             	mov    rsi,rax
  404ac4:	bf 77 00 00 00       	mov    edi,0x77
  404ac9:	e8 f5 de ff ff       	call   4029c3 <dict_set>
  404ace:	48 8d 05 aa 69 00 00 	lea    rax,[rip+0x69aa]        # 40b47f <_IO_stdin_used+0x147f>
  404ad5:	48 89 c6             	mov    rsi,rax
  404ad8:	bf 78 00 00 00       	mov    edi,0x78
  404add:	e8 e1 de ff ff       	call   4029c3 <dict_set>
  404ae2:	48 8d 05 9e 69 00 00 	lea    rax,[rip+0x699e]        # 40b487 <_IO_stdin_used+0x1487>
  404ae9:	48 89 c6             	mov    rsi,rax
  404aec:	bf 79 00 00 00       	mov    edi,0x79
  404af1:	e8 cd de ff ff       	call   4029c3 <dict_set>
  404af6:	48 8d 05 92 69 00 00 	lea    rax,[rip+0x6992]        # 40b48f <_IO_stdin_used+0x148f>
  404afd:	48 89 c6             	mov    rsi,rax
  404b00:	bf 7a 00 00 00       	mov    edi,0x7a
  404b05:	e8 b9 de ff ff       	call   4029c3 <dict_set>
  404b0a:	48 8d 05 86 69 00 00 	lea    rax,[rip+0x6986]        # 40b497 <_IO_stdin_used+0x1497>
  404b11:	48 89 c6             	mov    rsi,rax
  404b14:	bf 67 00 00 00       	mov    edi,0x67
  404b19:	e8 a5 de ff ff       	call   4029c3 <dict_set>
  404b1e:	48 8d 05 7a 69 00 00 	lea    rax,[rip+0x697a]        # 40b49f <_IO_stdin_used+0x149f>
  404b25:	48 89 c6             	mov    rsi,rax
  404b28:	bf 68 00 00 00       	mov    edi,0x68
  404b2d:	e8 91 de ff ff       	call   4029c3 <dict_set>
  404b32:	48 8d 05 6e 69 00 00 	lea    rax,[rip+0x696e]        # 40b4a7 <_IO_stdin_used+0x14a7>
  404b39:	48 89 c6             	mov    rsi,rax
  404b3c:	bf 41 00 00 00       	mov    edi,0x41
  404b41:	e8 7d de ff ff       	call   4029c3 <dict_set>
  404b46:	48 8d 05 62 69 00 00 	lea    rax,[rip+0x6962]        # 40b4af <_IO_stdin_used+0x14af>
  404b4d:	48 89 c6             	mov    rsi,rax
  404b50:	bf 42 00 00 00       	mov    edi,0x42
  404b55:	e8 69 de ff ff       	call   4029c3 <dict_set>
  404b5a:	48 8d 05 57 69 00 00 	lea    rax,[rip+0x6957]        # 40b4b8 <_IO_stdin_used+0x14b8>
  404b61:	48 89 c6             	mov    rsi,rax
  404b64:	bf 43 00 00 00       	mov    edi,0x43
  404b69:	e8 55 de ff ff       	call   4029c3 <dict_set>
  404b6e:	48 8d 05 4c 69 00 00 	lea    rax,[rip+0x694c]        # 40b4c1 <_IO_stdin_used+0x14c1>
  404b75:	48 89 c6             	mov    rsi,rax
  404b78:	bf 44 00 00 00       	mov    edi,0x44
  404b7d:	e8 41 de ff ff       	call   4029c3 <dict_set>
  404b82:	48 8d 05 41 69 00 00 	lea    rax,[rip+0x6941]        # 40b4ca <_IO_stdin_used+0x14ca>
  404b89:	48 89 c6             	mov    rsi,rax
  404b8c:	bf 45 00 00 00       	mov    edi,0x45
  404b91:	e8 2d de ff ff       	call   4029c3 <dict_set>
  404b96:	48 8d 05 36 69 00 00 	lea    rax,[rip+0x6936]        # 40b4d3 <_IO_stdin_used+0x14d3>
  404b9d:	48 89 c6             	mov    rsi,rax
  404ba0:	bf 46 00 00 00       	mov    edi,0x46
  404ba5:	e8 19 de ff ff       	call   4029c3 <dict_set>
  404baa:	48 8d 05 2b 69 00 00 	lea    rax,[rip+0x692b]        # 40b4dc <_IO_stdin_used+0x14dc>
  404bb1:	48 89 c6             	mov    rsi,rax
  404bb4:	bf 47 00 00 00       	mov    edi,0x47
  404bb9:	e8 05 de ff ff       	call   4029c3 <dict_set>
  404bbe:	48 8d 05 20 69 00 00 	lea    rax,[rip+0x6920]        # 40b4e5 <_IO_stdin_used+0x14e5>
  404bc5:	48 89 c6             	mov    rsi,rax
  404bc8:	bf 48 00 00 00       	mov    edi,0x48
  404bcd:	e8 f1 dd ff ff       	call   4029c3 <dict_set>
  404bd2:	48 8d 05 15 69 00 00 	lea    rax,[rip+0x6915]        # 40b4ee <_IO_stdin_used+0x14ee>
  404bd9:	48 89 c6             	mov    rsi,rax
  404bdc:	bf 49 00 00 00       	mov    edi,0x49
  404be1:	e8 dd dd ff ff       	call   4029c3 <dict_set>
  404be6:	48 8d 05 0a 69 00 00 	lea    rax,[rip+0x690a]        # 40b4f7 <_IO_stdin_used+0x14f7>
  404bed:	48 89 c6             	mov    rsi,rax
  404bf0:	bf 4a 00 00 00       	mov    edi,0x4a
  404bf5:	e8 c9 dd ff ff       	call   4029c3 <dict_set>
  404bfa:	48 8d 05 ff 68 00 00 	lea    rax,[rip+0x68ff]        # 40b500 <_IO_stdin_used+0x1500>
  404c01:	48 89 c6             	mov    rsi,rax
  404c04:	bf 4b 00 00 00       	mov    edi,0x4b
  404c09:	e8 b5 dd ff ff       	call   4029c3 <dict_set>
  404c0e:	48 8d 05 f4 68 00 00 	lea    rax,[rip+0x68f4]        # 40b509 <_IO_stdin_used+0x1509>
  404c15:	48 89 c6             	mov    rsi,rax
  404c18:	bf 4c 00 00 00       	mov    edi,0x4c
  404c1d:	e8 a1 dd ff ff       	call   4029c3 <dict_set>
  404c22:	48 8d 05 e9 68 00 00 	lea    rax,[rip+0x68e9]        # 40b512 <_IO_stdin_used+0x1512>
  404c29:	48 89 c6             	mov    rsi,rax
  404c2c:	bf 4d 00 00 00       	mov    edi,0x4d
  404c31:	e8 8d dd ff ff       	call   4029c3 <dict_set>
  404c36:	48 8d 05 de 68 00 00 	lea    rax,[rip+0x68de]        # 40b51b <_IO_stdin_used+0x151b>
  404c3d:	48 89 c6             	mov    rsi,rax
  404c40:	bf 4e 00 00 00       	mov    edi,0x4e
  404c45:	e8 79 dd ff ff       	call   4029c3 <dict_set>
  404c4a:	48 8d 05 d3 68 00 00 	lea    rax,[rip+0x68d3]        # 40b524 <_IO_stdin_used+0x1524>
  404c51:	48 89 c6             	mov    rsi,rax
  404c54:	bf 4f 00 00 00       	mov    edi,0x4f
  404c59:	e8 65 dd ff ff       	call   4029c3 <dict_set>
  404c5e:	48 8d 05 c8 68 00 00 	lea    rax,[rip+0x68c8]        # 40b52d <_IO_stdin_used+0x152d>
  404c65:	48 89 c6             	mov    rsi,rax
  404c68:	bf 50 00 00 00       	mov    edi,0x50
  404c6d:	e8 51 dd ff ff       	call   4029c3 <dict_set>
  404c72:	48 8d 05 bd 68 00 00 	lea    rax,[rip+0x68bd]        # 40b536 <_IO_stdin_used+0x1536>
  404c79:	48 89 c6             	mov    rsi,rax
  404c7c:	bf 51 00 00 00       	mov    edi,0x51
  404c81:	e8 3d dd ff ff       	call   4029c3 <dict_set>
  404c86:	48 8d 05 b2 68 00 00 	lea    rax,[rip+0x68b2]        # 40b53f <_IO_stdin_used+0x153f>
  404c8d:	48 89 c6             	mov    rsi,rax
  404c90:	bf 52 00 00 00       	mov    edi,0x52
  404c95:	e8 29 dd ff ff       	call   4029c3 <dict_set>
  404c9a:	48 8d 05 a7 68 00 00 	lea    rax,[rip+0x68a7]        # 40b548 <_IO_stdin_used+0x1548>
  404ca1:	48 89 c6             	mov    rsi,rax
  404ca4:	bf 53 00 00 00       	mov    edi,0x53
  404ca9:	e8 15 dd ff ff       	call   4029c3 <dict_set>
  404cae:	48 8d 05 9c 68 00 00 	lea    rax,[rip+0x689c]        # 40b551 <_IO_stdin_used+0x1551>
  404cb5:	48 89 c6             	mov    rsi,rax
  404cb8:	bf 54 00 00 00       	mov    edi,0x54
  404cbd:	e8 01 dd ff ff       	call   4029c3 <dict_set>
  404cc2:	48 8d 05 91 68 00 00 	lea    rax,[rip+0x6891]        # 40b55a <_IO_stdin_used+0x155a>
  404cc9:	48 89 c6             	mov    rsi,rax
  404ccc:	bf 55 00 00 00       	mov    edi,0x55
  404cd1:	e8 ed dc ff ff       	call   4029c3 <dict_set>
  404cd6:	48 8d 05 86 68 00 00 	lea    rax,[rip+0x6886]        # 40b563 <_IO_stdin_used+0x1563>
  404cdd:	48 89 c6             	mov    rsi,rax
  404ce0:	bf 56 00 00 00       	mov    edi,0x56
  404ce5:	e8 d9 dc ff ff       	call   4029c3 <dict_set>
  404cea:	48 8d 05 7b 68 00 00 	lea    rax,[rip+0x687b]        # 40b56c <_IO_stdin_used+0x156c>
  404cf1:	48 89 c6             	mov    rsi,rax
  404cf4:	bf 57 00 00 00       	mov    edi,0x57
  404cf9:	e8 c5 dc ff ff       	call   4029c3 <dict_set>
  404cfe:	48 8d 05 70 68 00 00 	lea    rax,[rip+0x6870]        # 40b575 <_IO_stdin_used+0x1575>
  404d05:	48 89 c6             	mov    rsi,rax
  404d08:	bf 58 00 00 00       	mov    edi,0x58
  404d0d:	e8 b1 dc ff ff       	call   4029c3 <dict_set>
  404d12:	48 8d 05 65 68 00 00 	lea    rax,[rip+0x6865]        # 40b57e <_IO_stdin_used+0x157e>
  404d19:	48 89 c6             	mov    rsi,rax
  404d1c:	bf 59 00 00 00       	mov    edi,0x59
  404d21:	e8 9d dc ff ff       	call   4029c3 <dict_set>
  404d26:	48 8d 05 5a 68 00 00 	lea    rax,[rip+0x685a]        # 40b587 <_IO_stdin_used+0x1587>
  404d2d:	48 89 c6             	mov    rsi,rax
  404d30:	bf 5a 00 00 00       	mov    edi,0x5a
  404d35:	e8 89 dc ff ff       	call   4029c3 <dict_set>
  404d3a:	48 8d 05 4f 68 00 00 	lea    rax,[rip+0x684f]        # 40b590 <_IO_stdin_used+0x1590>
  404d41:	48 89 c6             	mov    rsi,rax
  404d44:	bf 30 00 00 00       	mov    edi,0x30
  404d49:	e8 75 dc ff ff       	call   4029c3 <dict_set>
  404d4e:	48 8d 05 43 68 00 00 	lea    rax,[rip+0x6843]        # 40b598 <_IO_stdin_used+0x1598>
  404d55:	48 89 c6             	mov    rsi,rax
  404d58:	bf 31 00 00 00       	mov    edi,0x31
  404d5d:	e8 61 dc ff ff       	call   4029c3 <dict_set>
  404d62:	48 8d 05 37 68 00 00 	lea    rax,[rip+0x6837]        # 40b5a0 <_IO_stdin_used+0x15a0>
  404d69:	48 89 c6             	mov    rsi,rax
  404d6c:	bf 32 00 00 00       	mov    edi,0x32
  404d71:	e8 4d dc ff ff       	call   4029c3 <dict_set>
  404d76:	48 8d 05 2b 68 00 00 	lea    rax,[rip+0x682b]        # 40b5a8 <_IO_stdin_used+0x15a8>
  404d7d:	48 89 c6             	mov    rsi,rax
  404d80:	bf 33 00 00 00       	mov    edi,0x33
  404d85:	e8 39 dc ff ff       	call   4029c3 <dict_set>
  404d8a:	48 8d 05 1f 68 00 00 	lea    rax,[rip+0x681f]        # 40b5b0 <_IO_stdin_used+0x15b0>
  404d91:	48 89 c6             	mov    rsi,rax
  404d94:	bf 34 00 00 00       	mov    edi,0x34
  404d99:	e8 25 dc ff ff       	call   4029c3 <dict_set>
  404d9e:	48 8d 05 13 68 00 00 	lea    rax,[rip+0x6813]        # 40b5b8 <_IO_stdin_used+0x15b8>
  404da5:	48 89 c6             	mov    rsi,rax
  404da8:	bf 35 00 00 00       	mov    edi,0x35
  404dad:	e8 11 dc ff ff       	call   4029c3 <dict_set>
  404db2:	48 8d 05 07 68 00 00 	lea    rax,[rip+0x6807]        # 40b5c0 <_IO_stdin_used+0x15c0>
  404db9:	48 89 c6             	mov    rsi,rax
  404dbc:	bf 36 00 00 00       	mov    edi,0x36
  404dc1:	e8 fd db ff ff       	call   4029c3 <dict_set>
  404dc6:	48 8d 05 fb 67 00 00 	lea    rax,[rip+0x67fb]        # 40b5c8 <_IO_stdin_used+0x15c8>
  404dcd:	48 89 c6             	mov    rsi,rax
  404dd0:	bf 37 00 00 00       	mov    edi,0x37
  404dd5:	e8 e9 db ff ff       	call   4029c3 <dict_set>
  404dda:	48 8d 05 ef 67 00 00 	lea    rax,[rip+0x67ef]        # 40b5d0 <_IO_stdin_used+0x15d0>
  404de1:	48 89 c6             	mov    rsi,rax
  404de4:	bf 38 00 00 00       	mov    edi,0x38
  404de9:	e8 d5 db ff ff       	call   4029c3 <dict_set>
  404dee:	48 8d 05 e3 67 00 00 	lea    rax,[rip+0x67e3]        # 40b5d8 <_IO_stdin_used+0x15d8>
  404df5:	48 89 c6             	mov    rsi,rax
  404df8:	bf 39 00 00 00       	mov    edi,0x39
  404dfd:	e8 c1 db ff ff       	call   4029c3 <dict_set>
  404e02:	48 8d 05 d7 67 00 00 	lea    rax,[rip+0x67d7]        # 40b5e0 <_IO_stdin_used+0x15e0>
  404e09:	48 89 c6             	mov    rsi,rax
  404e0c:	bf 20 00 00 00       	mov    edi,0x20
  404e11:	e8 ad db ff ff       	call   4029c3 <dict_set>
  404e16:	48 8d 05 cb 67 00 00 	lea    rax,[rip+0x67cb]        # 40b5e8 <_IO_stdin_used+0x15e8>
  404e1d:	48 89 c6             	mov    rsi,rax
  404e20:	bf 2e 00 00 00       	mov    edi,0x2e
  404e25:	e8 99 db ff ff       	call   4029c3 <dict_set>
  404e2a:	48 8d 05 bf 67 00 00 	lea    rax,[rip+0x67bf]        # 40b5f0 <_IO_stdin_used+0x15f0>
  404e31:	48 89 c6             	mov    rsi,rax
  404e34:	bf 2c 00 00 00       	mov    edi,0x2c
  404e39:	e8 85 db ff ff       	call   4029c3 <dict_set>
  404e3e:	48 8d 05 b3 67 00 00 	lea    rax,[rip+0x67b3]        # 40b5f8 <_IO_stdin_used+0x15f8>
  404e45:	48 89 c6             	mov    rsi,rax
  404e48:	bf 21 00 00 00       	mov    edi,0x21
  404e4d:	e8 71 db ff ff       	call   4029c3 <dict_set>
  404e52:	48 8d 05 a7 67 00 00 	lea    rax,[rip+0x67a7]        # 40b600 <_IO_stdin_used+0x1600>
  404e59:	48 89 c6             	mov    rsi,rax
  404e5c:	bf 3f 00 00 00       	mov    edi,0x3f
  404e61:	e8 5d db ff ff       	call   4029c3 <dict_set>
  404e66:	48 8d 05 9b 67 00 00 	lea    rax,[rip+0x679b]        # 40b608 <_IO_stdin_used+0x1608>
  404e6d:	48 89 c6             	mov    rsi,rax
  404e70:	bf 27 00 00 00       	mov    edi,0x27
  404e75:	e8 49 db ff ff       	call   4029c3 <dict_set>
  404e7a:	48 8d 05 8f 67 00 00 	lea    rax,[rip+0x678f]        # 40b610 <_IO_stdin_used+0x1610>
  404e81:	48 89 c6             	mov    rsi,rax
  404e84:	bf 5c 00 00 00       	mov    edi,0x5c
  404e89:	e8 35 db ff ff       	call   4029c3 <dict_set>
  404e8e:	48 8d 05 83 67 00 00 	lea    rax,[rip+0x6783]        # 40b618 <_IO_stdin_used+0x1618>
  404e95:	48 89 c7             	mov    rdi,rax
  404e98:	e8 83 d2 ff ff       	call   402120 <chdir@plt>
  404e9d:	b8 00 00 00 00       	mov    eax,0x0
  404ea2:	e8 ba 00 00 00       	call   404f61 <up_path>
  404ea7:	b8 01 00 00 00       	mov    eax,0x1
  404eac:	c9                   	leave
  404ead:	c3                   	ret

0000000000404eae <cli>:
  404eae:	55                   	push   rbp
  404eaf:	48 89 e5             	mov    rbp,rsp
  404eb2:	48 81 ec 20 01 00 00 	sub    rsp,0x120
  404eb9:	48 89 bd e8 fe ff ff 	mov    QWORD PTR [rbp-0x118],rdi
  404ec0:	b8 00 00 00 00       	mov    eax,0x0
  404ec5:	e8 25 46 00 00       	call   4094ef <username>
  404eca:	48 89 45 f8          	mov    QWORD PTR [rbp-0x8],rax
  404ece:	48 8b 45 f8          	mov    rax,QWORD PTR [rbp-0x8]
  404ed2:	48 8d 15 e7 ae 04 00 	lea    rdx,[rip+0x4aee7]        # 44fdc0 <path>
  404ed9:	48 89 c6             	mov    rsi,rax
  404edc:	48 8d 05 45 67 00 00 	lea    rax,[rip+0x6745]        # 40b628 <_IO_stdin_used+0x1628>
  404ee3:	48 89 c7             	mov    rdi,rax
  404ee6:	b8 00 00 00 00       	mov    eax,0x0
  404eeb:	e8 60 d2 ff ff       	call   402150 <printf@plt>
  404ef0:	48 8b 15 b9 94 00 00 	mov    rdx,QWORD PTR [rip+0x94b9]        # 40e3b0 <stdin@GLIBC_2.2.5>
  404ef7:	48 8d 85 f0 fe ff ff 	lea    rax,[rbp-0x110]
  404efe:	be 00 01 00 00       	mov    esi,0x100
  404f03:	48 89 c7             	mov    rdi,rax
  404f06:	e8 e5 d2 ff ff       	call   4021f0 <fgets@plt>
  404f0b:	48 8d 85 f0 fe ff ff 	lea    rax,[rbp-0x110]
  404f12:	48 89 c7             	mov    rdi,rax
  404f15:	e8 29 17 00 00       	call   406643 <clean_line>
  404f1a:	48 8d 85 f0 fe ff ff 	lea    rax,[rbp-0x110]
  404f21:	48 89 c7             	mov    rdi,rax
  404f24:	e8 d0 25 00 00       	call   4074f9 <AmmSH_execute>
  404f29:	eb a3                	jmp    404ece <cli+0x20>

0000000000404f2b <main>:
  404f2b:	55                   	push   rbp
  404f2c:	48 89 e5             	mov    rbp,rsp
  404f2f:	48 83 ec 10          	sub    rsp,0x10
  404f33:	e8 48 f8 ff ff       	call   404780 <init_sys>
  404f38:	48 8d 45 f8          	lea    rax,[rbp-0x8]
  404f3c:	b9 00 00 00 00       	mov    ecx,0x0
  404f41:	48 8d 15 66 ff ff ff 	lea    rdx,[rip+0xffffffffffffff66]        # 404eae <cli>
  404f48:	be 00 00 00 00       	mov    esi,0x0
  404f4d:	48 89 c7             	mov    rdi,rax
  404f50:	e8 bb d3 ff ff       	call   402310 <pthread_create@plt>
  404f55:	bf ff 00 00 00       	mov    edi,0xff
  404f5a:	e8 51 d4 ff ff       	call   4023b0 <sleep@plt>
  404f5f:	eb f4                	jmp    404f55 <main+0x2a>

0000000000404f61 <up_path>:
  404f61:	55                   	push   rbp
  404f62:	48 89 e5             	mov    rbp,rsp
  404f65:	48 81 ec 10 04 00 00 	sub    rsp,0x410
  404f6c:	48 8d 85 f0 fb ff ff 	lea    rax,[rbp-0x410]
  404f73:	be 00 04 00 00       	mov    esi,0x400
  404f78:	48 89 c7             	mov    rdi,rax
  404f7b:	e8 10 d2 ff ff       	call   402190 <getcwd@plt>
  404f80:	48 8d 85 f0 fb ff ff 	lea    rax,[rbp-0x410]
  404f87:	48 8d 15 aa 66 00 00 	lea    rdx,[rip+0x66aa]        # 40b638 <_IO_stdin_used+0x1638>
  404f8e:	48 89 d6             	mov    rsi,rdx
  404f91:	48 89 c7             	mov    rdi,rax
  404f94:	e8 37 d4 ff ff       	call   4023d0 <strstr@plt>
  404f99:	48 89 45 f8          	mov    QWORD PTR [rbp-0x8],rax
  404f9d:	48 83 7d f8 00       	cmp    QWORD PTR [rbp-0x8],0x0
  404fa2:	75 16                	jne    404fba <up_path+0x59>
  404fa4:	48 8d 05 95 66 00 00 	lea    rax,[rip+0x6695]        # 40b640 <_IO_stdin_used+0x1640>
  404fab:	48 89 c7             	mov    rdi,rax
  404fae:	e8 ed d0 ff ff       	call   4020a0 <puts@plt>
  404fb3:	b8 00 00 00 00       	mov    eax,0x0
  404fb8:	eb 33                	jmp    404fed <up_path+0x8c>
  404fba:	48 8b 45 f8          	mov    rax,QWORD PTR [rbp-0x8]
  404fbe:	48 83 c0 05          	add    rax,0x5
  404fc2:	48 89 c1             	mov    rcx,rax
  404fc5:	48 8d 05 b7 66 00 00 	lea    rax,[rip+0x66b7]        # 40b683 <_IO_stdin_used+0x1683>
  404fcc:	48 89 c2             	mov    rdx,rax
  404fcf:	be 00 01 00 00       	mov    esi,0x100
  404fd4:	48 8d 05 e5 ad 04 00 	lea    rax,[rip+0x4ade5]        # 44fdc0 <path>
  404fdb:	48 89 c7             	mov    rdi,rax
  404fde:	b8 00 00 00 00       	mov    eax,0x0
  404fe3:	e8 78 d1 ff ff       	call   402160 <snprintf@plt>
  404fe8:	b8 01 00 00 00       	mov    eax,0x1
  404fed:	c9                   	leave
  404fee:	c3                   	ret

0000000000404fef <mkfile>:
  404fef:	55                   	push   rbp
  404ff0:	48 89 e5             	mov    rbp,rsp
  404ff3:	48 83 ec 20          	sub    rsp,0x20
  404ff7:	48 89 7d e8          	mov    QWORD PTR [rbp-0x18],rdi
  404ffb:	48 8b 45 e8          	mov    rax,QWORD PTR [rbp-0x18]
  404fff:	48 8d 15 81 66 00 00 	lea    rdx,[rip+0x6681]        # 40b687 <_IO_stdin_used+0x1687>
  405006:	48 89 d6             	mov    rsi,rdx
  405009:	48 89 c7             	mov    rdi,rax
  40500c:	e8 1f d3 ff ff       	call   402330 <fopen@plt>
  405011:	48 89 45 f8          	mov    QWORD PTR [rbp-0x8],rax
  405015:	48 83 7d f8 00       	cmp    QWORD PTR [rbp-0x8],0x0
  40501a:	75 16                	jne    405032 <mkfile+0x43>
  40501c:	48 8d 05 66 66 00 00 	lea    rax,[rip+0x6666]        # 40b689 <_IO_stdin_used+0x1689>
  405023:	48 89 c7             	mov    rdi,rax
  405026:	e8 15 d3 ff ff       	call   402340 <perror@plt>
  40502b:	b8 00 00 00 00       	mov    eax,0x0
  405030:	eb 11                	jmp    405043 <mkfile+0x54>
  405032:	48 8b 45 f8          	mov    rax,QWORD PTR [rbp-0x8]
  405036:	48 89 c7             	mov    rdi,rax
  405039:	e8 a2 d0 ff ff       	call   4020e0 <fclose@plt>
  40503e:	b8 01 00 00 00       	mov    eax,0x1
  405043:	c9                   	leave
  405044:	c3                   	ret

0000000000405045 <mkdir_cmd>:
  405045:	55                   	push   rbp
  405046:	48 89 e5             	mov    rbp,rsp
  405049:	48 81 ec a0 00 00 00 	sub    rsp,0xa0
  405050:	48 89 bd 68 ff ff ff 	mov    QWORD PTR [rbp-0x98],rdi
  405057:	48 8d 95 70 ff ff ff 	lea    rdx,[rbp-0x90]
  40505e:	48 8b 85 68 ff ff ff 	mov    rax,QWORD PTR [rbp-0x98]
  405065:	48 89 d6             	mov    rsi,rdx
  405068:	48 89 c7             	mov    rdi,rax
  40506b:	e8 10 d2 ff ff       	call   402280 <stat@plt>
  405070:	85 c0                	test   eax,eax
  405072:	75 16                	jne    40508a <mkdir_cmd+0x45>
  405074:	8b 45 88             	mov    eax,DWORD PTR [rbp-0x78]
  405077:	25 00 f0 00 00       	and    eax,0xf000
  40507c:	3d 00 40 00 00       	cmp    eax,0x4000
  405081:	75 07                	jne    40508a <mkdir_cmd+0x45>
  405083:	b8 01 00 00 00       	mov    eax,0x1
  405088:	eb 33                	jmp    4050bd <mkdir_cmd+0x78>
  40508a:	48 8b 85 68 ff ff ff 	mov    rax,QWORD PTR [rbp-0x98]
  405091:	be fd 01 00 00       	mov    esi,0x1fd
  405096:	48 89 c7             	mov    rdi,rax
  405099:	e8 f2 cf ff ff       	call   402090 <mkdir@plt>
  40509e:	85 c0                	test   eax,eax
  4050a0:	75 07                	jne    4050a9 <mkdir_cmd+0x64>
  4050a2:	b8 00 00 00 00       	mov    eax,0x0
  4050a7:	eb 14                	jmp    4050bd <mkdir_cmd+0x78>
  4050a9:	48 8d 05 d9 65 00 00 	lea    rax,[rip+0x65d9]        # 40b689 <_IO_stdin_used+0x1689>
  4050b0:	48 89 c7             	mov    rdi,rax
  4050b3:	e8 88 d2 ff ff       	call   402340 <perror@plt>
  4050b8:	b8 00 00 00 00       	mov    eax,0x0
  4050bd:	c9                   	leave
  4050be:	c3                   	ret

00000000004050bf <cd_cmd>:
  4050bf:	55                   	push   rbp
  4050c0:	48 89 e5             	mov    rbp,rsp
  4050c3:	48 81 ec 10 02 00 00 	sub    rsp,0x210
  4050ca:	48 89 bd f8 fd ff ff 	mov    QWORD PTR [rbp-0x208],rdi
  4050d1:	89 b5 f4 fd ff ff    	mov    DWORD PTR [rbp-0x20c],esi
  4050d7:	48 8d 85 00 ff ff ff 	lea    rax,[rbp-0x100]
  4050de:	be 00 01 00 00       	mov    esi,0x100
  4050e3:	48 89 c7             	mov    rdi,rax
  4050e6:	e8 a5 d0 ff ff       	call   402190 <getcwd@plt>
  4050eb:	48 8b 85 f8 fd ff ff 	mov    rax,QWORD PTR [rbp-0x208]
  4050f2:	48 89 c7             	mov    rdi,rax
  4050f5:	e8 26 d0 ff ff       	call   402120 <chdir@plt>
  4050fa:	85 c0                	test   eax,eax
  4050fc:	74 1f                	je     40511d <cd_cmd+0x5e>
  4050fe:	83 bd f4 fd ff ff 02 	cmp    DWORD PTR [rbp-0x20c],0x2
  405105:	75 0f                	jne    405116 <cd_cmd+0x57>
  405107:	48 8d 05 81 65 00 00 	lea    rax,[rip+0x6581]        # 40b68f <_IO_stdin_used+0x168f>
  40510e:	48 89 c7             	mov    rdi,rax
  405111:	e8 8a cf ff ff       	call   4020a0 <puts@plt>
  405116:	b8 00 00 00 00       	mov    eax,0x0
  40511b:	eb 6f                	jmp    40518c <cd_cmd+0xcd>
  40511d:	48 8d 85 00 fe ff ff 	lea    rax,[rbp-0x200]
  405124:	be 00 01 00 00       	mov    esi,0x100
  405129:	48 89 c7             	mov    rdi,rax
  40512c:	e8 5f d0 ff ff       	call   402190 <getcwd@plt>
  405131:	48 8d 85 00 fe ff ff 	lea    rax,[rbp-0x200]
  405138:	48 8d 15 f9 64 00 00 	lea    rdx,[rip+0x64f9]        # 40b638 <_IO_stdin_used+0x1638>
  40513f:	48 89 d6             	mov    rsi,rdx
  405142:	48 89 c7             	mov    rdi,rax
  405145:	e8 86 d2 ff ff       	call   4023d0 <strstr@plt>
  40514a:	48 85 c0             	test   rax,rax
  40514d:	75 2e                	jne    40517d <cd_cmd+0xbe>
  40514f:	48 8d 85 00 ff ff ff 	lea    rax,[rbp-0x100]
  405156:	48 89 c7             	mov    rdi,rax
  405159:	e8 c2 cf ff ff       	call   402120 <chdir@plt>
  40515e:	83 bd f4 fd ff ff 02 	cmp    DWORD PTR [rbp-0x20c],0x2
  405165:	75 0f                	jne    405176 <cd_cmd+0xb7>
  405167:	48 8d 05 3a 65 00 00 	lea    rax,[rip+0x653a]        # 40b6a8 <_IO_stdin_used+0x16a8>
  40516e:	48 89 c7             	mov    rdi,rax
  405171:	e8 2a cf ff ff       	call   4020a0 <puts@plt>
  405176:	b8 00 00 00 00       	mov    eax,0x0
  40517b:	eb 0f                	jmp    40518c <cd_cmd+0xcd>
  40517d:	b8 00 00 00 00       	mov    eax,0x0
  405182:	e8 da fd ff ff       	call   404f61 <up_path>
  405187:	b8 01 00 00 00       	mov    eax,0x1
  40518c:	c9                   	leave
  40518d:	c3                   	ret

000000000040518e <ls_cmd>:
  40518e:	55                   	push   rbp
  40518f:	48 89 e5             	mov    rbp,rsp
  405192:	48 81 ec a0 02 00 00 	sub    rsp,0x2a0
  405199:	48 8d 05 31 65 00 00 	lea    rax,[rip+0x6531]        # 40b6d1 <_IO_stdin_used+0x16d1>
  4051a0:	48 89 c7             	mov    rdi,rax
  4051a3:	e8 48 cf ff ff       	call   4020f0 <opendir@plt>
  4051a8:	48 89 45 f8          	mov    QWORD PTR [rbp-0x8],rax
  4051ac:	48 83 7d f8 00       	cmp    QWORD PTR [rbp-0x8],0x0
  4051b1:	75 19                	jne    4051cc <ls_cmd+0x3e>
  4051b3:	48 8d 05 19 65 00 00 	lea    rax,[rip+0x6519]        # 40b6d3 <_IO_stdin_used+0x16d3>
  4051ba:	48 89 c7             	mov    rdi,rax
  4051bd:	e8 7e d1 ff ff       	call   402340 <perror@plt>
  4051c2:	b8 00 00 00 00       	mov    eax,0x0
  4051c7:	e9 02 01 00 00       	jmp    4052ce <ls_cmd+0x140>
  4051cc:	bf 0a 00 00 00       	mov    edi,0xa
  4051d1:	e8 5a ce ff ff       	call   402030 <putchar@plt>
  4051d6:	e9 bd 00 00 00       	jmp    405298 <ls_cmd+0x10a>
  4051db:	48 8b 45 f0          	mov    rax,QWORD PTR [rbp-0x10]
  4051df:	0f b6 40 13          	movzx  eax,BYTE PTR [rax+0x13]
  4051e3:	3c 2e                	cmp    al,0x2e
  4051e5:	75 05                	jne    4051ec <ls_cmd+0x5e>
  4051e7:	e9 ac 00 00 00       	jmp    405298 <ls_cmd+0x10a>
  4051ec:	48 8b 45 f0          	mov    rax,QWORD PTR [rbp-0x10]
  4051f0:	48 8d 50 13          	lea    rdx,[rax+0x13]
  4051f4:	48 8d 85 60 fd ff ff 	lea    rax,[rbp-0x2a0]
  4051fb:	48 89 d1             	mov    rcx,rdx
  4051fe:	48 8d 15 d6 64 00 00 	lea    rdx,[rip+0x64d6]        # 40b6db <_IO_stdin_used+0x16db>
  405205:	be 00 02 00 00       	mov    esi,0x200
  40520a:	48 89 c7             	mov    rdi,rax
  40520d:	b8 00 00 00 00       	mov    eax,0x0
  405212:	e8 49 cf ff ff       	call   402160 <snprintf@plt>
  405217:	48 8d 95 60 ff ff ff 	lea    rdx,[rbp-0xa0]
  40521e:	48 8d 85 60 fd ff ff 	lea    rax,[rbp-0x2a0]
  405225:	48 89 d6             	mov    rsi,rdx
  405228:	48 89 c7             	mov    rdi,rax
  40522b:	e8 50 d0 ff ff       	call   402280 <stat@plt>
  405230:	83 f8 ff             	cmp    eax,0xffffffff
  405233:	75 11                	jne    405246 <ls_cmd+0xb8>
  405235:	48 8d 05 a4 64 00 00 	lea    rax,[rip+0x64a4]        # 40b6e0 <_IO_stdin_used+0x16e0>
  40523c:	48 89 c7             	mov    rdi,rax
  40523f:	e8 fc d0 ff ff       	call   402340 <perror@plt>
  405244:	eb 52                	jmp    405298 <ls_cmd+0x10a>
  405246:	8b 85 78 ff ff ff    	mov    eax,DWORD PTR [rbp-0x88]
  40524c:	25 00 f0 00 00       	and    eax,0xf000
  405251:	3d 00 40 00 00       	cmp    eax,0x4000
  405256:	75 21                	jne    405279 <ls_cmd+0xeb>
  405258:	48 8b 45 f0          	mov    rax,QWORD PTR [rbp-0x10]
  40525c:	48 83 c0 13          	add    rax,0x13
  405260:	48 89 c6             	mov    rsi,rax
  405263:	48 8d 05 7b 64 00 00 	lea    rax,[rip+0x647b]        # 40b6e5 <_IO_stdin_used+0x16e5>
  40526a:	48 89 c7             	mov    rdi,rax
  40526d:	b8 00 00 00 00       	mov    eax,0x0
  405272:	e8 d9 ce ff ff       	call   402150 <printf@plt>
  405277:	eb 1f                	jmp    405298 <ls_cmd+0x10a>
  405279:	48 8b 45 f0          	mov    rax,QWORD PTR [rbp-0x10]
  40527d:	48 83 c0 13          	add    rax,0x13
  405281:	48 89 c6             	mov    rsi,rax
  405284:	48 8d 05 61 64 00 00 	lea    rax,[rip+0x6461]        # 40b6ec <_IO_stdin_used+0x16ec>
  40528b:	48 89 c7             	mov    rdi,rax
  40528e:	b8 00 00 00 00       	mov    eax,0x0
  405293:	e8 b8 ce ff ff       	call   402150 <printf@plt>
  405298:	48 8b 45 f8          	mov    rax,QWORD PTR [rbp-0x8]
  40529c:	48 89 c7             	mov    rdi,rax
  40529f:	e8 2c d0 ff ff       	call   4022d0 <readdir@plt>
  4052a4:	48 89 45 f0          	mov    QWORD PTR [rbp-0x10],rax
  4052a8:	48 83 7d f0 00       	cmp    QWORD PTR [rbp-0x10],0x0
  4052ad:	0f 85 28 ff ff ff    	jne    4051db <ls_cmd+0x4d>
  4052b3:	bf 0a 00 00 00       	mov    edi,0xa
  4052b8:	e8 73 cd ff ff       	call   402030 <putchar@plt>
  4052bd:	48 8b 45 f8          	mov    rax,QWORD PTR [rbp-0x8]
  4052c1:	48 89 c7             	mov    rdi,rax
  4052c4:	e8 e7 ce ff ff       	call   4021b0 <closedir@plt>
  4052c9:	b8 01 00 00 00       	mov    eax,0x1
  4052ce:	c9                   	leave
  4052cf:	c3                   	ret

00000000004052d0 <strlchr>:
  4052d0:	55                   	push   rbp
  4052d1:	48 89 e5             	mov    rbp,rsp
  4052d4:	48 89 7d e8          	mov    QWORD PTR [rbp-0x18],rdi
  4052d8:	89 f0                	mov    eax,esi
  4052da:	88 45 e4             	mov    BYTE PTR [rbp-0x1c],al
  4052dd:	48 c7 45 f8 00 00 00 	mov    QWORD PTR [rbp-0x8],0x0
  4052e4:	00 
  4052e5:	eb 19                	jmp    405300 <strlchr+0x30>
  4052e7:	48 8b 45 e8          	mov    rax,QWORD PTR [rbp-0x18]
  4052eb:	0f b6 00             	movzx  eax,BYTE PTR [rax]
  4052ee:	38 45 e4             	cmp    BYTE PTR [rbp-0x1c],al
  4052f1:	75 08                	jne    4052fb <strlchr+0x2b>
  4052f3:	48 8b 45 e8          	mov    rax,QWORD PTR [rbp-0x18]
  4052f7:	48 89 45 f8          	mov    QWORD PTR [rbp-0x8],rax
  4052fb:	48 83 45 e8 01       	add    QWORD PTR [rbp-0x18],0x1
  405300:	48 8b 45 e8          	mov    rax,QWORD PTR [rbp-0x18]
  405304:	0f b6 00             	movzx  eax,BYTE PTR [rax]
  405307:	84 c0                	test   al,al
  405309:	75 dc                	jne    4052e7 <strlchr+0x17>
  40530b:	48 8b 45 f8          	mov    rax,QWORD PTR [rbp-0x8]
  40530f:	5d                   	pop    rbp
  405310:	c3                   	ret

0000000000405311 <endsWith>:
  405311:	55                   	push   rbp
  405312:	48 89 e5             	mov    rbp,rsp
  405315:	48 83 ec 20          	sub    rsp,0x20
  405319:	48 89 7d e8          	mov    QWORD PTR [rbp-0x18],rdi
  40531d:	48 89 75 e0          	mov    QWORD PTR [rbp-0x20],rsi
  405321:	48 83 7d e8 00       	cmp    QWORD PTR [rbp-0x18],0x0
  405326:	74 07                	je     40532f <endsWith+0x1e>
  405328:	48 83 7d e0 00       	cmp    QWORD PTR [rbp-0x20],0x0
  40532d:	75 07                	jne    405336 <endsWith+0x25>
  40532f:	b8 00 00 00 00       	mov    eax,0x0
  405334:	eb 5a                	jmp    405390 <endsWith+0x7f>
  405336:	48 8b 45 e8          	mov    rax,QWORD PTR [rbp-0x18]
  40533a:	48 89 c7             	mov    rdi,rax
  40533d:	e8 ce cd ff ff       	call   402110 <strlen@plt>
  405342:	89 45 fc             	mov    DWORD PTR [rbp-0x4],eax
  405345:	48 8b 45 e0          	mov    rax,QWORD PTR [rbp-0x20]
  405349:	48 89 c7             	mov    rdi,rax
  40534c:	e8 bf cd ff ff       	call   402110 <strlen@plt>
  405351:	89 45 f8             	mov    DWORD PTR [rbp-0x8],eax
  405354:	8b 45 fc             	mov    eax,DWORD PTR [rbp-0x4]
  405357:	3b 45 f8             	cmp    eax,DWORD PTR [rbp-0x8]
  40535a:	7c 2f                	jl     40538b <endsWith+0x7a>
  40535c:	8b 45 fc             	mov    eax,DWORD PTR [rbp-0x4]
  40535f:	48 63 d0             	movsxd rdx,eax
  405362:	8b 45 f8             	mov    eax,DWORD PTR [rbp-0x8]
  405365:	48 98                	cdqe
  405367:	48 29 c2             	sub    rdx,rax
  40536a:	48 8b 45 e8          	mov    rax,QWORD PTR [rbp-0x18]
  40536e:	48 01 c2             	add    rdx,rax
  405371:	48 8b 45 e0          	mov    rax,QWORD PTR [rbp-0x20]
  405375:	48 89 c6             	mov    rsi,rax
  405378:	48 89 d7             	mov    rdi,rdx
  40537b:	e8 40 41 00 00       	call   4094c0 <astrcmp>
  405380:	85 c0                	test   eax,eax
  405382:	75 07                	jne    40538b <endsWith+0x7a>
  405384:	b8 01 00 00 00       	mov    eax,0x1
  405389:	eb 05                	jmp    405390 <endsWith+0x7f>
  40538b:	b8 00 00 00 00       	mov    eax,0x0
  405390:	c9                   	leave
  405391:	c3                   	ret

0000000000405392 <cut_suffix>:
  405392:	55                   	push   rbp
  405393:	48 89 e5             	mov    rbp,rsp
  405396:	48 83 ec 30          	sub    rsp,0x30
  40539a:	48 89 7d d8          	mov    QWORD PTR [rbp-0x28],rdi
  40539e:	48 8b 45 d8          	mov    rax,QWORD PTR [rbp-0x28]
  4053a2:	be 2e 00 00 00       	mov    esi,0x2e
  4053a7:	48 89 c7             	mov    rdi,rax
  4053aa:	e8 21 ff ff ff       	call   4052d0 <strlchr>
  4053af:	48 89 45 f8          	mov    QWORD PTR [rbp-0x8],rax
  4053b3:	48 83 7d f8 00       	cmp    QWORD PTR [rbp-0x8],0x0
  4053b8:	75 07                	jne    4053c1 <cut_suffix+0x2f>
  4053ba:	b8 00 00 00 00       	mov    eax,0x0
  4053bf:	eb 4d                	jmp    40540e <cut_suffix+0x7c>
  4053c1:	48 8b 45 f8          	mov    rax,QWORD PTR [rbp-0x8]
  4053c5:	48 89 c7             	mov    rdi,rax
  4053c8:	e8 43 cd ff ff       	call   402110 <strlen@plt>
  4053cd:	89 45 f4             	mov    DWORD PTR [rbp-0xc],eax
  4053d0:	8b 45 f4             	mov    eax,DWORD PTR [rbp-0xc]
  4053d3:	83 c0 01             	add    eax,0x1
  4053d6:	89 c7                	mov    edi,eax
  4053d8:	e8 94 d1 ff ff       	call   402571 <amm_malloc>
  4053dd:	48 89 45 e8          	mov    QWORD PTR [rbp-0x18],rax
  4053e1:	8b 45 f4             	mov    eax,DWORD PTR [rbp-0xc]
  4053e4:	48 63 d0             	movsxd rdx,eax
  4053e7:	48 8b 4d f8          	mov    rcx,QWORD PTR [rbp-0x8]
  4053eb:	48 8b 45 e8          	mov    rax,QWORD PTR [rbp-0x18]
  4053ef:	48 89 ce             	mov    rsi,rcx
  4053f2:	48 89 c7             	mov    rdi,rax
  4053f5:	e8 46 cc ff ff       	call   402040 <strncpy@plt>
  4053fa:	8b 45 f4             	mov    eax,DWORD PTR [rbp-0xc]
  4053fd:	48 63 d0             	movsxd rdx,eax
  405400:	48 8b 45 e8          	mov    rax,QWORD PTR [rbp-0x18]
  405404:	48 01 d0             	add    rax,rdx
  405407:	c6 00 00             	mov    BYTE PTR [rax],0x0
  40540a:	48 8b 45 e8          	mov    rax,QWORD PTR [rbp-0x18]
  40540e:	c9                   	leave
  40540f:	c3                   	ret

0000000000405410 <get_folder_from_path>:
  405410:	55                   	push   rbp
  405411:	48 89 e5             	mov    rbp,rsp
  405414:	48 83 ec 30          	sub    rsp,0x30
  405418:	48 89 7d d8          	mov    QWORD PTR [rbp-0x28],rdi
  40541c:	89 f0                	mov    eax,esi
  40541e:	88 45 d4             	mov    BYTE PTR [rbp-0x2c],al
  405421:	0f be 55 d4          	movsx  edx,BYTE PTR [rbp-0x2c]
  405425:	48 8b 45 d8          	mov    rax,QWORD PTR [rbp-0x28]
  405429:	89 d6                	mov    esi,edx
  40542b:	48 89 c7             	mov    rdi,rax
  40542e:	e8 9d fe ff ff       	call   4052d0 <strlchr>
  405433:	48 89 45 f0          	mov    QWORD PTR [rbp-0x10],rax
  405437:	48 83 7d f0 00       	cmp    QWORD PTR [rbp-0x10],0x0
  40543c:	75 0a                	jne    405448 <get_folder_from_path+0x38>
  40543e:	b8 00 00 00 00       	mov    eax,0x0
  405443:	e9 90 00 00 00       	jmp    4054d8 <get_folder_from_path+0xc8>
  405448:	48 8b 45 f0          	mov    rax,QWORD PTR [rbp-0x10]
  40544c:	48 2b 45 d8          	sub    rax,QWORD PTR [rbp-0x28]
  405450:	89 45 fc             	mov    DWORD PTR [rbp-0x4],eax
  405453:	83 7d fc 00          	cmp    DWORD PTR [rbp-0x4],0x0
  405457:	75 26                	jne    40547f <get_folder_from_path+0x6f>
  405459:	bf 02 00 00 00       	mov    edi,0x2
  40545e:	e8 0e d1 ff ff       	call   402571 <amm_malloc>
  405463:	48 89 45 e0          	mov    QWORD PTR [rbp-0x20],rax
  405467:	48 8b 45 e0          	mov    rax,QWORD PTR [rbp-0x20]
  40546b:	c6 00 2e             	mov    BYTE PTR [rax],0x2e
  40546e:	48 8b 45 e0          	mov    rax,QWORD PTR [rbp-0x20]
  405472:	48 83 c0 01          	add    rax,0x1
  405476:	c6 00 00             	mov    BYTE PTR [rax],0x0
  405479:	48 8b 45 e0          	mov    rax,QWORD PTR [rbp-0x20]
  40547d:	eb 59                	jmp    4054d8 <get_folder_from_path+0xc8>
  40547f:	8b 45 fc             	mov    eax,DWORD PTR [rbp-0x4]
  405482:	48 98                	cdqe
  405484:	48 8d 50 ff          	lea    rdx,[rax-0x1]
  405488:	48 8b 45 d8          	mov    rax,QWORD PTR [rbp-0x28]
  40548c:	48 01 d0             	add    rax,rdx
  40548f:	0f b6 00             	movzx  eax,BYTE PTR [rax]
  405492:	3c 2f                	cmp    al,0x2f
  405494:	75 04                	jne    40549a <get_folder_from_path+0x8a>
  405496:	83 6d fc 01          	sub    DWORD PTR [rbp-0x4],0x1
  40549a:	8b 45 fc             	mov    eax,DWORD PTR [rbp-0x4]
  40549d:	83 c0 01             	add    eax,0x1
  4054a0:	89 c7                	mov    edi,eax
  4054a2:	e8 ca d0 ff ff       	call   402571 <amm_malloc>
  4054a7:	48 89 45 e8          	mov    QWORD PTR [rbp-0x18],rax
  4054ab:	8b 45 fc             	mov    eax,DWORD PTR [rbp-0x4]
  4054ae:	48 63 d0             	movsxd rdx,eax
  4054b1:	48 8b 4d d8          	mov    rcx,QWORD PTR [rbp-0x28]
  4054b5:	48 8b 45 e8          	mov    rax,QWORD PTR [rbp-0x18]
  4054b9:	48 89 ce             	mov    rsi,rcx
  4054bc:	48 89 c7             	mov    rdi,rax
  4054bf:	e8 7c cb ff ff       	call   402040 <strncpy@plt>
  4054c4:	8b 45 fc             	mov    eax,DWORD PTR [rbp-0x4]
  4054c7:	48 63 d0             	movsxd rdx,eax
  4054ca:	48 8b 45 e8          	mov    rax,QWORD PTR [rbp-0x18]
  4054ce:	48 01 d0             	add    rax,rdx
  4054d1:	c6 00 00             	mov    BYTE PTR [rax],0x0
  4054d4:	48 8b 45 e8          	mov    rax,QWORD PTR [rbp-0x18]
  4054d8:	c9                   	leave
  4054d9:	c3                   	ret

00000000004054da <ls_conter>:
  4054da:	55                   	push   rbp
  4054db:	48 89 e5             	mov    rbp,rsp
  4054de:	48 81 ec e0 01 00 00 	sub    rsp,0x1e0
  4054e5:	48 89 bd 38 fe ff ff 	mov    QWORD PTR [rbp-0x1c8],rdi
  4054ec:	48 89 b5 30 fe ff ff 	mov    QWORD PTR [rbp-0x1d0],rsi
  4054f3:	89 95 2c fe ff ff    	mov    DWORD PTR [rbp-0x1d4],edx
  4054f9:	48 89 8d 20 fe ff ff 	mov    QWORD PTR [rbp-0x1e0],rcx
  405500:	48 8b 85 38 fe ff ff 	mov    rax,QWORD PTR [rbp-0x1c8]
  405507:	48 89 c7             	mov    rdi,rax
  40550a:	e8 e1 cb ff ff       	call   4020f0 <opendir@plt>
  40550f:	48 89 45 f0          	mov    QWORD PTR [rbp-0x10],rax
  405513:	48 83 7d f0 00       	cmp    QWORD PTR [rbp-0x10],0x0
  405518:	75 22                	jne    40553c <ls_conter+0x62>
  40551a:	83 bd 2c fe ff ff 02 	cmp    DWORD PTR [rbp-0x1d4],0x2
  405521:	75 0f                	jne    405532 <ls_conter+0x58>
  405523:	48 8d 05 c7 61 00 00 	lea    rax,[rip+0x61c7]        # 40b6f1 <_IO_stdin_used+0x16f1>
  40552a:	48 89 c7             	mov    rdi,rax
  40552d:	e8 0e ce ff ff       	call   402340 <perror@plt>
  405532:	b8 00 00 00 00       	mov    eax,0x0
  405537:	e9 82 01 00 00       	jmp    4056be <ls_conter+0x1e4>
  40553c:	48 c7 45 f8 00 00 00 	mov    QWORD PTR [rbp-0x8],0x0
  405543:	00 
  405544:	c7 85 4c ff ff ff 00 	mov    DWORD PTR [rbp-0xb4],0x0
  40554b:	00 00 00 
  40554e:	c7 85 48 ff ff ff 00 	mov    DWORD PTR [rbp-0xb8],0x0
  405555:	00 00 00 
  405558:	48 8b 85 30 fe ff ff 	mov    rax,QWORD PTR [rbp-0x1d0]
  40555f:	c7 00 00 00 00 00    	mov    DWORD PTR [rax],0x0
  405565:	e9 29 01 00 00       	jmp    405693 <ls_conter+0x1b9>
  40556a:	48 8b 45 e8          	mov    rax,QWORD PTR [rbp-0x18]
  40556e:	0f b6 40 13          	movzx  eax,BYTE PTR [rax+0x13]
  405572:	3c 2e                	cmp    al,0x2e
  405574:	0f 84 12 01 00 00    	je     40568c <ls_conter+0x1b2>
  40557a:	48 8b 45 e8          	mov    rax,QWORD PTR [rbp-0x18]
  40557e:	48 8d 48 13          	lea    rcx,[rax+0x13]
  405582:	48 8b 95 38 fe ff ff 	mov    rdx,QWORD PTR [rbp-0x1c8]
  405589:	48 8d 85 40 fe ff ff 	lea    rax,[rbp-0x1c0]
  405590:	49 89 c8             	mov    r8,rcx
  405593:	48 89 d1             	mov    rcx,rdx
  405596:	48 8d 15 63 61 00 00 	lea    rdx,[rip+0x6163]        # 40b700 <_IO_stdin_used+0x1700>
  40559d:	be 00 01 00 00       	mov    esi,0x100
  4055a2:	48 89 c7             	mov    rdi,rax
  4055a5:	b8 00 00 00 00       	mov    eax,0x0
  4055aa:	e8 b1 cb ff ff       	call   402160 <snprintf@plt>
  4055af:	48 8d 95 50 ff ff ff 	lea    rdx,[rbp-0xb0]
  4055b6:	48 8d 85 40 fe ff ff 	lea    rax,[rbp-0x1c0]
  4055bd:	48 89 d6             	mov    rsi,rdx
  4055c0:	48 89 c7             	mov    rdi,rax
  4055c3:	e8 b8 cc ff ff       	call   402280 <stat@plt>
  4055c8:	85 c0                	test   eax,eax
  4055ca:	0f 85 bf 00 00 00    	jne    40568f <ls_conter+0x1b5>
  4055d0:	48 8b 85 20 fe ff ff 	mov    rax,QWORD PTR [rbp-0x1e0]
  4055d7:	48 8d 15 28 61 00 00 	lea    rdx,[rip+0x6128]        # 40b706 <_IO_stdin_used+0x1706>
  4055de:	48 89 d6             	mov    rsi,rdx
  4055e1:	48 89 c7             	mov    rdi,rax
  4055e4:	e8 d7 3e 00 00       	call   4094c0 <astrcmp>
  4055e9:	85 c0                	test   eax,eax
  4055eb:	75 16                	jne    405603 <ls_conter+0x129>
  4055ed:	8b 85 68 ff ff ff    	mov    eax,DWORD PTR [rbp-0x98]
  4055f3:	25 00 f0 00 00       	and    eax,0xf000
  4055f8:	3d 00 80 00 00       	cmp    eax,0x8000
  4055fd:	0f 85 8f 00 00 00    	jne    405692 <ls_conter+0x1b8>
  405603:	48 8b 85 20 fe ff ff 	mov    rax,QWORD PTR [rbp-0x1e0]
  40560a:	48 8d 15 fa 60 00 00 	lea    rdx,[rip+0x60fa]        # 40b70b <_IO_stdin_used+0x170b>
  405611:	48 89 d6             	mov    rsi,rdx
  405614:	48 89 c7             	mov    rdi,rax
  405617:	e8 a4 3e 00 00       	call   4094c0 <astrcmp>
  40561c:	85 c0                	test   eax,eax
  40561e:	75 12                	jne    405632 <ls_conter+0x158>
  405620:	8b 85 68 ff ff ff    	mov    eax,DWORD PTR [rbp-0x98]
  405626:	25 00 f0 00 00       	and    eax,0xf000
  40562b:	3d 00 40 00 00       	cmp    eax,0x4000
  405630:	75 60                	jne    405692 <ls_conter+0x1b8>
  405632:	48 8b 45 e8          	mov    rax,QWORD PTR [rbp-0x18]
  405636:	48 8d 48 13          	lea    rcx,[rax+0x13]
  40563a:	48 8b 55 f8          	mov    rdx,QWORD PTR [rbp-0x8]
  40563e:	48 8d b5 4c ff ff ff 	lea    rsi,[rbp-0xb4]
  405645:	48 8d 85 48 ff ff ff 	lea    rax,[rbp-0xb8]
  40564c:	48 89 c7             	mov    rdi,rax
  40564f:	e8 a4 d1 ff ff       	call   4027f8 <TwoDappend>
  405654:	48 89 45 f8          	mov    QWORD PTR [rbp-0x8],rax
  405658:	48 83 7d f8 00       	cmp    QWORD PTR [rbp-0x8],0x0
  40565d:	75 16                	jne    405675 <ls_conter+0x19b>
  40565f:	48 8d 05 a9 60 00 00 	lea    rax,[rip+0x60a9]        # 40b70f <_IO_stdin_used+0x170f>
  405666:	48 89 c7             	mov    rdi,rax
  405669:	e8 32 ca ff ff       	call   4020a0 <puts@plt>
  40566e:	b8 00 00 00 00       	mov    eax,0x0
  405673:	eb 49                	jmp    4056be <ls_conter+0x1e4>
  405675:	48 8b 85 30 fe ff ff 	mov    rax,QWORD PTR [rbp-0x1d0]
  40567c:	8b 00                	mov    eax,DWORD PTR [rax]
  40567e:	8d 50 01             	lea    edx,[rax+0x1]
  405681:	48 8b 85 30 fe ff ff 	mov    rax,QWORD PTR [rbp-0x1d0]
  405688:	89 10                	mov    DWORD PTR [rax],edx
  40568a:	eb 07                	jmp    405693 <ls_conter+0x1b9>
  40568c:	90                   	nop
  40568d:	eb 04                	jmp    405693 <ls_conter+0x1b9>
  40568f:	90                   	nop
  405690:	eb 01                	jmp    405693 <ls_conter+0x1b9>
  405692:	90                   	nop
  405693:	48 8b 45 f0          	mov    rax,QWORD PTR [rbp-0x10]
  405697:	48 89 c7             	mov    rdi,rax
  40569a:	e8 31 cc ff ff       	call   4022d0 <readdir@plt>
  40569f:	48 89 45 e8          	mov    QWORD PTR [rbp-0x18],rax
  4056a3:	48 83 7d e8 00       	cmp    QWORD PTR [rbp-0x18],0x0
  4056a8:	0f 85 bc fe ff ff    	jne    40556a <ls_conter+0x90>
  4056ae:	48 8b 45 f0          	mov    rax,QWORD PTR [rbp-0x10]
  4056b2:	48 89 c7             	mov    rdi,rax
  4056b5:	e8 f6 ca ff ff       	call   4021b0 <closedir@plt>
  4056ba:	48 8b 45 f8          	mov    rax,QWORD PTR [rbp-0x8]
  4056be:	c9                   	leave
  4056bf:	c3                   	ret

00000000004056c0 <grep_cmd>:
  4056c0:	55                   	push   rbp
  4056c1:	48 89 e5             	mov    rbp,rsp
  4056c4:	48 81 ec 30 05 00 00 	sub    rsp,0x530
  4056cb:	48 89 bd f8 fa ff ff 	mov    QWORD PTR [rbp-0x508],rdi
  4056d2:	48 89 b5 f0 fa ff ff 	mov    QWORD PTR [rbp-0x510],rsi
  4056d9:	48 89 95 e8 fa ff ff 	mov    QWORD PTR [rbp-0x518],rdx
  4056e0:	48 89 8d e0 fa ff ff 	mov    QWORD PTR [rbp-0x520],rcx
  4056e7:	44 89 85 dc fa ff ff 	mov    DWORD PTR [rbp-0x524],r8d
  4056ee:	48 8b 85 f0 fa ff ff 	mov    rax,QWORD PTR [rbp-0x510]
  4056f5:	48 89 c7             	mov    rdi,rax
  4056f8:	e8 f3 c9 ff ff       	call   4020f0 <opendir@plt>
  4056fd:	48 89 45 d8          	mov    QWORD PTR [rbp-0x28],rax
  405701:	48 83 7d d8 00       	cmp    QWORD PTR [rbp-0x28],0x0
  405706:	0f 85 06 04 00 00    	jne    405b12 <grep_cmd+0x452>
  40570c:	b8 00 00 00 00       	mov    eax,0x0
  405711:	e9 28 04 00 00       	jmp    405b3e <grep_cmd+0x47e>
  405716:	48 8b 45 d0          	mov    rax,QWORD PTR [rbp-0x30]
  40571a:	48 83 c0 13          	add    rax,0x13
  40571e:	48 8d 15 ac 5f 00 00 	lea    rdx,[rip+0x5fac]        # 40b6d1 <_IO_stdin_used+0x16d1>
  405725:	48 89 d6             	mov    rsi,rdx
  405728:	48 89 c7             	mov    rdi,rax
  40572b:	e8 90 3d 00 00       	call   4094c0 <astrcmp>
  405730:	85 c0                	test   eax,eax
  405732:	0f 84 da 03 00 00    	je     405b12 <grep_cmd+0x452>
  405738:	48 8b 45 d0          	mov    rax,QWORD PTR [rbp-0x30]
  40573c:	48 83 c0 13          	add    rax,0x13
  405740:	48 8d 15 dd 5f 00 00 	lea    rdx,[rip+0x5fdd]        # 40b724 <_IO_stdin_used+0x1724>
  405747:	48 89 d6             	mov    rsi,rdx
  40574a:	48 89 c7             	mov    rdi,rax
  40574d:	e8 6e 3d 00 00       	call   4094c0 <astrcmp>
  405752:	85 c0                	test   eax,eax
  405754:	75 05                	jne    40575b <grep_cmd+0x9b>
  405756:	e9 b7 03 00 00       	jmp    405b12 <grep_cmd+0x452>
  40575b:	48 8b 45 d0          	mov    rax,QWORD PTR [rbp-0x30]
  40575f:	48 8d 48 13          	lea    rcx,[rax+0x13]
  405763:	48 8b 95 f0 fa ff ff 	mov    rdx,QWORD PTR [rbp-0x510]
  40576a:	48 8d 85 00 fd ff ff 	lea    rax,[rbp-0x300]
  405771:	49 89 c8             	mov    r8,rcx
  405774:	48 89 d1             	mov    rcx,rdx
  405777:	48 8d 15 82 5f 00 00 	lea    rdx,[rip+0x5f82]        # 40b700 <_IO_stdin_used+0x1700>
  40577e:	be 00 02 00 00       	mov    esi,0x200
  405783:	48 89 c7             	mov    rdi,rax
  405786:	b8 00 00 00 00       	mov    eax,0x0
  40578b:	e8 d0 c9 ff ff       	call   402160 <snprintf@plt>
  405790:	48 8d 95 00 ff ff ff 	lea    rdx,[rbp-0x100]
  405797:	48 8d 85 00 fd ff ff 	lea    rax,[rbp-0x300]
  40579e:	48 89 d6             	mov    rsi,rdx
  4057a1:	48 89 c7             	mov    rdi,rax
  4057a4:	e8 d7 ca ff ff       	call   402280 <stat@plt>
  4057a9:	83 f8 ff             	cmp    eax,0xffffffff
  4057ac:	75 05                	jne    4057b3 <grep_cmd+0xf3>
  4057ae:	e9 5f 03 00 00       	jmp    405b12 <grep_cmd+0x452>
  4057b3:	8b 85 18 ff ff ff    	mov    eax,DWORD PTR [rbp-0xe8]
  4057b9:	25 00 f0 00 00       	and    eax,0xf000
  4057be:	3d 00 40 00 00       	cmp    eax,0x4000
  4057c3:	75 51                	jne    405816 <grep_cmd+0x156>
  4057c5:	8b bd dc fa ff ff    	mov    edi,DWORD PTR [rbp-0x524]
  4057cb:	48 8b 8d e0 fa ff ff 	mov    rcx,QWORD PTR [rbp-0x520]
  4057d2:	48 8b 95 e8 fa ff ff 	mov    rdx,QWORD PTR [rbp-0x518]
  4057d9:	48 8d b5 00 fd ff ff 	lea    rsi,[rbp-0x300]
  4057e0:	48 8b 85 f8 fa ff ff 	mov    rax,QWORD PTR [rbp-0x508]
  4057e7:	41 89 f8             	mov    r8d,edi
  4057ea:	48 89 c7             	mov    rdi,rax
  4057ed:	e8 ce fe ff ff       	call   4056c0 <grep_cmd>
  4057f2:	48 89 45 98          	mov    QWORD PTR [rbp-0x68],rax
  4057f6:	48 83 7d 98 00       	cmp    QWORD PTR [rbp-0x68],0x0
  4057fb:	0f 84 11 03 00 00    	je     405b12 <grep_cmd+0x452>
  405801:	48 8b 45 d8          	mov    rax,QWORD PTR [rbp-0x28]
  405805:	48 89 c7             	mov    rdi,rax
  405808:	e8 a3 c9 ff ff       	call   4021b0 <closedir@plt>
  40580d:	48 8b 45 98          	mov    rax,QWORD PTR [rbp-0x68]
  405811:	e9 28 03 00 00       	jmp    405b3e <grep_cmd+0x47e>
  405816:	8b 85 18 ff ff ff    	mov    eax,DWORD PTR [rbp-0xe8]
  40581c:	25 00 f0 00 00       	and    eax,0xf000
  405821:	3d 00 80 00 00       	cmp    eax,0x8000
  405826:	0f 85 e6 02 00 00    	jne    405b12 <grep_cmd+0x452>
  40582c:	48 8b 45 d0          	mov    rax,QWORD PTR [rbp-0x30]
  405830:	48 8d 50 13          	lea    rdx,[rax+0x13]
  405834:	48 8b 85 e8 fa ff ff 	mov    rax,QWORD PTR [rbp-0x518]
  40583b:	48 89 c6             	mov    rsi,rax
  40583e:	48 89 d7             	mov    rdi,rdx
  405841:	e8 7a 3c 00 00       	call   4094c0 <astrcmp>
  405846:	85 c0                	test   eax,eax
  405848:	0f 85 c4 02 00 00    	jne    405b12 <grep_cmd+0x452>
  40584e:	48 8b 85 f8 fa ff ff 	mov    rax,QWORD PTR [rbp-0x508]
  405855:	48 8d 15 cb 5e 00 00 	lea    rdx,[rip+0x5ecb]        # 40b727 <_IO_stdin_used+0x1727>
  40585c:	48 89 d6             	mov    rsi,rdx
  40585f:	48 89 c7             	mov    rdi,rax
  405862:	e8 59 3c 00 00       	call   4094c0 <astrcmp>
  405867:	85 c0                	test   eax,eax
  405869:	75 48                	jne    4058b3 <grep_cmd+0x1f3>
  40586b:	48 8b 45 d8          	mov    rax,QWORD PTR [rbp-0x28]
  40586f:	48 89 c7             	mov    rdi,rax
  405872:	e8 39 c9 ff ff       	call   4021b0 <closedir@plt>
  405877:	48 8d 85 00 fd ff ff 	lea    rax,[rbp-0x300]
  40587e:	48 89 c7             	mov    rdi,rax
  405881:	e8 8a c8 ff ff       	call   402110 <strlen@plt>
  405886:	83 c0 01             	add    eax,0x1
  405889:	89 c7                	mov    edi,eax
  40588b:	e8 e1 cc ff ff       	call   402571 <amm_malloc>
  405890:	48 89 45 a0          	mov    QWORD PTR [rbp-0x60],rax
  405894:	48 8d 95 00 fd ff ff 	lea    rdx,[rbp-0x300]
  40589b:	48 8b 45 a0          	mov    rax,QWORD PTR [rbp-0x60]
  40589f:	48 89 d6             	mov    rsi,rdx
  4058a2:	48 89 c7             	mov    rdi,rax
  4058a5:	e8 d6 c7 ff ff       	call   402080 <strcpy@plt>
  4058aa:	48 8b 45 a0          	mov    rax,QWORD PTR [rbp-0x60]
  4058ae:	e9 8b 02 00 00       	jmp    405b3e <grep_cmd+0x47e>
  4058b3:	48 8b 85 f8 fa ff ff 	mov    rax,QWORD PTR [rbp-0x508]
  4058ba:	48 8d 15 6e 5e 00 00 	lea    rdx,[rip+0x5e6e]        # 40b72f <_IO_stdin_used+0x172f>
  4058c1:	48 89 d6             	mov    rsi,rdx
  4058c4:	48 89 c7             	mov    rdi,rax
  4058c7:	e8 f4 3b 00 00       	call   4094c0 <astrcmp>
  4058cc:	85 c0                	test   eax,eax
  4058ce:	0f 85 fd 00 00 00    	jne    4059d1 <grep_cmd+0x311>
  4058d4:	48 8d 85 00 fd ff ff 	lea    rax,[rbp-0x300]
  4058db:	48 8d 15 54 5e 00 00 	lea    rdx,[rip+0x5e54]        # 40b736 <_IO_stdin_used+0x1736>
  4058e2:	48 89 d6             	mov    rsi,rdx
  4058e5:	48 89 c7             	mov    rdi,rax
  4058e8:	e8 43 ca ff ff       	call   402330 <fopen@plt>
  4058ed:	48 89 45 b0          	mov    QWORD PTR [rbp-0x50],rax
  4058f1:	48 83 7d b0 00       	cmp    QWORD PTR [rbp-0x50],0x0
  4058f6:	75 05                	jne    4058fd <grep_cmd+0x23d>
  4058f8:	e9 15 02 00 00       	jmp    405b12 <grep_cmd+0x452>
  4058fd:	48 c7 45 f8 00 00 00 	mov    QWORD PTR [rbp-0x8],0x0
  405904:	00 
  405905:	c7 45 f4 00 00 00 00 	mov    DWORD PTR [rbp-0xc],0x0
  40590c:	eb 2c                	jmp    40593a <grep_cmd+0x27a>
  40590e:	48 83 45 f8 01       	add    QWORD PTR [rbp-0x8],0x1
  405913:	48 8b 95 e0 fa ff ff 	mov    rdx,QWORD PTR [rbp-0x520]
  40591a:	48 8d 85 00 fb ff ff 	lea    rax,[rbp-0x500]
  405921:	48 89 d6             	mov    rsi,rdx
  405924:	48 89 c7             	mov    rdi,rax
  405927:	e8 a4 ca ff ff       	call   4023d0 <strstr@plt>
  40592c:	48 85 c0             	test   rax,rax
  40592f:	74 09                	je     40593a <grep_cmd+0x27a>
  405931:	c7 45 f4 01 00 00 00 	mov    DWORD PTR [rbp-0xc],0x1
  405938:	eb 1d                	jmp    405957 <grep_cmd+0x297>
  40593a:	48 8b 55 b0          	mov    rdx,QWORD PTR [rbp-0x50]
  40593e:	48 8d 85 00 fb ff ff 	lea    rax,[rbp-0x500]
  405945:	be 00 02 00 00       	mov    esi,0x200
  40594a:	48 89 c7             	mov    rdi,rax
  40594d:	e8 9e c8 ff ff       	call   4021f0 <fgets@plt>
  405952:	48 85 c0             	test   rax,rax
  405955:	75 b7                	jne    40590e <grep_cmd+0x24e>
  405957:	48 8b 45 b0          	mov    rax,QWORD PTR [rbp-0x50]
  40595b:	48 89 c7             	mov    rdi,rax
  40595e:	e8 7d c7 ff ff       	call   4020e0 <fclose@plt>
  405963:	83 7d f4 00          	cmp    DWORD PTR [rbp-0xc],0x0
  405967:	0f 84 a5 01 00 00    	je     405b12 <grep_cmd+0x452>
  40596d:	48 8b 45 d8          	mov    rax,QWORD PTR [rbp-0x28]
  405971:	48 89 c7             	mov    rdi,rax
  405974:	e8 37 c8 ff ff       	call   4021b0 <closedir@plt>
  405979:	48 8d 85 00 fd ff ff 	lea    rax,[rbp-0x300]
  405980:	48 89 c7             	mov    rdi,rax
  405983:	e8 88 c7 ff ff       	call   402110 <strlen@plt>
  405988:	83 c0 01             	add    eax,0x1
  40598b:	89 c7                	mov    edi,eax
  40598d:	e8 df cb ff ff       	call   402571 <amm_malloc>
  405992:	48 89 45 a8          	mov    QWORD PTR [rbp-0x58],rax
  405996:	48 8d 85 00 fd ff ff 	lea    rax,[rbp-0x300]
  40599d:	48 89 c7             	mov    rdi,rax
  4059a0:	e8 6b c7 ff ff       	call   402110 <strlen@plt>
  4059a5:	48 8d 70 01          	lea    rsi,[rax+0x1]
  4059a9:	48 8b 55 f8          	mov    rdx,QWORD PTR [rbp-0x8]
  4059ad:	48 8b 45 a8          	mov    rax,QWORD PTR [rbp-0x58]
  4059b1:	48 89 d1             	mov    rcx,rdx
  4059b4:	48 8d 15 7d 5d 00 00 	lea    rdx,[rip+0x5d7d]        # 40b738 <_IO_stdin_used+0x1738>
  4059bb:	48 89 c7             	mov    rdi,rax
  4059be:	b8 00 00 00 00       	mov    eax,0x0
  4059c3:	e8 98 c7 ff ff       	call   402160 <snprintf@plt>
  4059c8:	48 8b 45 a8          	mov    rax,QWORD PTR [rbp-0x58]
  4059cc:	e9 6d 01 00 00       	jmp    405b3e <grep_cmd+0x47e>
  4059d1:	48 8b 85 f8 fa ff ff 	mov    rax,QWORD PTR [rbp-0x508]
  4059d8:	48 8d 15 7c 5d 00 00 	lea    rdx,[rip+0x5d7c]        # 40b75b <_IO_stdin_used+0x175b>
  4059df:	48 89 d6             	mov    rsi,rdx
  4059e2:	48 89 c7             	mov    rdi,rax
  4059e5:	e8 d6 3a 00 00       	call   4094c0 <astrcmp>
  4059ea:	85 c0                	test   eax,eax
  4059ec:	0f 85 20 01 00 00    	jne    405b12 <grep_cmd+0x452>
  4059f2:	48 8d 85 00 fd ff ff 	lea    rax,[rbp-0x300]
  4059f9:	48 8d 15 36 5d 00 00 	lea    rdx,[rip+0x5d36]        # 40b736 <_IO_stdin_used+0x1736>
  405a00:	48 89 d6             	mov    rsi,rdx
  405a03:	48 89 c7             	mov    rdi,rax
  405a06:	e8 25 c9 ff ff       	call   402330 <fopen@plt>
  405a0b:	48 89 45 c8          	mov    QWORD PTR [rbp-0x38],rax
  405a0f:	48 83 7d c8 00       	cmp    QWORD PTR [rbp-0x38],0x0
  405a14:	75 05                	jne    405a1b <grep_cmd+0x35b>
  405a16:	e9 f7 00 00 00       	jmp    405b12 <grep_cmd+0x452>
  405a1b:	48 c7 45 e8 00 00 00 	mov    QWORD PTR [rbp-0x18],0x0
  405a22:	00 
  405a23:	c7 45 e4 00 00 00 00 	mov    DWORD PTR [rbp-0x1c],0x0
  405a2a:	eb 2c                	jmp    405a58 <grep_cmd+0x398>
  405a2c:	48 83 45 e8 01       	add    QWORD PTR [rbp-0x18],0x1
  405a31:	48 8b 95 e0 fa ff ff 	mov    rdx,QWORD PTR [rbp-0x520]
  405a38:	48 8d 85 00 fb ff ff 	lea    rax,[rbp-0x500]
  405a3f:	48 89 d6             	mov    rsi,rdx
  405a42:	48 89 c7             	mov    rdi,rax
  405a45:	e8 86 c9 ff ff       	call   4023d0 <strstr@plt>
  405a4a:	48 85 c0             	test   rax,rax
  405a4d:	74 09                	je     405a58 <grep_cmd+0x398>
  405a4f:	c7 45 e4 01 00 00 00 	mov    DWORD PTR [rbp-0x1c],0x1
  405a56:	eb 1d                	jmp    405a75 <grep_cmd+0x3b5>
  405a58:	48 8b 55 c8          	mov    rdx,QWORD PTR [rbp-0x38]
  405a5c:	48 8d 85 00 fb ff ff 	lea    rax,[rbp-0x500]
  405a63:	be 00 02 00 00       	mov    esi,0x200
  405a68:	48 89 c7             	mov    rdi,rax
  405a6b:	e8 80 c7 ff ff       	call   4021f0 <fgets@plt>
  405a70:	48 85 c0             	test   rax,rax
  405a73:	75 b7                	jne    405a2c <grep_cmd+0x36c>
  405a75:	48 8b 45 c8          	mov    rax,QWORD PTR [rbp-0x38]
  405a79:	48 89 c7             	mov    rdi,rax
  405a7c:	e8 5f c6 ff ff       	call   4020e0 <fclose@plt>
  405a81:	83 7d e4 00          	cmp    DWORD PTR [rbp-0x1c],0x0
  405a85:	0f 84 87 00 00 00    	je     405b12 <grep_cmd+0x452>
  405a8b:	48 8b 45 d8          	mov    rax,QWORD PTR [rbp-0x28]
  405a8f:	48 89 c7             	mov    rdi,rax
  405a92:	e8 19 c7 ff ff       	call   4021b0 <closedir@plt>
  405a97:	48 8d 95 00 fd ff ff 	lea    rdx,[rbp-0x300]
  405a9e:	48 8b 45 e8          	mov    rax,QWORD PTR [rbp-0x18]
  405aa2:	49 89 d0             	mov    r8,rdx
  405aa5:	48 89 c1             	mov    rcx,rax
  405aa8:	48 8d 05 b9 5c 00 00 	lea    rax,[rip+0x5cb9]        # 40b768 <_IO_stdin_used+0x1768>
  405aaf:	48 89 c2             	mov    rdx,rax
  405ab2:	be 00 00 00 00       	mov    esi,0x0
  405ab7:	bf 00 00 00 00       	mov    edi,0x0
  405abc:	b8 00 00 00 00       	mov    eax,0x0
  405ac1:	e8 9a c6 ff ff       	call   402160 <snprintf@plt>
  405ac6:	89 45 c4             	mov    DWORD PTR [rbp-0x3c],eax
  405ac9:	8b 45 c4             	mov    eax,DWORD PTR [rbp-0x3c]
  405acc:	83 c0 01             	add    eax,0x1
  405acf:	89 c7                	mov    edi,eax
  405ad1:	e8 9b ca ff ff       	call   402571 <amm_malloc>
  405ad6:	48 89 45 b8          	mov    QWORD PTR [rbp-0x48],rax
  405ada:	8b 45 c4             	mov    eax,DWORD PTR [rbp-0x3c]
  405add:	83 c0 01             	add    eax,0x1
  405ae0:	48 63 f0             	movsxd rsi,eax
  405ae3:	48 8d 8d 00 fd ff ff 	lea    rcx,[rbp-0x300]
  405aea:	48 8b 55 e8          	mov    rdx,QWORD PTR [rbp-0x18]
  405aee:	48 8b 45 b8          	mov    rax,QWORD PTR [rbp-0x48]
  405af2:	49 89 c8             	mov    r8,rcx
  405af5:	48 89 d1             	mov    rcx,rdx
  405af8:	48 8d 15 69 5c 00 00 	lea    rdx,[rip+0x5c69]        # 40b768 <_IO_stdin_used+0x1768>
  405aff:	48 89 c7             	mov    rdi,rax
  405b02:	b8 00 00 00 00       	mov    eax,0x0
  405b07:	e8 54 c6 ff ff       	call   402160 <snprintf@plt>
  405b0c:	48 8b 45 b8          	mov    rax,QWORD PTR [rbp-0x48]
  405b10:	eb 2c                	jmp    405b3e <grep_cmd+0x47e>
  405b12:	48 8b 45 d8          	mov    rax,QWORD PTR [rbp-0x28]
  405b16:	48 89 c7             	mov    rdi,rax
  405b19:	e8 b2 c7 ff ff       	call   4022d0 <readdir@plt>
  405b1e:	48 89 45 d0          	mov    QWORD PTR [rbp-0x30],rax
  405b22:	48 83 7d d0 00       	cmp    QWORD PTR [rbp-0x30],0x0
  405b27:	0f 85 e9 fb ff ff    	jne    405716 <grep_cmd+0x56>
  405b2d:	48 8b 45 d8          	mov    rax,QWORD PTR [rbp-0x28]
  405b31:	48 89 c7             	mov    rdi,rax
  405b34:	e8 77 c6 ff ff       	call   4021b0 <closedir@plt>
  405b39:	b8 00 00 00 00       	mov    eax,0x0
  405b3e:	c9                   	leave
  405b3f:	c3                   	ret

0000000000405b40 <sizeinfo>:
  405b40:	55                   	push   rbp
  405b41:	48 89 e5             	mov    rbp,rsp
  405b44:	48 81 ec a0 00 00 00 	sub    rsp,0xa0
  405b4b:	48 89 bd 68 ff ff ff 	mov    QWORD PTR [rbp-0x98],rdi
  405b52:	89 b5 64 ff ff ff    	mov    DWORD PTR [rbp-0x9c],esi
  405b58:	48 8d 95 70 ff ff ff 	lea    rdx,[rbp-0x90]
  405b5f:	48 8b 85 68 ff ff ff 	mov    rax,QWORD PTR [rbp-0x98]
  405b66:	48 89 d6             	mov    rsi,rdx
  405b69:	48 89 c7             	mov    rdi,rax
  405b6c:	e8 0f c7 ff ff       	call   402280 <stat@plt>
  405b71:	85 c0                	test   eax,eax
  405b73:	75 29                	jne    405b9e <sizeinfo+0x5e>
  405b75:	48 8b 55 a0          	mov    rdx,QWORD PTR [rbp-0x60]
  405b79:	48 8b 05 20 88 00 00 	mov    rax,QWORD PTR [rip+0x8820]        # 40e3a0 <stdout@GLIBC_2.2.5>
  405b80:	48 8d 0d 0d 5c 00 00 	lea    rcx,[rip+0x5c0d]        # 40b794 <_IO_stdin_used+0x1794>
  405b87:	48 89 ce             	mov    rsi,rcx
  405b8a:	48 89 c7             	mov    rdi,rax
  405b8d:	b8 00 00 00 00       	mov    eax,0x0
  405b92:	e8 c9 c6 ff ff       	call   402260 <fprintf@plt>
  405b97:	b8 01 00 00 00       	mov    eax,0x1
  405b9c:	eb 1d                	jmp    405bbb <sizeinfo+0x7b>
  405b9e:	83 bd 64 ff ff ff 02 	cmp    DWORD PTR [rbp-0x9c],0x2
  405ba5:	75 0f                	jne    405bb6 <sizeinfo+0x76>
  405ba7:	48 8d 05 f9 5b 00 00 	lea    rax,[rip+0x5bf9]        # 40b7a7 <_IO_stdin_used+0x17a7>
  405bae:	48 89 c7             	mov    rdi,rax
  405bb1:	e8 ea c4 ff ff       	call   4020a0 <puts@plt>
  405bb6:	b8 00 00 00 00       	mov    eax,0x0
  405bbb:	c9                   	leave
  405bbc:	c3                   	ret

0000000000405bbd <cat_cmd>:
  405bbd:	55                   	push   rbp
  405bbe:	48 89 e5             	mov    rbp,rsp
  405bc1:	48 81 ec b0 04 00 00 	sub    rsp,0x4b0
  405bc8:	48 89 bd 58 fb ff ff 	mov    QWORD PTR [rbp-0x4a8],rdi
  405bcf:	89 b5 54 fb ff ff    	mov    DWORD PTR [rbp-0x4ac],esi
  405bd5:	48 8d 95 60 ff ff ff 	lea    rdx,[rbp-0xa0]
  405bdc:	48 8b 85 58 fb ff ff 	mov    rax,QWORD PTR [rbp-0x4a8]
  405be3:	48 89 d6             	mov    rsi,rdx
  405be6:	48 89 c7             	mov    rdi,rax
  405be9:	e8 92 c6 ff ff       	call   402280 <stat@plt>
  405bee:	85 c0                	test   eax,eax
  405bf0:	74 31                	je     405c23 <cat_cmd+0x66>
  405bf2:	83 bd 54 fb ff ff 02 	cmp    DWORD PTR [rbp-0x4ac],0x2
  405bf9:	75 1e                	jne    405c19 <cat_cmd+0x5c>
  405bfb:	48 8b 85 58 fb ff ff 	mov    rax,QWORD PTR [rbp-0x4a8]
  405c02:	48 89 c6             	mov    rsi,rax
  405c05:	48 8d 05 bc 5b 00 00 	lea    rax,[rip+0x5bbc]        # 40b7c8 <_IO_stdin_used+0x17c8>
  405c0c:	48 89 c7             	mov    rdi,rax
  405c0f:	b8 00 00 00 00       	mov    eax,0x0
  405c14:	e8 37 c5 ff ff       	call   402150 <printf@plt>
  405c19:	b8 00 00 00 00       	mov    eax,0x0
  405c1e:	e9 e4 00 00 00       	jmp    405d07 <cat_cmd+0x14a>
  405c23:	48 8d 95 60 ff ff ff 	lea    rdx,[rbp-0xa0]
  405c2a:	48 8b 85 58 fb ff ff 	mov    rax,QWORD PTR [rbp-0x4a8]
  405c31:	48 89 d6             	mov    rsi,rdx
  405c34:	48 89 c7             	mov    rdi,rax
  405c37:	e8 44 c6 ff ff       	call   402280 <stat@plt>
  405c3c:	85 c0                	test   eax,eax
  405c3e:	0f 85 be 00 00 00    	jne    405d02 <cat_cmd+0x145>
  405c44:	8b 85 78 ff ff ff    	mov    eax,DWORD PTR [rbp-0x88]
  405c4a:	25 00 f0 00 00       	and    eax,0xf000
  405c4f:	3d 00 40 00 00       	cmp    eax,0x4000
  405c54:	75 22                	jne    405c78 <cat_cmd+0xbb>
  405c56:	83 bd 54 fb ff ff 02 	cmp    DWORD PTR [rbp-0x4ac],0x2
  405c5d:	75 0f                	jne    405c6e <cat_cmd+0xb1>
  405c5f:	48 8d 05 8b 5b 00 00 	lea    rax,[rip+0x5b8b]        # 40b7f1 <_IO_stdin_used+0x17f1>
  405c66:	48 89 c7             	mov    rdi,rax
  405c69:	e8 32 c4 ff ff       	call   4020a0 <puts@plt>
  405c6e:	b8 00 00 00 00       	mov    eax,0x0
  405c73:	e9 8f 00 00 00       	jmp    405d07 <cat_cmd+0x14a>
  405c78:	48 8b 85 58 fb ff ff 	mov    rax,QWORD PTR [rbp-0x4a8]
  405c7f:	48 8d 15 b0 5a 00 00 	lea    rdx,[rip+0x5ab0]        # 40b736 <_IO_stdin_used+0x1736>
  405c86:	48 89 d6             	mov    rsi,rdx
  405c89:	48 89 c7             	mov    rdi,rax
  405c8c:	e8 9f c6 ff ff       	call   402330 <fopen@plt>
  405c91:	48 89 45 f8          	mov    QWORD PTR [rbp-0x8],rax
  405c95:	48 83 7d f8 00       	cmp    QWORD PTR [rbp-0x8],0x0
  405c9a:	75 3d                	jne    405cd9 <cat_cmd+0x11c>
  405c9c:	83 bd 54 fb ff ff 02 	cmp    DWORD PTR [rbp-0x4ac],0x2
  405ca3:	75 0f                	jne    405cb4 <cat_cmd+0xf7>
  405ca5:	48 8d 05 dd 59 00 00 	lea    rax,[rip+0x59dd]        # 40b689 <_IO_stdin_used+0x1689>
  405cac:	48 89 c7             	mov    rdi,rax
  405caf:	e8 8c c6 ff ff       	call   402340 <perror@plt>
  405cb4:	b8 00 00 00 00       	mov    eax,0x0
  405cb9:	eb 4c                	jmp    405d07 <cat_cmd+0x14a>
  405cbb:	48 8d 85 60 fb ff ff 	lea    rax,[rbp-0x4a0]
  405cc2:	48 89 c6             	mov    rsi,rax
  405cc5:	48 8d 05 3b 5b 00 00 	lea    rax,[rip+0x5b3b]        # 40b807 <_IO_stdin_used+0x1807>
  405ccc:	48 89 c7             	mov    rdi,rax
  405ccf:	b8 00 00 00 00       	mov    eax,0x0
  405cd4:	e8 77 c4 ff ff       	call   402150 <printf@plt>
  405cd9:	48 8b 55 f8          	mov    rdx,QWORD PTR [rbp-0x8]
  405cdd:	48 8d 85 60 fb ff ff 	lea    rax,[rbp-0x4a0]
  405ce4:	be 00 04 00 00       	mov    esi,0x400
  405ce9:	48 89 c7             	mov    rdi,rax
  405cec:	e8 ff c4 ff ff       	call   4021f0 <fgets@plt>
  405cf1:	48 85 c0             	test   rax,rax
  405cf4:	75 c5                	jne    405cbb <cat_cmd+0xfe>
  405cf6:	48 8b 45 f8          	mov    rax,QWORD PTR [rbp-0x8]
  405cfa:	48 89 c7             	mov    rdi,rax
  405cfd:	e8 de c3 ff ff       	call   4020e0 <fclose@plt>
  405d02:	b8 01 00 00 00       	mov    eax,0x1
  405d07:	c9                   	leave
  405d08:	c3                   	ret

0000000000405d09 <cat_expand>:
  405d09:	55                   	push   rbp
  405d0a:	48 89 e5             	mov    rbp,rsp
  405d0d:	48 81 ec 50 01 00 00 	sub    rsp,0x150
  405d14:	48 89 bd c8 fe ff ff 	mov    QWORD PTR [rbp-0x138],rdi
  405d1b:	89 b5 c4 fe ff ff    	mov    DWORD PTR [rbp-0x13c],esi
  405d21:	48 89 95 b8 fe ff ff 	mov    QWORD PTR [rbp-0x148],rdx
  405d28:	48 89 8d b0 fe ff ff 	mov    QWORD PTR [rbp-0x150],rcx
  405d2f:	48 8b 85 c8 fe ff ff 	mov    rax,QWORD PTR [rbp-0x138]
  405d36:	be 2a 00 00 00       	mov    esi,0x2a
  405d3b:	48 89 c7             	mov    rdi,rax
  405d3e:	e8 fd c3 ff ff       	call   402140 <strchr@plt>
  405d43:	48 89 45 e8          	mov    QWORD PTR [rbp-0x18],rax
  405d47:	48 83 7d e8 00       	cmp    QWORD PTR [rbp-0x18],0x0
  405d4c:	75 20                	jne    405d6e <cat_expand+0x65>
  405d4e:	8b 95 c4 fe ff ff    	mov    edx,DWORD PTR [rbp-0x13c]
  405d54:	48 8b 85 c8 fe ff ff 	mov    rax,QWORD PTR [rbp-0x138]
  405d5b:	48 8b 8d b8 fe ff ff 	mov    rcx,QWORD PTR [rbp-0x148]
  405d62:	89 d6                	mov    esi,edx
  405d64:	48 89 c7             	mov    rdi,rax
  405d67:	ff d1                	call   rcx
  405d69:	e9 8a 01 00 00       	jmp    405ef8 <cat_expand+0x1ef>
  405d6e:	48 8b 85 c8 fe ff ff 	mov    rax,QWORD PTR [rbp-0x138]
  405d75:	be 2a 00 00 00       	mov    esi,0x2a
  405d7a:	48 89 c7             	mov    rdi,rax
  405d7d:	e8 8e f6 ff ff       	call   405410 <get_folder_from_path>
  405d82:	48 89 45 e0          	mov    QWORD PTR [rbp-0x20],rax
  405d86:	48 83 7d e0 00       	cmp    QWORD PTR [rbp-0x20],0x0
  405d8b:	75 0a                	jne    405d97 <cat_expand+0x8e>
  405d8d:	b8 00 00 00 00       	mov    eax,0x0
  405d92:	e9 61 01 00 00       	jmp    405ef8 <cat_expand+0x1ef>
  405d97:	48 8b 85 c8 fe ff ff 	mov    rax,QWORD PTR [rbp-0x138]
  405d9e:	48 89 c7             	mov    rdi,rax
  405da1:	e8 ec f5 ff ff       	call   405392 <cut_suffix>
  405da6:	48 89 45 f8          	mov    QWORD PTR [rbp-0x8],rax
  405daa:	48 83 7d f8 00       	cmp    QWORD PTR [rbp-0x8],0x0
  405daf:	75 0b                	jne    405dbc <cat_expand+0xb3>
  405db1:	48 8d 05 52 5a 00 00 	lea    rax,[rip+0x5a52]        # 40b80a <_IO_stdin_used+0x180a>
  405db8:	48 89 45 f8          	mov    QWORD PTR [rbp-0x8],rax
  405dbc:	48 8b 8d b0 fe ff ff 	mov    rcx,QWORD PTR [rbp-0x150]
  405dc3:	8b 95 c4 fe ff ff    	mov    edx,DWORD PTR [rbp-0x13c]
  405dc9:	48 8d 75 d4          	lea    rsi,[rbp-0x2c]
  405dcd:	48 8b 45 e0          	mov    rax,QWORD PTR [rbp-0x20]
  405dd1:	48 89 c7             	mov    rdi,rax
  405dd4:	e8 01 f7 ff ff       	call   4054da <ls_conter>
  405dd9:	48 89 45 d8          	mov    QWORD PTR [rbp-0x28],rax
  405ddd:	48 83 7d d8 00       	cmp    QWORD PTR [rbp-0x28],0x0
  405de2:	75 2e                	jne    405e12 <cat_expand+0x109>
  405de4:	83 bd c4 fe ff ff 02 	cmp    DWORD PTR [rbp-0x13c],0x2
  405deb:	75 0f                	jne    405dfc <cat_expand+0xf3>
  405ded:	48 8d 05 fd 58 00 00 	lea    rax,[rip+0x58fd]        # 40b6f1 <_IO_stdin_used+0x16f1>
  405df4:	48 89 c7             	mov    rdi,rax
  405df7:	e8 44 c5 ff ff       	call   402340 <perror@plt>
  405dfc:	48 8b 45 e0          	mov    rax,QWORD PTR [rbp-0x20]
  405e00:	48 89 c7             	mov    rdi,rax
  405e03:	e8 54 c8 ff ff       	call   40265c <amm_free>
  405e08:	b8 00 00 00 00       	mov    eax,0x0
  405e0d:	e9 e6 00 00 00       	jmp    405ef8 <cat_expand+0x1ef>
  405e12:	c7 45 f4 00 00 00 00 	mov    DWORD PTR [rbp-0xc],0x0
  405e19:	e9 8e 00 00 00       	jmp    405eac <cat_expand+0x1a3>
  405e1e:	8b 45 f4             	mov    eax,DWORD PTR [rbp-0xc]
  405e21:	48 98                	cdqe
  405e23:	48 8d 14 c5 00 00 00 	lea    rdx,[rax*8+0x0]
  405e2a:	00 
  405e2b:	48 8b 45 d8          	mov    rax,QWORD PTR [rbp-0x28]
  405e2f:	48 01 d0             	add    rax,rdx
  405e32:	48 8b 00             	mov    rax,QWORD PTR [rax]
  405e35:	48 8b 55 f8          	mov    rdx,QWORD PTR [rbp-0x8]
  405e39:	48 89 d6             	mov    rsi,rdx
  405e3c:	48 89 c7             	mov    rdi,rax
  405e3f:	e8 8c c5 ff ff       	call   4023d0 <strstr@plt>
  405e44:	48 85 c0             	test   rax,rax
  405e47:	74 5e                	je     405ea7 <cat_expand+0x19e>
  405e49:	8b 45 f4             	mov    eax,DWORD PTR [rbp-0xc]
  405e4c:	48 98                	cdqe
  405e4e:	48 8d 14 c5 00 00 00 	lea    rdx,[rax*8+0x0]
  405e55:	00 
  405e56:	48 8b 45 d8          	mov    rax,QWORD PTR [rbp-0x28]
  405e5a:	48 01 d0             	add    rax,rdx
  405e5d:	48 8b 08             	mov    rcx,QWORD PTR [rax]
  405e60:	48 8b 55 e0          	mov    rdx,QWORD PTR [rbp-0x20]
  405e64:	48 8d 85 d0 fe ff ff 	lea    rax,[rbp-0x130]
  405e6b:	49 89 c8             	mov    r8,rcx
  405e6e:	48 89 d1             	mov    rcx,rdx
  405e71:	48 8d 15 88 58 00 00 	lea    rdx,[rip+0x5888]        # 40b700 <_IO_stdin_used+0x1700>
  405e78:	be 00 01 00 00       	mov    esi,0x100
  405e7d:	48 89 c7             	mov    rdi,rax
  405e80:	b8 00 00 00 00       	mov    eax,0x0
  405e85:	e8 d6 c2 ff ff       	call   402160 <snprintf@plt>
  405e8a:	8b 95 c4 fe ff ff    	mov    edx,DWORD PTR [rbp-0x13c]
  405e90:	48 8d 85 d0 fe ff ff 	lea    rax,[rbp-0x130]
  405e97:	48 8b 8d b8 fe ff ff 	mov    rcx,QWORD PTR [rbp-0x148]
  405e9e:	89 d6                	mov    esi,edx
  405ea0:	48 89 c7             	mov    rdi,rax
  405ea3:	ff d1                	call   rcx
  405ea5:	eb 01                	jmp    405ea8 <cat_expand+0x19f>
  405ea7:	90                   	nop
  405ea8:	83 45 f4 01          	add    DWORD PTR [rbp-0xc],0x1
  405eac:	8b 45 d4             	mov    eax,DWORD PTR [rbp-0x2c]
  405eaf:	39 45 f4             	cmp    DWORD PTR [rbp-0xc],eax
  405eb2:	0f 8c 66 ff ff ff    	jl     405e1e <cat_expand+0x115>
  405eb8:	8b 55 d4             	mov    edx,DWORD PTR [rbp-0x2c]
  405ebb:	48 8b 45 d8          	mov    rax,QWORD PTR [rbp-0x28]
  405ebf:	89 d6                	mov    esi,edx
  405ec1:	48 89 c7             	mov    rdi,rax
  405ec4:	e8 83 ca ff ff       	call   40294c <TwoDfree>
  405ec9:	48 8b 45 e0          	mov    rax,QWORD PTR [rbp-0x20]
  405ecd:	48 89 c7             	mov    rdi,rax
  405ed0:	e8 87 c7 ff ff       	call   40265c <amm_free>
  405ed5:	48 83 7d f8 00       	cmp    QWORD PTR [rbp-0x8],0x0
  405eda:	74 17                	je     405ef3 <cat_expand+0x1ea>
  405edc:	48 8b 45 f8          	mov    rax,QWORD PTR [rbp-0x8]
  405ee0:	0f b6 00             	movzx  eax,BYTE PTR [rax]
  405ee3:	84 c0                	test   al,al
  405ee5:	74 0c                	je     405ef3 <cat_expand+0x1ea>
  405ee7:	48 8b 45 f8          	mov    rax,QWORD PTR [rbp-0x8]
  405eeb:	48 89 c7             	mov    rdi,rax
  405eee:	e8 69 c7 ff ff       	call   40265c <amm_free>
  405ef3:	b8 01 00 00 00       	mov    eax,0x1
  405ef8:	c9                   	leave
  405ef9:	c3                   	ret

0000000000405efa <echo_cmd>:
  405efa:	55                   	push   rbp
  405efb:	48 89 e5             	mov    rbp,rsp
  405efe:	48 83 ec 20          	sub    rsp,0x20
  405f02:	48 89 7d e8          	mov    QWORD PTR [rbp-0x18],rdi
  405f06:	c7 45 fc 00 00 00 00 	mov    DWORD PTR [rbp-0x4],0x0
  405f0d:	eb 1e                	jmp    405f2d <echo_cmd+0x33>
  405f0f:	8b 45 fc             	mov    eax,DWORD PTR [rbp-0x4]
  405f12:	48 63 d0             	movsxd rdx,eax
  405f15:	48 8b 45 e8          	mov    rax,QWORD PTR [rbp-0x18]
  405f19:	48 01 d0             	add    rax,rdx
  405f1c:	0f b6 00             	movzx  eax,BYTE PTR [rax]
  405f1f:	0f be c0             	movsx  eax,al
  405f22:	89 c7                	mov    edi,eax
  405f24:	e8 07 c1 ff ff       	call   402030 <putchar@plt>
  405f29:	83 45 fc 01          	add    DWORD PTR [rbp-0x4],0x1
  405f2d:	8b 45 fc             	mov    eax,DWORD PTR [rbp-0x4]
  405f30:	48 63 d0             	movsxd rdx,eax
  405f33:	48 8b 45 e8          	mov    rax,QWORD PTR [rbp-0x18]
  405f37:	48 01 d0             	add    rax,rdx
  405f3a:	0f b6 00             	movzx  eax,BYTE PTR [rax]
  405f3d:	84 c0                	test   al,al
  405f3f:	75 ce                	jne    405f0f <echo_cmd+0x15>
  405f41:	b8 01 00 00 00       	mov    eax,0x1
  405f46:	c9                   	leave
  405f47:	c3                   	ret

0000000000405f48 <rm_cmd>:
  405f48:	55                   	push   rbp
  405f49:	48 89 e5             	mov    rbp,rsp
  405f4c:	48 81 ec c0 00 00 00 	sub    rsp,0xc0
  405f53:	48 89 bd 48 ff ff ff 	mov    QWORD PTR [rbp-0xb8],rdi
  405f5a:	89 b5 44 ff ff ff    	mov    DWORD PTR [rbp-0xbc],esi
  405f60:	bf d5 01 00 00       	mov    edi,0x1d5
  405f65:	e8 07 c6 ff ff       	call   402571 <amm_malloc>
  405f6a:	48 89 45 f8          	mov    QWORD PTR [rbp-0x8],rax
  405f6e:	48 8b 85 48 ff ff ff 	mov    rax,QWORD PTR [rbp-0xb8]
  405f75:	48 89 c7             	mov    rdi,rax
  405f78:	e8 73 c1 ff ff       	call   4020f0 <opendir@plt>
  405f7d:	48 89 45 f0          	mov    QWORD PTR [rbp-0x10],rax
  405f81:	48 83 7d f0 00       	cmp    QWORD PTR [rbp-0x10],0x0
  405f86:	0f 85 c7 00 00 00    	jne    406053 <rm_cmd+0x10b>
  405f8c:	83 bd 44 ff ff ff 02 	cmp    DWORD PTR [rbp-0xbc],0x2
  405f93:	75 0f                	jne    405fa4 <rm_cmd+0x5c>
  405f95:	48 8d 05 37 57 00 00 	lea    rax,[rip+0x5737]        # 40b6d3 <_IO_stdin_used+0x16d3>
  405f9c:	48 89 c7             	mov    rdi,rax
  405f9f:	e8 9c c3 ff ff       	call   402340 <perror@plt>
  405fa4:	48 8b 45 f8          	mov    rax,QWORD PTR [rbp-0x8]
  405fa8:	48 89 c7             	mov    rdi,rax
  405fab:	e8 ac c6 ff ff       	call   40265c <amm_free>
  405fb0:	b8 00 00 00 00       	mov    eax,0x0
  405fb5:	e9 e0 00 00 00       	jmp    40609a <rm_cmd+0x152>
  405fba:	48 8b 45 e8          	mov    rax,QWORD PTR [rbp-0x18]
  405fbe:	0f b6 40 13          	movzx  eax,BYTE PTR [rax+0x13]
  405fc2:	3c 2e                	cmp    al,0x2e
  405fc4:	75 05                	jne    405fcb <rm_cmd+0x83>
  405fc6:	e9 88 00 00 00       	jmp    406053 <rm_cmd+0x10b>
  405fcb:	48 8b 45 e8          	mov    rax,QWORD PTR [rbp-0x18]
  405fcf:	48 8d 48 13          	lea    rcx,[rax+0x13]
  405fd3:	48 8b 95 48 ff ff ff 	mov    rdx,QWORD PTR [rbp-0xb8]
  405fda:	48 8b 45 f8          	mov    rax,QWORD PTR [rbp-0x8]
  405fde:	49 89 c8             	mov    r8,rcx
  405fe1:	48 89 d1             	mov    rcx,rdx
  405fe4:	48 8d 15 15 57 00 00 	lea    rdx,[rip+0x5715]        # 40b700 <_IO_stdin_used+0x1700>
  405feb:	be d5 01 00 00       	mov    esi,0x1d5
  405ff0:	48 89 c7             	mov    rdi,rax
  405ff3:	b8 00 00 00 00       	mov    eax,0x0
  405ff8:	e8 63 c1 ff ff       	call   402160 <snprintf@plt>
  405ffd:	48 8d 95 50 ff ff ff 	lea    rdx,[rbp-0xb0]
  406004:	48 8b 45 f8          	mov    rax,QWORD PTR [rbp-0x8]
  406008:	48 89 d6             	mov    rsi,rdx
  40600b:	48 89 c7             	mov    rdi,rax
  40600e:	e8 6d c2 ff ff       	call   402280 <stat@plt>
  406013:	85 c0                	test   eax,eax
  406015:	75 3c                	jne    406053 <rm_cmd+0x10b>
  406017:	8b 85 68 ff ff ff    	mov    eax,DWORD PTR [rbp-0x98]
  40601d:	25 00 f0 00 00       	and    eax,0xf000
  406022:	3d 00 40 00 00       	cmp    eax,0x4000
  406027:	75 16                	jne    40603f <rm_cmd+0xf7>
  406029:	8b 95 44 ff ff ff    	mov    edx,DWORD PTR [rbp-0xbc]
  40602f:	48 8b 45 f8          	mov    rax,QWORD PTR [rbp-0x8]
  406033:	89 d6                	mov    esi,edx
  406035:	48 89 c7             	mov    rdi,rax
  406038:	e8 0b ff ff ff       	call   405f48 <rm_cmd>
  40603d:	eb 14                	jmp    406053 <rm_cmd+0x10b>
  40603f:	8b 95 44 ff ff ff    	mov    edx,DWORD PTR [rbp-0xbc]
  406045:	48 8b 45 f8          	mov    rax,QWORD PTR [rbp-0x8]
  406049:	89 d6                	mov    esi,edx
  40604b:	48 89 c7             	mov    rdi,rax
  40604e:	e8 49 00 00 00       	call   40609c <rf_cmd>
  406053:	48 8b 45 f0          	mov    rax,QWORD PTR [rbp-0x10]
  406057:	48 89 c7             	mov    rdi,rax
  40605a:	e8 71 c2 ff ff       	call   4022d0 <readdir@plt>
  40605f:	48 89 45 e8          	mov    QWORD PTR [rbp-0x18],rax
  406063:	48 83 7d e8 00       	cmp    QWORD PTR [rbp-0x18],0x0
  406068:	0f 85 4c ff ff ff    	jne    405fba <rm_cmd+0x72>
  40606e:	48 8b 45 f0          	mov    rax,QWORD PTR [rbp-0x10]
  406072:	48 89 c7             	mov    rdi,rax
  406075:	e8 36 c1 ff ff       	call   4021b0 <closedir@plt>
  40607a:	48 8b 85 48 ff ff ff 	mov    rax,QWORD PTR [rbp-0xb8]
  406081:	48 89 c7             	mov    rdi,rax
  406084:	e8 77 c0 ff ff       	call   402100 <rmdir@plt>
  406089:	48 8b 45 f8          	mov    rax,QWORD PTR [rbp-0x8]
  40608d:	48 89 c7             	mov    rdi,rax
  406090:	e8 c7 c5 ff ff       	call   40265c <amm_free>
  406095:	b8 01 00 00 00       	mov    eax,0x1
  40609a:	c9                   	leave
  40609b:	c3                   	ret
  
  000000000040609c <rf_cmd>:
  40609c:	55                   	push   rbp
  40609d:	48 89 e5             	mov    rbp,rsp
  4060a0:	48 83 ec 10          	sub    rsp,0x10
  4060a4:	48 89 7d f8          	mov    QWORD PTR [rbp-0x8],rdi
  4060a8:	89 75 f4             	mov    DWORD PTR [rbp-0xc],esi
  4060ab:	48 8b 45 f8          	mov    rax,QWORD PTR [rbp-0x8]
  4060af:	48 89 c7             	mov    rdi,rax
  4060b2:	e8 99 bf ff ff       	call   402050 <remove@plt>
  4060b7:	85 c0                	test   eax,eax
  4060b9:	75 07                	jne    4060c2 <rf_cmd+0x26>
  4060bb:	b8 01 00 00 00       	mov    eax,0x1
  4060c0:	eb 2e                	jmp    4060f0 <rf_cmd+0x54>
  4060c2:	83 7d f4 02          	cmp    DWORD PTR [rbp-0xc],0x2
  4060c6:	75 23                	jne    4060eb <rf_cmd+0x4f>
  4060c8:	48 8b 05 f1 82 00 00 	mov    rax,QWORD PTR [rip+0x82f1]        # 40e3c0 <stderr@GLIBC_2.2.5>
  4060cf:	48 89 c1             	mov    rcx,rax
  4060d2:	ba 19 00 00 00       	mov    edx,0x19
  4060d7:	be 01 00 00 00       	mov    esi,0x1
  4060dc:	48 8d 05 28 57 00 00 	lea    rax,[rip+0x5728]        # 40b80b <_IO_stdin_used+0x180b>
  4060e3:	48 89 c7             	mov    rdi,rax
  4060e6:	e8 b5 c2 ff ff       	call   4023a0 <fwrite@plt>
  4060eb:	b8 00 00 00 00       	mov    eax,0x0
  4060f0:	c9                   	leave
  4060f1:	c3                   	ret
  4060f2:	66 2e 0f 1f 84 00 00 	cs nop WORD PTR [rax+rax*1+0x0]
  4060f9:	00 00 00 
  4060fc:	0f 1f 40 00          	nop    DWORD PTR [rax+0x0]

0000000000406100 <calc>:
  406100:	b8 01 00 00 00       	mov    eax,0x1
  406105:	bf 01 00 00 00       	mov    edi,0x1
  40610a:	48 be 00 e3 40 00 00 	movabs rsi,0x40e300
  406111:	00 00 00 
  406114:	ba 0c 00 00 00       	mov    edx,0xc
  406119:	0f 05                	syscall
  40611b:	b8 00 00 00 00       	mov    eax,0x0
  406120:	bf 00 00 00 00       	mov    edi,0x0
  406125:	48 be d0 fe 48 00 00 	movabs rsi,0x48fed0
  40612c:	00 00 00 
  40612f:	ba 0c 00 00 00       	mov    edx,0xc
  406134:	0f 05                	syscall
  406136:	c6 80 d0 fe 48 00 00 	mov    BYTE PTR [rax+0x48fed0],0x0
  40613d:	b8 01 00 00 00       	mov    eax,0x1
  406142:	bf 01 00 00 00       	mov    edi,0x1
  406147:	48 be 0c e3 40 00 00 	movabs rsi,0x40e30c
  40614e:	00 00 00 
  406151:	ba 0c 00 00 00       	mov    edx,0xc
  406156:	0f 05                	syscall
  406158:	b8 00 00 00 00       	mov    eax,0x0
  40615d:	bf 00 00 00 00       	mov    edi,0x0
  406162:	48 be e4 fe 48 00 00 	movabs rsi,0x48fee4
  406169:	00 00 00 
  40616c:	ba 0c 00 00 00       	mov    edx,0xc
  406171:	0f 05                	syscall
  406173:	c6 80 e4 fe 48 00 00 	mov    BYTE PTR [rax+0x0048fee4],0x0
  40617a:	b8 01 00 00 00       	mov    eax,0x1
  40617f:	bf 01 00 00 00       	mov    edi,0x1
  406184:	48 be 18 e3 40 00 00 	movabs rsi,0x40e318
  40618b:	00 00 00 
  40618e:	ba 18 00 00 00       	mov    edx,0x18
  406193:	0f 05                	syscall
  406195:	b8 00 00 00 00       	mov    eax,0x0
  40619a:	bf 00 00 00 00       	mov    edi,0x0
  40619f:	48 be f8 fe 48 00 00 	movabs rsi,0x48fef8
  4061a6:	00 00 00 
  4061a9:	ba 01 00 00 00       	mov    edx,0x1
  4061ae:	0f 05                	syscall
  4061b0:	b8 00 00 00 00       	mov    eax,0x0
  4061b5:	bf 00 00 00 00       	mov    edi,0x0
  4061ba:	48 be 5d ff 48 00 00 	movabs rsi,0x48ff5d
  4061c1:	00 00 00 
  4061c4:	ba 01 00 00 00       	mov    edx,0x1
  4061c9:	0f 05                	syscall
  4061cb:	b8 1a 00 00 00       	mov    eax,0x1a
  4061d0:	48 bf d0 fe 48 00 00 	movabs rdi,0x48fed0
  4061d7:	00 00 00 
  4061da:	e8 21 01 00 00       	call   406300 <Ammkernel>
  4061df:	48 89 c3             	mov    rbx,rax
  4061e2:	b8 1a 00 00 00       	mov    eax,0x1a
  4061e7:	48 bf e4 fe 48 00 00 	movabs rdi,0x48fee4
  4061ee:	00 00 00 
  4061f1:	e8 0a 01 00 00       	call   406300 <Ammkernel>
  4061f6:	49 89 c0             	mov    r8,rax
  4061f9:	8a 04 25 f8 fe 48 00 	mov    al,BYTE PTR ds:0x48fef8
  406200:	3c 2b                	cmp    al,0x2b
  406202:	74 16                	je     40621a <calc.summ>
  406204:	3c 2d                	cmp    al,0x2d
  406206:	74 41                	je     406249 <calc.diference>
  406208:	3c 2a                	cmp    al,0x2a
  40620a:	74 6c                	je     406278 <calc.imull>
  40620c:	3c 2f                	cmp    al,0x2f
  40620e:	0f 84 94 00 00 00    	je     4062a8 <calc.dev>
  406214:	b8 01 00 00 00       	mov    eax,0x1
  406219:	c3                   	ret

000000000040621a <calc.summ>:
  40621a:	49 01 d8             	add    r8,rbx
  40621d:	b8 05 00 00 00       	mov    eax,0x5
  406222:	4c 89 c7             	mov    rdi,r8
  406225:	48 be f9 fe 48 00 00 	movabs rsi,0x48fef9
  40622c:	00 00 00 
  40622f:	e8 cc 00 00 00       	call   406300 <Ammkernel>
  406234:	b8 18 00 00 00       	mov    eax,0x18
  406239:	48 bf f9 fe 48 00 00 	movabs rdi,0x48fef9
  406240:	00 00 00 
  406243:	e8 b8 00 00 00       	call   406300 <Ammkernel>
  406248:	c3                   	ret

0000000000406249 <calc.diference>:
  406249:	4c 29 c3             	sub    rbx,r8
  40624c:	b8 05 00 00 00       	mov    eax,0x5
  406251:	48 89 df             	mov    rdi,rbx
  406254:	48 be f9 fe 48 00 00 	movabs rsi,0x48fef9
  40625b:	00 00 00 
  40625e:	e8 9d 00 00 00       	call   406300 <Ammkernel>
  406263:	b8 18 00 00 00       	mov    eax,0x18
  406268:	48 bf f9 fe 48 00 00 	movabs rdi,0x48fef9
  40626f:	00 00 00 
  406272:	e8 89 00 00 00       	call   406300 <Ammkernel>
  406277:	c3                   	ret

0000000000406278 <calc.imull>:
  406278:	49 0f af d8          	imul   rbx,r8
  40627c:	b8 05 00 00 00       	mov    eax,0x5
  406281:	48 89 df             	mov    rdi,rbx
  406284:	48 be f9 fe 48 00 00 	movabs rsi,0x48fef9
  40628b:	00 00 00 
  40628e:	e8 6d 00 00 00       	call   406300 <Ammkernel>
  406293:	b8 18 00 00 00       	mov    eax,0x18
  406298:	48 bf f9 fe 48 00 00 	movabs rdi,0x48fef9
  40629f:	00 00 00 
  4062a2:	e8 59 00 00 00       	call   406300 <Ammkernel>
  4062a7:	c3                   	ret

00000000004062a8 <calc.dev>:
  4062a8:	4d 85 c0             	test   r8,r8
  4062ab:	74 3b                	je     4062e8 <calc.div_by_zero>
  4062ad:	48 89 d8             	mov    rax,rbx
  4062b0:	48 99                	cqo
  4062b2:	49 f7 f8             	idiv   r8
  4062b5:	48 89 c7             	mov    rdi,rax
  4062b8:	48 be f9 fe 48 00 00 	movabs rsi,0x48fef9
  4062bf:	00 00 00 
  4062c2:	b8 05 00 00 00       	mov    eax,0x5
  4062c7:	e8 34 00 00 00       	call   406300 <Ammkernel>
  4062cc:	b8 01 00 00 00       	mov    eax,0x1
  4062d1:	bf 01 00 00 00       	mov    edi,0x1
  4062d6:	48 be f9 fe 48 00 00 	movabs rsi,0x48fef9
  4062dd:	00 00 00 
  4062e0:	ba 14 00 00 00       	mov    edx,0x14
  4062e5:	0f 05                	syscall
  4062e7:	c3                   	ret

00000000004062e8 <calc.div_by_zero>:
  4062e8:	b8 1b 00 00 00       	mov    eax,0x1b
  4062ed:	e8 0e 00 00 00       	call   406300 <Ammkernel>
  4062f2:	66 2e 0f 1f 84 00 00 	cs nop WORD PTR [rax+rax*1+0x0]
  4062f9:	00 00 00 
  4062fc:	0f 1f 40 00          	nop    DWORD PTR [rax+0x0]

0000000000406300 <Ammkernel>:
  406300:	53                   	push   rbx
  406301:	48 8d 1d 18 7f 00 00 	lea    rbx,[rip+0x7f18]        # 40e220 <funcs>
  406308:	48 8b 0c c3          	mov    rcx,QWORD PTR [rbx+rax*8]
  40630c:	ff d1                	call   rcx
  40630e:	5b                   	pop    rbx
  40630f:	c3                   	ret

0000000000406310 <fib>:
  406310:	41 50                	push   r8
  406312:	41 51                	push   r9
  406314:	41 52                	push   r10
  406316:	41 53                	push   r11
  406318:	b8 01 00 00 00       	mov    eax,0x1
  40631d:	bf 01 00 00 00       	mov    edi,0x1
  406322:	48 be 30 e3 40 00 00 	movabs rsi,0x40e330
  406329:	00 00 00 
  40632c:	ba 1c 00 00 00       	mov    edx,0x1c
  406331:	0f 05                	syscall
  406333:	b8 00 00 00 00       	mov    eax,0x0
  406338:	bf 00 00 00 00       	mov    edi,0x0
  40633d:	48 be 60 ff 48 00 00 	movabs rsi,0x48ff60
  406344:	00 00 00 
  406347:	ba 04 00 00 00       	mov    edx,0x4
  40634c:	0f 05                	syscall
  40634e:	b8 1a 00 00 00       	mov    eax,0x1a
  406353:	48 bf 60 ff 48 00 00 	movabs rdi,0x48ff60
  40635a:	00 00 00 
  40635d:	e8 9e ff ff ff       	call   406300 <Ammkernel>
  406362:	48 89 c1             	mov    rcx,rax
  406365:	48 83 f9 00          	cmp    rcx,0x0
  406369:	7e 7c                	jle    4063e7 <fib.done>
  40636b:	48 81 f9 b9 00 00 00 	cmp    rcx,0xb9
  406372:	7d 56                	jge    4063ca <fib.toooo_big>
  406374:	41 b9 01 00 00 00    	mov    r9d,0x1
  40637a:	41 b8 00 00 00 00    	mov    r8d,0x0

0000000000406380 <fib.next_num>:
  406380:	48 83 f9 01          	cmp    rcx,0x1
  406384:	76 17                	jbe    40639d <fib.printnum>
  406386:	4d 89 c1             	mov    r9,r8
  406389:	48 89 d6             	mov    rsi,rdx
  40638c:	49 01 c0             	add    r8,rax
  40638f:	48 11 da             	adc    rdx,rbx
  406392:	4c 89 c8             	mov    rax,r9
  406395:	48 89 f3             	mov    rbx,rsi
  406398:	48 ff c9             	dec    rcx
  40639b:	75 e3                	jne    406380 <fib.next_num>

000000000040639d <fib.printnum>:
  40639d:	b8 05 00 00 00       	mov    eax,0x5
  4063a2:	4c 89 cf             	mov    rdi,r9
  4063a5:	48 be 60 ff 48 00 00 	movabs rsi,0x48ff60
  4063ac:	00 00 00 
  4063af:	e8 4c ff ff ff       	call   406300 <Ammkernel>
  4063b4:	b8 18 00 00 00       	mov    eax,0x18
  4063b9:	48 bf 60 ff 48 00 00 	movabs rdi,0x48ff60
  4063c0:	00 00 00 
  4063c3:	e8 38 ff ff ff       	call   406300 <Ammkernel>
  4063c8:	eb 1d                	jmp    4063e7 <fib.done>

00000000004063ca <fib.toooo_big>:
  4063ca:	b8 01 00 00 00       	mov    eax,0x1
  4063cf:	bf 01 00 00 00       	mov    edi,0x1
  4063d4:	48 be 4c e3 40 00 00 	movabs rsi,0x40e34c
  4063db:	00 00 00 
  4063de:	ba 1b 00 00 00       	mov    edx,0x1b
  4063e3:	0f 05                	syscall
  4063e5:	eb 00                	jmp    4063e7 <fib.done>

00000000004063e7 <fib.done>:
  4063e7:	41 5b                	pop    r11
  4063e9:	41 5a                	pop    r10
  4063eb:	41 59                	pop    r9
  4063ed:	41 58                	pop    r8
  4063ef:	b8 01 00 00 00       	mov    eax,0x1
  4063f4:	c3                   	ret

00000000004063f5 <ParseAndExecute>:
  4063f5:	55                   	push   rbp
  4063f6:	48 89 e5             	mov    rbp,rsp
  4063f9:	48 83 ec 20          	sub    rsp,0x20
  4063fd:	48 89 7d f8          	mov    QWORD PTR [rbp-0x8],rdi
  406401:	89 75 f4             	mov    DWORD PTR [rbp-0xc],esi
  406404:	89 55 f0             	mov    DWORD PTR [rbp-0x10],edx
  406407:	89 c8                	mov    eax,ecx
  406409:	88 45 ec             	mov    BYTE PTR [rbp-0x14],al
  40640c:	48 8b 45 f8          	mov    rax,QWORD PTR [rbp-0x8]
  406410:	48 8d 15 0e 54 00 00 	lea    rdx,[rip+0x540e]        # 40b825 <_IO_stdin_used+0x1825>
  406417:	48 89 d6             	mov    rsi,rdx
  40641a:	48 89 c7             	mov    rdi,rax
  40641d:	e8 9e 30 00 00       	call   4094c0 <astrcmp>
  406422:	85 c0                	test   eax,eax
  406424:	75 29                	jne    40644f <ParseAndExecute+0x5a>
  406426:	8b 45 f0             	mov    eax,DWORD PTR [rbp-0x10]
  406429:	48 98                	cdqe
  40642b:	8b 55 f4             	mov    edx,DWORD PTR [rbp-0xc]
  40642e:	48 63 d2             	movsxd rdx,edx
  406431:	48 6b d2 46          	imul   rdx,rdx,0x46
  406435:	48 01 c2             	add    rdx,rax
  406438:	48 8d 05 41 9b 08 00 	lea    rax,[rip+0x89b41]        # 48ff80 <VGA>
  40643f:	48 01 c2             	add    rdx,rax
  406442:	0f b6 45 ec          	movzx  eax,BYTE PTR [rbp-0x14]
  406446:	88 02                	mov    BYTE PTR [rdx],al
  406448:	b8 01 00 00 00       	mov    eax,0x1
  40644d:	eb 05                	jmp    406454 <ParseAndExecute+0x5f>
  40644f:	b8 00 00 00 00       	mov    eax,0x0
  406454:	c9                   	leave
  406455:	c3                   	ret

0000000000406456 <vga_init>:
  406456:	55                   	push   rbp
  406457:	48 89 e5             	mov    rbp,rsp
  40645a:	48 83 ec 10          	sub    rsp,0x10
  40645e:	c7 45 fc 00 00 00 00 	mov    DWORD PTR [rbp-0x4],0x0
  406465:	eb 40                	jmp    4064a7 <vga_init+0x51>
  406467:	c7 45 f8 00 00 00 00 	mov    DWORD PTR [rbp-0x8],0x0
  40646e:	eb 23                	jmp    406493 <vga_init+0x3d>
  406470:	8b 45 f8             	mov    eax,DWORD PTR [rbp-0x8]
  406473:	48 98                	cdqe
  406475:	8b 55 fc             	mov    edx,DWORD PTR [rbp-0x4]
  406478:	48 63 d2             	movsxd rdx,edx
  40647b:	48 6b d2 46          	imul   rdx,rdx,0x46
  40647f:	48 01 c2             	add    rdx,rax
  406482:	48 8d 05 f7 9a 08 00 	lea    rax,[rip+0x89af7]        # 48ff80 <VGA>
  406489:	48 01 d0             	add    rax,rdx
  40648c:	c6 00 20             	mov    BYTE PTR [rax],0x20
  40648f:	83 45 f8 01          	add    DWORD PTR [rbp-0x8],0x1
  406493:	83 7d f8 45          	cmp    DWORD PTR [rbp-0x8],0x45
  406497:	7e d7                	jle    406470 <vga_init+0x1a>
  406499:	bf 0a 00 00 00       	mov    edi,0xa
